 steam_api

 Timestamp is 54b69176 (Wed Jan 14 16:55:34 2015)

 Preferred load address is 10000000

 Start         Length     Name                   Class
 0001:00000000 000aa748H .text                   CODE
 0001:000aa750 00001a8fH .text$x                 CODE
 0001:000ac1e0 000008c0H .text$yc                CODE
 0001:000acaa0 00000296H .text$yd                CODE
 0002:00000000 00000420H .idata$5                DATA
 0002:00000420 00000004H .CRT$XCA                DATA
 0002:00000424 0000000cH .CRT$XCC                DATA
 0002:00000430 00000008H .CRT$XCL                DATA
 0002:00000438 000000c4H .CRT$XCU                DATA
 0002:000004fc 00000004H .CRT$XCZ                DATA
 0002:00000500 00000004H .CRT$XIA                DATA
 0002:00000504 00000010H .CRT$XIC                DATA
 0002:00000514 00000004H .CRT$XIZ                DATA
 0002:00000518 00000004H .CRT$XPA                DATA
 0002:0000051c 00000004H .CRT$XPX                DATA
 0002:00000520 00000004H .CRT$XPXA               DATA
 0002:00000524 00000004H .CRT$XPZ                DATA
 0002:00000528 00000004H .CRT$XTA                DATA
 0002:0000052c 00000004H .CRT$XTZ                DATA
 0002:00000530 0003b4f0H .rdata                  DATA
 0002:0003ba20 00000058H .rdata$debug            DATA
 0002:0003ba78 00001298H .rdata$r                DATA
 0002:0003cd10 00000004H .rtc$IAA                DATA
 0002:0003cd14 00000004H .rtc$IZZ                DATA
 0002:0003cd18 00000004H .rtc$TAA                DATA
 0002:0003cd1c 00000004H .rtc$TZZ                DATA
 0002:0003cd20 00003914H .xdata$x                DATA
 0002:00040634 00000104H .idata$2                DATA
 0002:00040738 00000014H .idata$3                DATA
 0002:0004074c 00000420H .idata$4                DATA
 0002:00040b6c 00001012H .idata$6                DATA
 0002:00041b80 000008b2H .edata                  DATA
 0003:00000000 0000afbcH .data                   DATA
 0003:0000afc0 06206dd8H .bss                    DATA

  Address         Publics by Value              Rva+Base       Lib:Object

 0000:00000000       __except_list              00000000     <absolute>
 0000:00000000       ___ImageBase               10000000     <linker-defined>
 0001:00000000       ?Auth_DisplayLoginDialogDownLevel@@YA_NPAPB_W0PAU_CREDUI_INFOW@@@Z 10001000 f   Auth.obj
 0001:00000070       ?Auth_DisplayLoginDialog@@YA_NPAPB_W0@Z 10001070 f   Auth.obj
 0001:00000330       ?Auth_Error@@YAXPBD@Z      10001330 f   Auth.obj
 0001:00000370       ?AuthDataReceived@@YAIPAXII0@Z 10001370 f   Auth.obj
 0001:000003c0       ?Auth_GetUsername@@YAPADXZ 100013c0 f   Auth.obj
 0001:000003d0       ?Auth_GetSessionID@@YAPADXZ 100013d0 f   Auth.obj
 0001:000003e0       ?Auth_GetUserID@@YAHXZ     100013e0 f   Auth.obj
 0001:000003f0       ?Auth_ParseResultBuffer@@YA_NPBD@Z 100013f0 f   Auth.obj
 0001:000004d0       ?Auth_PerformSessionLogin@@YA_NPBD0@Z 100014d0 f   Auth.obj
 0001:00000700       ?Auth_VerifyIdentity@@YAXXZ 10001700 f   Auth.obj
 0001:000007d0       ?DLCDataReceived@@YAIPAXII0@Z 100017d0 f   Auth.obj
 0001:00000810       ?Auth_OpenDLCStore@@YAXXZ  10001810 f   Auth.obj
 0001:000008e0       ?flipAndCodeBytes@@YAPADPAD@Z 100018e0 f   diskinfo.obj
 0001:00000b20       ?ReadPhysicalDriveInNTWithZeroRights@@YAXXZ 10001b20 f   diskinfo.obj
 0001:00000c70       ?GetDriveSerialNumber@@YAPADXZ 10001c70 f   diskinfo.obj
 0001:00000ca0       ?DLCInstaller_Register@@YAXXZ 10001ca0 f   DLCInstaller.obj
 0001:00000f30       ?DLCInstaller_Install@@YAXPB_W@Z 10001f30 f   DLCInstaller.obj
 0001:00001280       ?DLCInstaller_Run@@YAXXZ   10002280 f   DLCInstaller.obj
 0001:000012e0       ?swprintf@@YAHPA_WPB_WZZ   100022e0 f i DLCInstaller.obj
 0001:00001320       ?strrchr@@YAPADPADH@Z      10002320 f i DLCInstaller.obj
 0001:00001340       ?wcsrchr@@YAPA_WPA_W_W@Z   10002340 f i DLCInstaller.obj
 0001:00001360       ??$swprintf_s@$0EAA@@@YAHAAY0EAA@_WPB_WZZ 10002360 f i DLCInstaller.obj
 0001:00001390       ??$wcscpy_s@$0BAE@@@YAHAAY0BAE@_WPB_W@Z 10002390 f i DLCInstaller.obj
 0001:000013b0       ?Ext_Initialize@@YAXXZ     100023b0 f   ExtScript.obj
 0001:000013c0       ?Ext_Initialized@@YA_NXZ   100023c0 f   ExtScript.obj
 0001:000013d0       ?Ext_HandleWebRequest@@YAXPAUmg_connection@@PBUmg_request_info@@@Z 100023d0 f   ExtScript.obj
 0001:000013e0       ?Scriptability_HandleReturns@@YAXXZ 100023e0 f   GameInterface.obj
 0001:00001410       _GI_PushInt                10002410 f   GameInterface.obj
 0001:00001430       _GI_PushFloat              10002430 f   GameInterface.obj
 0001:00001450       _GI_PushEntRef             10002450 f   GameInterface.obj
 0001:00001470       _GI_PushVector             10002470 f   GameInterface.obj
 0001:000014a0       _findFunc                  100024a0 f   GameInterface.obj
 0001:00001570       _GI_Call                   10002570 f   GameInterface.obj
 0001:000016b0       _GI_SetField               100026b0 f   GameInterface.obj
 0001:00001740       _GI_GetField               10002740 f   GameInterface.obj
 0001:000017b0       _GI_TempFunc               100027b0 f   GameInterface.obj
 0001:000019c0       _GI_GetObjectType          100029c0 f   GameInterface.obj
 0001:000019f0       _GI_SetDropItemEnabled     100029f0 f   GameInterface.obj
 0001:00001a00       _GI_ToEntRef               10002a00 f   GameInterface.obj
 0001:00001a30       _GI_GetEntRef              10002a30 f   GameInterface.obj
 0001:00001a60       _GI_GetType                10002a60 f   GameInterface.obj
 0001:00001a80       _GI_NotifyNumArgs          10002a80 f   GameInterface.obj
 0001:00001a90       _GI_Cmd_Argc               10002a90 f   GameInterface.obj
 0001:00001aa0       _GI_Cmd_Argc_sv            10002aa0 f   GameInterface.obj
 0001:00001ab0       _GI_GetPing                10002ab0 f   GameInterface.obj
 0001:00001ad0       _GI_GetClientAddress       10002ad0 f   GameInterface.obj
 0001:00001b40       _GI_Cmd_EndTokenizedString 10002b40 f   GameInterface.obj
 0001:00001b50       _GI_GetTempEntRef          10002b50 f   GameInterface.obj
 0001:00001b90       _GI_GetVector              10002b90 f   GameInterface.obj
 0001:00001bc0       _GI_GetInt                 10002bc0 f   GameInterface.obj
 0001:00001be0       _GI_GetFloat               10002be0 f   GameInterface.obj
 0001:00001c00       _GI_CleanReturnStack       10002c00 f   GameInterface.obj
 0001:00001c40       ??A?$unordered_map@V?$basic_string@DU?$char_traits@D@std@@V?$allocator@D@2@@std@@P6AXH@ZV?$hash@V?$basic_string@DU?$char_traits@D@std@@V?$allocator@D@2@@std@@@2@U?$equal_to@V?$basic_string@DU?$char_traits@D@std@@V?$allocator@D@2@@std@@@2@V?$allocator@U?$pair@$$CBV?$basic_string@DU?$char_traits@D@std@@V?$allocator@D@2@@std@@P6AXH@Z@std@@@2@@tr1@std@@QAEAAP6AXH@ZABV?$basic_string@DU?$char_traits@D@std@@V?$allocator@D@2@@2@@Z 10002c40 f i GameInterface.obj
 0001:00001cf0       ?end@?$_Hash@V?$_Umap_traits@V?$basic_string@DU?$char_traits@D@std@@V?$allocator@D@2@@std@@P6AXH@ZV?$_Hash_compare@V?$basic_string@DU?$char_traits@D@std@@V?$allocator@D@2@@std@@V?$hash@V?$basic_string@DU?$char_traits@D@std@@V?$allocator@D@2@@std@@@2@U?$equal_to@V?$basic_string@DU?$char_traits@D@std@@V?$allocator@D@2@@std@@@2@@2@V?$allocator@U?$pair@$$CBV?$basic_string@DU?$char_traits@D@std@@V?$allocator@D@2@@std@@P6AXH@Z@std@@@2@$0A@@tr1@std@@@std@@QAE?AV?$_List_iterator@V?$_List_val@U?$pair@$$CBV?$basic_string@DU?$char_traits@D@std@@V?$allocator@D@2@@std@@P6AXH@Z@std@@V?$allocator@U?$pair@$$CBV?$basic_string@DU?$char_traits@D@std@@V?$allocator@D@2@@std@@P6AXH@Z@std@@@2@@std@@@2@XZ 10002cf0 f i GameInterface.obj
 0001:00001cf0       ?end@?$_Hash@V?$_Umap_traits@K_NV?$_Hash_compare@KV?$hash@K@std@@U?$equal_to@K@2@@std@@V?$allocator@U?$pair@$$CBK_N@std@@@2@$0A@@tr1@std@@@std@@QAE?AV?$_List_iterator@V?$_List_val@U?$pair@$$CBK_N@std@@V?$allocator@U?$pair@$$CBK_N@std@@@2@@std@@@2@XZ 10002cf0 f i PatchMW2AssetRestrict.obj
 0001:00001cf0       ?end@?$_Hash@V?$_Umap_traits@V?$basic_string@DU?$char_traits@D@std@@V?$allocator@D@2@@std@@_NV?$_Hash_compare@V?$basic_string@DU?$char_traits@D@std@@V?$allocator@D@2@@std@@V?$hash@V?$basic_string@DU?$char_traits@D@std@@V?$allocator@D@2@@std@@@2@U?$equal_to@V?$basic_string@DU?$char_traits@D@std@@V?$allocator@D@2@@std@@@2@@2@V?$allocator@U?$pair@$$CBV?$basic_string@DU?$char_traits@D@std@@V?$allocator@D@2@@std@@_N@std@@@2@$0A@@tr1@std@@@std@@QAE?AV?$_List_iterator@V?$_List_val@U?$pair@$$CBV?$basic_string@DU?$char_traits@D@std@@V?$allocator@D@2@@std@@_N@std@@V?$allocator@U?$pair@$$CBV?$basic_string@DU?$char_traits@D@std@@V?$allocator@D@2@@std@@_N@std@@@2@@std@@@2@XZ 10002cf0 f i PatchMW2CModels.obj
 0001:00001cf0       ?end@?$_Hash@V?$_Umap_traits@V?$basic_string@DU?$char_traits@D@std@@V?$allocator@D@2@@std@@PAUVehicleDef@@V?$_Hash_compare@V?$basic_string@DU?$char_traits@D@std@@V?$allocator@D@2@@std@@V?$hash@V?$basic_string@DU?$char_traits@D@std@@V?$allocator@D@2@@std@@@2@U?$equal_to@V?$basic_string@DU?$char_traits@D@std@@V?$allocator@D@2@@std@@@2@@2@V?$allocator@U?$pair@$$CBV?$basic_string@DU?$char_traits@D@std@@V?$allocator@D@2@@std@@PAUVehicleDef@@@std@@@2@$0A@@tr1@std@@@std@@QAE?AV?$_List_iterator@V?$_List_val@U?$pair@$$CBV?$basic_string@DU?$char_traits@D@std@@V?$allocator@D@2@@std@@PAUVehicleDef@@@std@@V?$allocator@U?$pair@$$CBV?$basic_string@DU?$char_traits@D@std@@V?$allocator@D@2@@std@@PAUVehicleDef@@@std@@@2@@std@@@2@XZ 10002cf0 f i PatchMW2LoadVehicleDef.obj
 0001:00001cf0       ?end@?$_Hash@V?$_Umap_traits@_K_NV?$_Hash_compare@_KV?$hash@_K@std@@U?$equal_to@_K@2@@std@@V?$allocator@U?$pair@$$CB_K_N@std@@@2@$0A@@tr1@std@@@std@@QAE?AV?$_List_iterator@V?$_List_val@U?$pair@$$CB_K_N@std@@V?$allocator@U?$pair@$$CB_K_N@std@@@2@@std@@@2@XZ 10002cf0 f i SteamBase.obj
 0001:00001cf0       ?end@?$_Hash@V?$_Umap_traits@_KPAVCCallbackBase@@V?$_Hash_compare@_KV?$hash@_K@std@@U?$equal_to@_K@2@@std@@V?$allocator@U?$pair@$$CB_KPAVCCallbackBase@@@std@@@3@$0A@@tr1@std@@@std@@QAE?AV?$_List_iterator@V?$_List_val@U?$pair@$$CB_KPAVCCallbackBase@@@std@@V?$allocator@U?$pair@$$CB_KPAVCCallbackBase@@@std@@@2@@std@@@2@XZ 10002cf0 f i SteamBase.obj
 0001:00001d10       ??C?$_List_iterator@V?$_List_val@U?$pair@$$CBV?$basic_string@DU?$char_traits@D@std@@V?$allocator@D@2@@std@@P6AXH@Z@std@@V?$allocator@U?$pair@$$CBV?$basic_string@DU?$char_traits@D@std@@V?$allocator@D@2@@std@@P6AXH@Z@std@@@2@@std@@@std@@QBEPAU?$pair@$$CBV?$basic_string@DU?$char_traits@D@std@@V?$allocator@D@2@@std@@P6AXH@Z@1@XZ 10002d10 f i GameInterface.obj
 0001:00001d30       ?end@?$list@U?$pair@$$CB_KPAVCCallbackBase@@@std@@V?$allocator@U?$pair@$$CB_KPAVCCallbackBase@@@std@@@2@@std@@QAE?AV?$_List_iterator@V?$_List_val@U?$pair@$$CB_KPAVCCallbackBase@@@std@@V?$allocator@U?$pair@$$CB_KPAVCCallbackBase@@@std@@@2@@std@@@2@XZ 10002d30 f i SteamBase.obj
 0001:00001d30       ?end@?$list@U?$pair@$$CB_K_N@std@@V?$allocator@U?$pair@$$CB_K_N@std@@@2@@std@@QAE?AV?$_List_iterator@V?$_List_val@U?$pair@$$CB_K_N@std@@V?$allocator@U?$pair@$$CB_K_N@std@@@2@@std@@@2@XZ 10002d30 f i SteamBase.obj
 0001:00001d30       ?end@?$list@U?$pair@$$CBV?$basic_string@DU?$char_traits@D@std@@V?$allocator@D@2@@std@@P6AXH@Z@std@@V?$allocator@U?$pair@$$CBV?$basic_string@DU?$char_traits@D@std@@V?$allocator@D@2@@std@@P6AXH@Z@std@@@2@@std@@QAE?AV?$_List_iterator@V?$_List_val@U?$pair@$$CBV?$basic_string@DU?$char_traits@D@std@@V?$allocator@D@2@@std@@P6AXH@Z@std@@V?$allocator@U?$pair@$$CBV?$basic_string@DU?$char_traits@D@std@@V?$allocator@D@2@@std@@P6AXH@Z@std@@@2@@std@@@2@XZ 10002d30 f i GameInterface.obj
 0001:00001d30       ?end@?$list@U?$pair@$$CBV?$basic_string@DU?$char_traits@D@std@@V?$allocator@D@2@@std@@_N@std@@V?$allocator@U?$pair@$$CBV?$basic_string@DU?$char_traits@D@std@@V?$allocator@D@2@@std@@_N@std@@@2@@std@@QAE?AV?$_List_iterator@V?$_List_val@U?$pair@$$CBV?$basic_string@DU?$char_traits@D@std@@V?$allocator@D@2@@std@@_N@std@@V?$allocator@U?$pair@$$CBV?$basic_string@DU?$char_traits@D@std@@V?$allocator@D@2@@std@@_N@std@@@2@@std@@@2@XZ 10002d30 f i PatchMW2CModels.obj
 0001:00001d30       ?end@?$list@U?$pair@$$CBK_N@std@@V?$allocator@U?$pair@$$CBK_N@std@@@2@@std@@QAE?AV?$_List_iterator@V?$_List_val@U?$pair@$$CBK_N@std@@V?$allocator@U?$pair@$$CBK_N@std@@@2@@std@@@2@XZ 10002d30 f i PatchMW2AssetRestrict.obj
 0001:00001d30       ?end@?$list@U?$pair@$$CBV?$basic_string@DU?$char_traits@D@std@@V?$allocator@D@2@@std@@PAUVehicleDef@@@std@@V?$allocator@U?$pair@$$CBV?$basic_string@DU?$char_traits@D@std@@V?$allocator@D@2@@std@@PAUVehicleDef@@@std@@@2@@std@@QAE?AV?$_List_iterator@V?$_List_val@U?$pair@$$CBV?$basic_string@DU?$char_traits@D@std@@V?$allocator@D@2@@std@@PAUVehicleDef@@@std@@V?$allocator@U?$pair@$$CBV?$basic_string@DU?$char_traits@D@std@@V?$allocator@D@2@@std@@PAUVehicleDef@@@std@@@2@@std@@@2@XZ 10002d30 f i PatchMW2LoadVehicleDef.obj
 0001:00001d60       ??0?$pair@$$CBV?$basic_string@DU?$char_traits@D@std@@V?$allocator@D@2@@std@@P6AXH@Z@std@@QAE@ABV?$basic_string@DU?$char_traits@D@std@@V?$allocator@D@2@@1@$$QAP6AXH@Z@Z 10002d60 f i GameInterface.obj
 0001:00001d90       ??R?$_Hash_compare@V?$basic_string@DU?$char_traits@D@std@@V?$allocator@D@2@@std@@V?$hash@V?$basic_string@DU?$char_traits@D@std@@V?$allocator@D@2@@std@@@2@U?$equal_to@V?$basic_string@DU?$char_traits@D@std@@V?$allocator@D@2@@std@@@2@@std@@QBE_NABV?$basic_string@DU?$char_traits@D@std@@V?$allocator@D@2@@1@0@Z 10002d90 f i GameInterface.obj
 0001:00001dc0       ??E?$_List_iterator@V?$_List_val@U?$pair@$$CBV?$basic_string@DU?$char_traits@D@std@@V?$allocator@D@2@@std@@PAUVehicleDef@@@std@@V?$allocator@U?$pair@$$CBV?$basic_string@DU?$char_traits@D@std@@V?$allocator@D@2@@std@@PAUVehicleDef@@@std@@@2@@std@@@std@@QAEAAV01@XZ 10002dc0 f i PatchMW2LoadVehicleDef.obj
 0001:00001dc0       ??E?$_List_iterator@V?$_List_val@U?$pair@$$CB_KPAVCCallbackBase@@@std@@V?$allocator@U?$pair@$$CB_KPAVCCallbackBase@@@std@@@2@@std@@@std@@QAEAAV01@XZ 10002dc0 f i SteamBase.obj
 0001:00001dc0       ??E?$_List_iterator@V?$_List_val@U?$pair@$$CB_K_N@std@@V?$allocator@U?$pair@$$CB_K_N@std@@@2@@std@@@std@@QAEAAV01@XZ 10002dc0 f i SteamBase.obj
 0001:00001dc0       ??E?$_List_iterator@V?$_List_val@U?$pair@$$CBV?$basic_string@DU?$char_traits@D@std@@V?$allocator@D@2@@std@@P6AXH@Z@std@@V?$allocator@U?$pair@$$CBV?$basic_string@DU?$char_traits@D@std@@V?$allocator@D@2@@std@@P6AXH@Z@std@@@2@@std@@@std@@QAEAAV01@XZ 10002dc0 f i GameInterface.obj
 0001:00001dc0       ??E?$_List_iterator@V?$_List_val@U?$pair@$$CBV?$basic_string@DU?$char_traits@D@std@@V?$allocator@D@2@@std@@_N@std@@V?$allocator@U?$pair@$$CBV?$basic_string@DU?$char_traits@D@std@@V?$allocator@D@2@@std@@_N@std@@@2@@std@@@std@@QAEAAV01@XZ 10002dc0 f i PatchMW2CModels.obj
 0001:00001de0       ??0?$_Pair_base@$$CBV?$basic_string@DU?$char_traits@D@std@@V?$allocator@D@2@@std@@P6AXH@Z@std@@QAE@ABV?$basic_string@DU?$char_traits@D@std@@V?$allocator@D@2@@1@$$QAP6AXH@Z@Z 10002de0 f i GameInterface.obj
 0001:00001e40       ??0?$basic_string@DU?$char_traits@D@std@@V?$allocator@D@2@@std@@QAE@ABV01@@Z 10002e40 f i GameInterface.obj
 0001:00001ec0       ?_Vec_lo@?$_Hash@V?$_Umap_traits@V?$basic_string@DU?$char_traits@D@std@@V?$allocator@D@2@@std@@_NV?$_Hash_compare@V?$basic_string@DU?$char_traits@D@std@@V?$allocator@D@2@@std@@V?$hash@V?$basic_string@DU?$char_traits@D@std@@V?$allocator@D@2@@std@@@2@U?$equal_to@V?$basic_string@DU?$char_traits@D@std@@V?$allocator@D@2@@std@@@2@@2@V?$allocator@U?$pair@$$CBV?$basic_string@DU?$char_traits@D@std@@V?$allocator@D@2@@std@@_N@std@@@2@$0A@@tr1@std@@@std@@IAEAAV?$_List_iterator@V?$_List_val@U?$pair@$$CBV?$basic_string@DU?$char_traits@D@std@@V?$allocator@D@2@@std@@_N@std@@V?$allocator@U?$pair@$$CBV?$basic_string@DU?$char_traits@D@std@@V?$allocator@D@2@@std@@_N@std@@@2@@std@@@2@I@Z 10002ec0 f i PatchMW2CModels.obj
 0001:00001ec0       ?_Vec_lo@?$_Hash@V?$_Umap_traits@_K_NV?$_Hash_compare@_KV?$hash@_K@std@@U?$equal_to@_K@2@@std@@V?$allocator@U?$pair@$$CB_K_N@std@@@2@$0A@@tr1@std@@@std@@IAEAAV?$_List_iterator@V?$_List_val@U?$pair@$$CB_K_N@std@@V?$allocator@U?$pair@$$CB_K_N@std@@@2@@std@@@2@I@Z 10002ec0 f i SteamBase.obj
 0001:00001ec0       ?_Vec_lo@?$_Hash@V?$_Umap_traits@V?$basic_string@DU?$char_traits@D@std@@V?$allocator@D@2@@std@@PAUVehicleDef@@V?$_Hash_compare@V?$basic_string@DU?$char_traits@D@std@@V?$allocator@D@2@@std@@V?$hash@V?$basic_string@DU?$char_traits@D@std@@V?$allocator@D@2@@std@@@2@U?$equal_to@V?$basic_string@DU?$char_traits@D@std@@V?$allocator@D@2@@std@@@2@@2@V?$allocator@U?$pair@$$CBV?$basic_string@DU?$char_traits@D@std@@V?$allocator@D@2@@std@@PAUVehicleDef@@@std@@@2@$0A@@tr1@std@@@std@@IAEAAV?$_List_iterator@V?$_List_val@U?$pair@$$CBV?$basic_string@DU?$char_traits@D@std@@V?$allocator@D@2@@std@@PAUVehicleDef@@@std@@V?$allocator@U?$pair@$$CBV?$basic_string@DU?$char_traits@D@std@@V?$allocator@D@2@@std@@PAUVehicleDef@@@std@@@2@@std@@@2@I@Z 10002ec0 f i PatchMW2LoadVehicleDef.obj
 0001:00001ec0       ?_Vec_lo@?$_Hash@V?$_Umap_traits@_KPAVCCallbackBase@@V?$_Hash_compare@_KV?$hash@_K@std@@U?$equal_to@_K@2@@std@@V?$allocator@U?$pair@$$CB_KPAVCCallbackBase@@@std@@@3@$0A@@tr1@std@@@std@@IAEAAV?$_List_iterator@V?$_List_val@U?$pair@$$CB_KPAVCCallbackBase@@@std@@V?$allocator@U?$pair@$$CB_KPAVCCallbackBase@@@std@@@2@@std@@@2@I@Z 10002ec0 f i SteamBase.obj
 0001:00001ec0       ?_Vec_lo@?$_Hash@V?$_Umap_traits@V?$basic_string@DU?$char_traits@D@std@@V?$allocator@D@2@@std@@P6AXH@ZV?$_Hash_compare@V?$basic_string@DU?$char_traits@D@std@@V?$allocator@D@2@@std@@V?$hash@V?$basic_string@DU?$char_traits@D@std@@V?$allocator@D@2@@std@@@2@U?$equal_to@V?$basic_string@DU?$char_traits@D@std@@V?$allocator@D@2@@std@@@2@@2@V?$allocator@U?$pair@$$CBV?$basic_string@DU?$char_traits@D@std@@V?$allocator@D@2@@std@@P6AXH@Z@std@@@2@$0A@@tr1@std@@@std@@IAEAAV?$_List_iterator@V?$_List_val@U?$pair@$$CBV?$basic_string@DU?$char_traits@D@std@@V?$allocator@D@2@@std@@P6AXH@Z@std@@V?$allocator@U?$pair@$$CBV?$basic_string@DU?$char_traits@D@std@@V?$allocator@D@2@@std@@P6AXH@Z@std@@@2@@std@@@2@I@Z 10002ec0 f i GameInterface.obj
 0001:00001ee0       ??R?$_Hash_compare@V?$basic_string@DU?$char_traits@D@std@@V?$allocator@D@2@@std@@V?$hash@V?$basic_string@DU?$char_traits@D@std@@V?$allocator@D@2@@std@@@2@U?$equal_to@V?$basic_string@DU?$char_traits@D@std@@V?$allocator@D@2@@std@@@2@@std@@QBEIABV?$basic_string@DU?$char_traits@D@std@@V?$allocator@D@2@@1@@Z 10002ee0 f i GameInterface.obj
 0001:00001f00       ??R?$equal_to@V?$basic_string@DU?$char_traits@D@std@@V?$allocator@D@2@@std@@@std@@QBE_NABV?$basic_string@DU?$char_traits@D@std@@V?$allocator@D@2@@1@0@Z 10002f00 f i GameInterface.obj
 0001:00001f20       ??E?$_List_const_iterator@V?$_List_val@U?$pair@$$CB_K_N@std@@V?$allocator@U?$pair@$$CB_K_N@std@@@2@@std@@@std@@QAEAAV01@XZ 10002f20 f i SteamBase.obj
 0001:00001f20       ??E?$_List_const_iterator@V?$_List_val@U?$pair@$$CB_KPAVCCallbackBase@@@std@@V?$allocator@U?$pair@$$CB_KPAVCCallbackBase@@@std@@@2@@std@@@std@@QAEAAV01@XZ 10002f20 f i SteamBase.obj
 0001:00001f20       ??E?$_List_const_iterator@V?$_List_val@U?$pair@$$CBV?$basic_string@DU?$char_traits@D@std@@V?$allocator@D@2@@std@@_N@std@@V?$allocator@U?$pair@$$CBV?$basic_string@DU?$char_traits@D@std@@V?$allocator@D@2@@std@@_N@std@@@2@@std@@@std@@QAEAAV01@XZ 10002f20 f i PatchMW2CModels.obj
 0001:00001f20       ??E?$_List_const_iterator@V?$_List_val@U?$pair@$$CBV?$basic_string@DU?$char_traits@D@std@@V?$allocator@D@2@@std@@P6AXH@Z@std@@V?$allocator@U?$pair@$$CBV?$basic_string@DU?$char_traits@D@std@@V?$allocator@D@2@@std@@P6AXH@Z@std@@@2@@std@@@std@@QAEAAV01@XZ 10002f20 f i GameInterface.obj
 0001:00001f20       ??E?$_List_const_iterator@V?$_List_val@U?$pair@$$CBV?$basic_string@DU?$char_traits@D@std@@V?$allocator@D@2@@std@@PAUVehicleDef@@@std@@V?$allocator@U?$pair@$$CBV?$basic_string@DU?$char_traits@D@std@@V?$allocator@D@2@@std@@PAUVehicleDef@@@std@@@2@@std@@@std@@QAEAAV01@XZ 10002f20 f i PatchMW2LoadVehicleDef.obj
 0001:00001f50       ??$insert@U?$pair@$$CBV?$basic_string@DU?$char_traits@D@std@@V?$allocator@D@2@@std@@P6AXH@Z@std@@@?$_Hash@V?$_Umap_traits@V?$basic_string@DU?$char_traits@D@std@@V?$allocator@D@2@@std@@P6AXH@ZV?$_Hash_compare@V?$basic_string@DU?$char_traits@D@std@@V?$allocator@D@2@@std@@V?$hash@V?$basic_string@DU?$char_traits@D@std@@V?$allocator@D@2@@std@@@2@U?$equal_to@V?$basic_string@DU?$char_traits@D@std@@V?$allocator@D@2@@std@@@2@@2@V?$allocator@U?$pair@$$CBV?$basic_string@DU?$char_traits@D@std@@V?$allocator@D@2@@std@@P6AXH@Z@std@@@2@$0A@@tr1@std@@@std@@QAE?AU?$pair@V?$_List_iterator@V?$_List_val@U?$pair@$$CBV?$basic_string@DU?$char_traits@D@std@@V?$allocator@D@2@@std@@P6AXH@Z@std@@V?$allocator@U?$pair@$$CBV?$basic_string@DU?$char_traits@D@std@@V?$allocator@D@2@@std@@P6AXH@Z@std@@@2@@std@@@std@@_N@1@$$QAU?$pair@$$CBV?$basic_string@DU?$char_traits@D@std@@V?$allocator@D@2@@std@@P6AXH@Z@1@@Z 10002f50 f i GameInterface.obj
 0001:00001fb0       ??$?8DU?$char_traits@D@std@@V?$allocator@D@1@@std@@YA_NABV?$basic_string@DU?$char_traits@D@std@@V?$allocator@D@2@@0@0@Z 10002fb0 f i GameInterface.obj
 0001:00001fd0       ?_Insert@?$_Hash@V?$_Umap_traits@V?$basic_string@DU?$char_traits@D@std@@V?$allocator@D@2@@std@@P6AXH@ZV?$_Hash_compare@V?$basic_string@DU?$char_traits@D@std@@V?$allocator@D@2@@std@@V?$hash@V?$basic_string@DU?$char_traits@D@std@@V?$allocator@D@2@@std@@@2@U?$equal_to@V?$basic_string@DU?$char_traits@D@std@@V?$allocator@D@2@@std@@@2@@2@V?$allocator@U?$pair@$$CBV?$basic_string@DU?$char_traits@D@std@@V?$allocator@D@2@@std@@P6AXH@Z@std@@@2@$0A@@tr1@std@@@std@@IAE?AU?$pair@V?$_List_iterator@V?$_List_val@U?$pair@$$CBV?$basic_string@DU?$char_traits@D@std@@V?$allocator@D@2@@std@@P6AXH@Z@std@@V?$allocator@U?$pair@$$CBV?$basic_string@DU?$char_traits@D@std@@V?$allocator@D@2@@std@@P6AXH@Z@std@@@2@@std@@@std@@_N@2@ABU?$pair@$$CBV?$basic_string@DU?$char_traits@D@std@@V?$allocator@D@2@@std@@P6AXH@Z@2@V?$_List_iterator@V?$_List_val@U?$pair@$$CBV?$basic_string@DU?$char_traits@D@std@@V?$allocator@D@2@@std@@P6AXH@Z@std@@V?$allocator@U?$pair@$$CBV?$basic_string@DU?$char_traits@D@std@@V?$allocator@D@2@@std@@P6AXH@Z@std@@@2@@std@@@2@@Z 10002fd0 f i GameInterface.obj
 0001:00002160       ?_Check_size@?$_Hash@V?$_Umap_traits@V?$basic_string@DU?$char_traits@D@std@@V?$allocator@D@2@@std@@P6AXH@ZV?$_Hash_compare@V?$basic_string@DU?$char_traits@D@std@@V?$allocator@D@2@@std@@V?$hash@V?$basic_string@DU?$char_traits@D@std@@V?$allocator@D@2@@std@@@2@U?$equal_to@V?$basic_string@DU?$char_traits@D@std@@V?$allocator@D@2@@std@@@2@@2@V?$allocator@U?$pair@$$CBV?$basic_string@DU?$char_traits@D@std@@V?$allocator@D@2@@std@@P6AXH@Z@std@@@2@$0A@@tr1@std@@@std@@IAEXXZ 10003160 f i GameInterface.obj
 0001:00002200       ?_Init@?$_Hash@V?$_Umap_traits@V?$basic_string@DU?$char_traits@D@std@@V?$allocator@D@2@@std@@P6AXH@ZV?$_Hash_compare@V?$basic_string@DU?$char_traits@D@std@@V?$allocator@D@2@@std@@V?$hash@V?$basic_string@DU?$char_traits@D@std@@V?$allocator@D@2@@std@@@2@U?$equal_to@V?$basic_string@DU?$char_traits@D@std@@V?$allocator@D@2@@std@@@2@@2@V?$allocator@U?$pair@$$CBV?$basic_string@DU?$char_traits@D@std@@V?$allocator@D@2@@std@@P6AXH@Z@std@@@2@$0A@@tr1@std@@@std@@IAEXI@Z 10003200 f i GameInterface.obj
 0001:00002250       ?assign@?$vector@V?$_List_iterator@V?$_List_val@U?$pair@$$CBV?$basic_string@DU?$char_traits@D@std@@V?$allocator@D@2@@std@@P6AXH@Z@std@@V?$allocator@U?$pair@$$CBV?$basic_string@DU?$char_traits@D@std@@V?$allocator@D@2@@std@@P6AXH@Z@std@@@2@@std@@@std@@V?$allocator@V?$_List_iterator@V?$_List_val@U?$pair@$$CBV?$basic_string@DU?$char_traits@D@std@@V?$allocator@D@2@@std@@P6AXH@Z@std@@V?$allocator@U?$pair@$$CBV?$basic_string@DU?$char_traits@D@std@@V?$allocator@D@2@@std@@P6AXH@Z@std@@@2@@std@@@std@@@2@@std@@QAEXIABV?$_List_iterator@V?$_List_val@U?$pair@$$CBV?$basic_string@DU?$char_traits@D@std@@V?$allocator@D@2@@std@@P6AXH@Z@std@@V?$allocator@U?$pair@$$CBV?$basic_string@DU?$char_traits@D@std@@V?$allocator@D@2@@std@@P6AXH@Z@std@@@2@@std@@@2@@Z 10003250 f i GameInterface.obj
 0001:00002270       ?_Assign_n@?$vector@V?$_List_iterator@V?$_List_val@U?$pair@$$CBV?$basic_string@DU?$char_traits@D@std@@V?$allocator@D@2@@std@@P6AXH@Z@std@@V?$allocator@U?$pair@$$CBV?$basic_string@DU?$char_traits@D@std@@V?$allocator@D@2@@std@@P6AXH@Z@std@@@2@@std@@@std@@V?$allocator@V?$_List_iterator@V?$_List_val@U?$pair@$$CBV?$basic_string@DU?$char_traits@D@std@@V?$allocator@D@2@@std@@P6AXH@Z@std@@V?$allocator@U?$pair@$$CBV?$basic_string@DU?$char_traits@D@std@@V?$allocator@D@2@@std@@P6AXH@Z@std@@@2@@std@@@std@@@2@@std@@IAEXIABV?$_List_iterator@V?$_List_val@U?$pair@$$CBV?$basic_string@DU?$char_traits@D@std@@V?$allocator@D@2@@std@@P6AXH@Z@std@@V?$allocator@U?$pair@$$CBV?$basic_string@DU?$char_traits@D@std@@V?$allocator@D@2@@std@@P6AXH@Z@std@@@2@@std@@@2@@Z 10003270 f i GameInterface.obj
 0001:000022f0       ?begin@?$vector@UUIClickHandler_t@@V?$allocator@UUIClickHandler_t@@@std@@@std@@QAE?AV?$_Vector_iterator@V?$_Vector_val@UUIClickHandler_t@@V?$allocator@UUIClickHandler_t@@@std@@@std@@@2@XZ 100032f0 f i PatchMW2UIScripts.obj
 0001:000022f0       ?begin@?$vector@PAVCCallbackBase@@V?$allocator@PAVCCallbackBase@@@std@@@std@@QAE?AV?$_Vector_iterator@V?$_Vector_val@PAVCCallbackBase@@V?$allocator@PAVCCallbackBase@@@std@@@std@@@2@XZ 100032f0 f i SteamBase.obj
 0001:000022f0       ?begin@?$vector@Ugscr_file_t@@V?$allocator@Ugscr_file_t@@@std@@@std@@QAE?AV?$_Vector_iterator@V?$_Vector_val@Ugscr_file_t@@V?$allocator@Ugscr_file_t@@@std@@@std@@@2@XZ 100032f0 f i Script.obj
 0001:000022f0       ?begin@?$vector@V?$_List_iterator@V?$_List_val@U?$pair@$$CBV?$basic_string@DU?$char_traits@D@std@@V?$allocator@D@2@@std@@P6AXH@Z@std@@V?$allocator@U?$pair@$$CBV?$basic_string@DU?$char_traits@D@std@@V?$allocator@D@2@@std@@P6AXH@Z@std@@@2@@std@@@std@@V?$allocator@V?$_List_iterator@V?$_List_val@U?$pair@$$CBV?$basic_string@DU?$char_traits@D@std@@V?$allocator@D@2@@std@@P6AXH@Z@std@@V?$allocator@U?$pair@$$CBV?$basic_string@DU?$char_traits@D@std@@V?$allocator@D@2@@std@@P6AXH@Z@std@@@2@@std@@@std@@@2@@std@@QAE?AV?$_Vector_iterator@V?$_Vector_val@V?$_List_iterator@V?$_List_val@U?$pair@$$CBV?$basic_string@DU?$char_traits@D@std@@V?$allocator@D@2@@std@@P6AXH@Z@std@@V?$allocator@U?$pair@$$CBV?$basic_string@DU?$char_traits@D@std@@V?$allocator@D@2@@std@@P6AXH@Z@std@@@2@@std@@@std@@V?$allocator@V?$_List_iterator@V?$_List_val@U?$pair@$$CBV?$basic_string@DU?$char_traits@D@std@@V?$allocator@D@2@@std@@P6AXH@Z@std@@V?$allocator@U?$pair@$$CBV?$basic_string@DU?$char_traits@D@std@@V?$allocator@D@2@@std@@P6AXH@Z@std@@@2@@std@@@std@@@2@@std@@@2@XZ 100032f0 f i GameInterface.obj
 0001:000022f0       ?begin@?$vector@Unetadr_t@@V?$allocator@Unetadr_t@@@std@@@std@@QAE?AV?$_Vector_iterator@V?$_Vector_val@Unetadr_t@@V?$allocator@Unetadr_t@@@std@@@std@@@2@XZ 100032f0 f i PatchMW2Redirect.obj
 0001:000022f0       ?begin@?$vector@UUIScript_t@@V?$allocator@UUIScript_t@@@std@@@std@@QAE?AV?$_Vector_iterator@V?$_Vector_val@UUIScript_t@@V?$allocator@UUIScript_t@@@std@@@std@@@2@XZ 100032f0 f i PatchMW2UIScripts.obj
 0001:000022f0       ?begin@?$vector@UUIFeeder_t@@V?$allocator@UUIFeeder_t@@@std@@@std@@QAE?AV?$_Vector_iterator@V?$_Vector_val@UUIFeeder_t@@V?$allocator@UUIFeeder_t@@@std@@@std@@@2@XZ 100032f0 f i PatchMW2UIScripts.obj
 0001:000022f0       ?begin@?$vector@HV?$allocator@H@std@@@std@@QAE?AV?$_Vector_iterator@V?$_Vector_val@HV?$allocator@H@std@@@std@@@2@XZ 100032f0 f i Script.obj
 0001:000022f0       ?begin@?$vector@PAUmenuDef_t@@V?$allocator@PAUmenuDef_t@@@std@@@std@@QAE?AV?$_Vector_iterator@V?$_Vector_val@PAUmenuDef_t@@V?$allocator@PAUmenuDef_t@@@std@@@std@@@2@XZ 100032f0 f i PatchMW2UILoading.obj
 0001:000022f0       ?begin@?$vector@V?$_List_iterator@V?$_List_val@U?$pair@$$CB_K_N@std@@V?$allocator@U?$pair@$$CB_K_N@std@@@2@@std@@@std@@V?$allocator@V?$_List_iterator@V?$_List_val@U?$pair@$$CB_K_N@std@@V?$allocator@U?$pair@$$CB_K_N@std@@@2@@std@@@std@@@2@@std@@QAE?AV?$_Vector_iterator@V?$_Vector_val@V?$_List_iterator@V?$_List_val@U?$pair@$$CB_K_N@std@@V?$allocator@U?$pair@$$CB_K_N@std@@@2@@std@@@std@@V?$allocator@V?$_List_iterator@V?$_List_val@U?$pair@$$CB_K_N@std@@V?$allocator@U?$pair@$$CB_K_N@std@@@2@@std@@@std@@@2@@std@@@2@XZ 100032f0 f i SteamBase.obj
 0001:000022f0       ?begin@?$vector@PAUMaterial@@V?$allocator@PAUMaterial@@@std@@@std@@QAE?AV?$_Vector_iterator@V?$_Vector_val@PAUMaterial@@V?$allocator@PAUMaterial@@@std@@@std@@@2@XZ 100032f0 f i PatchMW2WeaponCamos.obj
 0001:000022f0       ?begin@?$vector@UServerStorageEntry@@V?$allocator@UServerStorageEntry@@@std@@@std@@QAE?AV?$_Vector_iterator@V?$_Vector_val@UServerStorageEntry@@V?$allocator@UServerStorageEntry@@@std@@@std@@@2@XZ 100032f0 f i ServerStorage.obj
 0001:000022f0       ?begin@?$vector@V?$_List_iterator@V?$_List_val@U?$pair@$$CB_KPAVCCallbackBase@@@std@@V?$allocator@U?$pair@$$CB_KPAVCCallbackBase@@@std@@@2@@std@@@std@@V?$allocator@V?$_List_iterator@V?$_List_val@U?$pair@$$CB_KPAVCCallbackBase@@@std@@V?$allocator@U?$pair@$$CB_KPAVCCallbackBase@@@std@@@2@@std@@@std@@@2@@std@@QAE?AV?$_Vector_iterator@V?$_Vector_val@V?$_List_iterator@V?$_List_val@U?$pair@$$CB_KPAVCCallbackBase@@@std@@V?$allocator@U?$pair@$$CB_KPAVCCallbackBase@@@std@@@2@@std@@@std@@V?$allocator@V?$_List_iterator@V?$_List_val@U?$pair@$$CB_KPAVCCallbackBase@@@std@@V?$allocator@U?$pair@$$CB_KPAVCCallbackBase@@@std@@@2@@std@@@std@@@2@@std@@@2@XZ 100032f0 f i SteamBase.obj
 0001:000022f0       ?begin@?$vector@V?$_List_iterator@V?$_List_val@U?$pair@$$CBV?$basic_string@DU?$char_traits@D@std@@V?$allocator@D@2@@std@@_N@std@@V?$allocator@U?$pair@$$CBV?$basic_string@DU?$char_traits@D@std@@V?$allocator@D@2@@std@@_N@std@@@2@@std@@@std@@V?$allocator@V?$_List_iterator@V?$_List_val@U?$pair@$$CBV?$basic_string@DU?$char_traits@D@std@@V?$allocator@D@2@@std@@_N@std@@V?$allocator@U?$pair@$$CBV?$basic_string@DU?$char_traits@D@std@@V?$allocator@D@2@@std@@_N@std@@@2@@std@@@std@@@2@@std@@QAE?AV?$_Vector_iterator@V?$_Vector_val@V?$_List_iterator@V?$_List_val@U?$pair@$$CBV?$basic_string@DU?$char_traits@D@std@@V?$allocator@D@2@@std@@_N@std@@V?$allocator@U?$pair@$$CBV?$basic_string@DU?$char_traits@D@std@@V?$allocator@D@2@@std@@_N@std@@@2@@std@@@std@@V?$allocator@V?$_List_iterator@V?$_List_val@U?$pair@$$CBV?$basic_string@DU?$char_traits@D@std@@V?$allocator@D@2@@std@@_N@std@@V?$allocator@U?$pair@$$CBV?$basic_string@DU?$char_traits@D@std@@V?$allocator@D@2@@std@@_N@std@@@2@@std@@@std@@@2@@std@@@2@XZ 100032f0 f i PatchMW2Experiments.obj
 0001:000022f0       ?begin@?$vector@PAUchallengeState_t@@V?$allocator@PAUchallengeState_t@@@std@@@std@@QAE?AV?$_Vector_iterator@V?$_Vector_val@PAUchallengeState_t@@V?$allocator@PAUchallengeState_t@@@std@@@std@@@2@XZ 100032f0 f i PatchMW2PreAuthenticate.obj
 0001:000022f0       ?begin@?$vector@V?$_List_iterator@V?$_List_val@U?$pair@$$CBK_N@std@@V?$allocator@U?$pair@$$CBK_N@std@@@2@@std@@@std@@V?$allocator@V?$_List_iterator@V?$_List_val@U?$pair@$$CBK_N@std@@V?$allocator@U?$pair@$$CBK_N@std@@@2@@std@@@std@@@2@@std@@QAE?AV?$_Vector_iterator@V?$_Vector_val@V?$_List_iterator@V?$_List_val@U?$pair@$$CBK_N@std@@V?$allocator@U?$pair@$$CBK_N@std@@@2@@std@@@std@@V?$allocator@V?$_List_iterator@V?$_List_val@U?$pair@$$CBK_N@std@@V?$allocator@U?$pair@$$CBK_N@std@@@2@@std@@@std@@@2@@std@@@2@XZ 100032f0 f i PatchMW2AssetRestrict.obj
 0001:000022f0       ?begin@?$vector@V?$_List_iterator@V?$_List_val@U?$pair@$$CBV?$basic_string@DU?$char_traits@D@std@@V?$allocator@D@2@@std@@PAUVehicleDef@@@std@@V?$allocator@U?$pair@$$CBV?$basic_string@DU?$char_traits@D@std@@V?$allocator@D@2@@std@@PAUVehicleDef@@@std@@@2@@std@@@std@@V?$allocator@V?$_List_iterator@V?$_List_val@U?$pair@$$CBV?$basic_string@DU?$char_traits@D@std@@V?$allocator@D@2@@std@@PAUVehicleDef@@@std@@V?$allocator@U?$pair@$$CBV?$basic_string@DU?$char_traits@D@std@@V?$allocator@D@2@@std@@PAUVehicleDef@@@std@@@2@@std@@@std@@@2@@std@@QAE?AV?$_Vector_iterator@V?$_Vector_val@V?$_List_iterator@V?$_List_val@U?$pair@$$CBV?$basic_string@DU?$char_traits@D@std@@V?$allocator@D@2@@std@@PAUVehicleDef@@@std@@V?$allocator@U?$pair@$$CBV?$basic_string@DU?$char_traits@D@std@@V?$allocator@D@2@@std@@PAUVehicleDef@@@std@@@2@@std@@@std@@V?$allocator@V?$_List_iterator@V?$_List_val@U?$pair@$$CBV?$basic_string@DU?$char_traits@D@std@@V?$allocator@D@2@@std@@PAUVehicleDef@@@std@@V?$allocator@U?$pair@$$CBV?$basic_string@DU?$char_traits@D@std@@V?$allocator@D@2@@std@@PAUVehicleDef@@@std@@@2@@std@@@std@@@2@@std@@@2@XZ 100032f0 f i PatchMW2LoadVehicleDef.obj
 0001:000022f0       ?begin@?$vector@V?$basic_string@DU?$char_traits@D@std@@V?$allocator@D@2@@std@@V?$allocator@V?$basic_string@DU?$char_traits@D@std@@V?$allocator@D@2@@std@@@2@@std@@QAE?AV?$_Vector_iterator@V?$_Vector_val@V?$basic_string@DU?$char_traits@D@std@@V?$allocator@D@2@@std@@V?$allocator@V?$basic_string@DU?$char_traits@D@std@@V?$allocator@D@2@@std@@@2@@std@@@2@XZ 100032f0 f i PatchMW2Packet.obj
 0001:000022f0       ?begin@?$vector@USteamAPIResult_s@@V?$allocator@USteamAPIResult_s@@@std@@@std@@QAE?AV?$_Vector_iterator@V?$_Vector_val@USteamAPIResult_s@@V?$allocator@USteamAPIResult_s@@@std@@@std@@@2@XZ 100032f0 f i SteamBase.obj
 0001:00002320       ?insert@?$vector@V?$_List_iterator@V?$_List_val@U?$pair@$$CBV?$basic_string@DU?$char_traits@D@std@@V?$allocator@D@2@@std@@P6AXH@Z@std@@V?$allocator@U?$pair@$$CBV?$basic_string@DU?$char_traits@D@std@@V?$allocator@D@2@@std@@P6AXH@Z@std@@@2@@std@@@std@@V?$allocator@V?$_List_iterator@V?$_List_val@U?$pair@$$CBV?$basic_string@DU?$char_traits@D@std@@V?$allocator@D@2@@std@@P6AXH@Z@std@@V?$allocator@U?$pair@$$CBV?$basic_string@DU?$char_traits@D@std@@V?$allocator@D@2@@std@@P6AXH@Z@std@@@2@@std@@@std@@@2@@std@@QAEXV?$_Vector_const_iterator@V?$_Vector_val@V?$_List_iterator@V?$_List_val@U?$pair@$$CBV?$basic_string@DU?$char_traits@D@std@@V?$allocator@D@2@@std@@P6AXH@Z@std@@V?$allocator@U?$pair@$$CBV?$basic_string@DU?$char_traits@D@std@@V?$allocator@D@2@@std@@P6AXH@Z@std@@@2@@std@@@std@@V?$allocator@V?$_List_iterator@V?$_List_val@U?$pair@$$CBV?$basic_string@DU?$char_traits@D@std@@V?$allocator@D@2@@std@@P6AXH@Z@std@@V?$allocator@U?$pair@$$CBV?$basic_string@DU?$char_traits@D@std@@V?$allocator@D@2@@std@@P6AXH@Z@std@@@2@@std@@@std@@@2@@std@@@2@IABV?$_List_iterator@V?$_List_val@U?$pair@$$CBV?$basic_string@DU?$char_traits@D@std@@V?$allocator@D@2@@std@@P6AXH@Z@std@@V?$allocator@U?$pair@$$CBV?$basic_string@DU?$char_traits@D@std@@V?$allocator@D@2@@std@@P6AXH@Z@std@@@2@@std@@@2@@Z 10003320 f i GameInterface.obj
 0001:00002350       ?_Destroy@?$vector@V?$_List_iterator@V?$_List_val@U?$pair@$$CBV?$basic_string@DU?$char_traits@D@std@@V?$allocator@D@2@@std@@PAUVehicleDef@@@std@@V?$allocator@U?$pair@$$CBV?$basic_string@DU?$char_traits@D@std@@V?$allocator@D@2@@std@@PAUVehicleDef@@@std@@@2@@std@@@std@@V?$allocator@V?$_List_iterator@V?$_List_val@U?$pair@$$CBV?$basic_string@DU?$char_traits@D@std@@V?$allocator@D@2@@std@@PAUVehicleDef@@@std@@V?$allocator@U?$pair@$$CBV?$basic_string@DU?$char_traits@D@std@@V?$allocator@D@2@@std@@PAUVehicleDef@@@std@@@2@@std@@@std@@@2@@std@@IAEXPAV?$_List_iterator@V?$_List_val@U?$pair@$$CBV?$basic_string@DU?$char_traits@D@std@@V?$allocator@D@2@@std@@PAUVehicleDef@@@std@@V?$allocator@U?$pair@$$CBV?$basic_string@DU?$char_traits@D@std@@V?$allocator@D@2@@std@@PAUVehicleDef@@@std@@@2@@std@@@2@0@Z 10003350 f i PatchMW2LoadVehicleDef.obj
 0001:00002350       ?_Destroy@?$vector@V?$_List_iterator@V?$_List_val@U?$pair@$$CBK_N@std@@V?$allocator@U?$pair@$$CBK_N@std@@@2@@std@@@std@@V?$allocator@V?$_List_iterator@V?$_List_val@U?$pair@$$CBK_N@std@@V?$allocator@U?$pair@$$CBK_N@std@@@2@@std@@@std@@@2@@std@@IAEXPAV?$_List_iterator@V?$_List_val@U?$pair@$$CBK_N@std@@V?$allocator@U?$pair@$$CBK_N@std@@@2@@std@@@2@0@Z 10003350 f i PatchMW2AssetRestrict.obj
 0001:00002350       ?_Destroy@?$vector@V?$_List_iterator@V?$_List_val@U?$pair@$$CBV?$basic_string@DU?$char_traits@D@std@@V?$allocator@D@2@@std@@_N@std@@V?$allocator@U?$pair@$$CBV?$basic_string@DU?$char_traits@D@std@@V?$allocator@D@2@@std@@_N@std@@@2@@std@@@std@@V?$allocator@V?$_List_iterator@V?$_List_val@U?$pair@$$CBV?$basic_string@DU?$char_traits@D@std@@V?$allocator@D@2@@std@@_N@std@@V?$allocator@U?$pair@$$CBV?$basic_string@DU?$char_traits@D@std@@V?$allocator@D@2@@std@@_N@std@@@2@@std@@@std@@@2@@std@@IAEXPAV?$_List_iterator@V?$_List_val@U?$pair@$$CBV?$basic_string@DU?$char_traits@D@std@@V?$allocator@D@2@@std@@_N@std@@V?$allocator@U?$pair@$$CBV?$basic_string@DU?$char_traits@D@std@@V?$allocator@D@2@@std@@_N@std@@@2@@std@@@2@0@Z 10003350 f i PatchMW2Experiments.obj
 0001:00002350       ?_Destroy@?$vector@V?$_List_iterator@V?$_List_val@U?$pair@$$CB_KPAVCCallbackBase@@@std@@V?$allocator@U?$pair@$$CB_KPAVCCallbackBase@@@std@@@2@@std@@@std@@V?$allocator@V?$_List_iterator@V?$_List_val@U?$pair@$$CB_KPAVCCallbackBase@@@std@@V?$allocator@U?$pair@$$CB_KPAVCCallbackBase@@@std@@@2@@std@@@std@@@2@@std@@IAEXPAV?$_List_iterator@V?$_List_val@U?$pair@$$CB_KPAVCCallbackBase@@@std@@V?$allocator@U?$pair@$$CB_KPAVCCallbackBase@@@std@@@2@@std@@@2@0@Z 10003350 f i SteamBase.obj
 0001:00002350       ?_Destroy@?$vector@V?$_List_iterator@V?$_List_val@U?$pair@$$CBV?$basic_string@DU?$char_traits@D@std@@V?$allocator@D@2@@std@@P6AXH@Z@std@@V?$allocator@U?$pair@$$CBV?$basic_string@DU?$char_traits@D@std@@V?$allocator@D@2@@std@@P6AXH@Z@std@@@2@@std@@@std@@V?$allocator@V?$_List_iterator@V?$_List_val@U?$pair@$$CBV?$basic_string@DU?$char_traits@D@std@@V?$allocator@D@2@@std@@P6AXH@Z@std@@V?$allocator@U?$pair@$$CBV?$basic_string@DU?$char_traits@D@std@@V?$allocator@D@2@@std@@P6AXH@Z@std@@@2@@std@@@std@@@2@@std@@IAEXPAV?$_List_iterator@V?$_List_val@U?$pair@$$CBV?$basic_string@DU?$char_traits@D@std@@V?$allocator@D@2@@std@@P6AXH@Z@std@@V?$allocator@U?$pair@$$CBV?$basic_string@DU?$char_traits@D@std@@V?$allocator@D@2@@std@@P6AXH@Z@std@@@2@@std@@@2@0@Z 10003350 f i GameInterface.obj
 0001:00002350       ?_Destroy@?$vector@V?$_List_iterator@V?$_List_val@U?$pair@$$CB_K_N@std@@V?$allocator@U?$pair@$$CB_K_N@std@@@2@@std@@@std@@V?$allocator@V?$_List_iterator@V?$_List_val@U?$pair@$$CB_K_N@std@@V?$allocator@U?$pair@$$CB_K_N@std@@@2@@std@@@std@@@2@@std@@IAEXPAV?$_List_iterator@V?$_List_val@U?$pair@$$CB_K_N@std@@V?$allocator@U?$pair@$$CB_K_N@std@@@2@@std@@@2@0@Z 10003350 f i SteamBase.obj
 0001:00002380       ?_Insert_n@?$vector@V?$_List_iterator@V?$_List_val@U?$pair@$$CBV?$basic_string@DU?$char_traits@D@std@@V?$allocator@D@2@@std@@P6AXH@Z@std@@V?$allocator@U?$pair@$$CBV?$basic_string@DU?$char_traits@D@std@@V?$allocator@D@2@@std@@P6AXH@Z@std@@@2@@std@@@std@@V?$allocator@V?$_List_iterator@V?$_List_val@U?$pair@$$CBV?$basic_string@DU?$char_traits@D@std@@V?$allocator@D@2@@std@@P6AXH@Z@std@@V?$allocator@U?$pair@$$CBV?$basic_string@DU?$char_traits@D@std@@V?$allocator@D@2@@std@@P6AXH@Z@std@@@2@@std@@@std@@@2@@std@@IAEXV?$_Vector_const_iterator@V?$_Vector_val@V?$_List_iterator@V?$_List_val@U?$pair@$$CBV?$basic_string@DU?$char_traits@D@std@@V?$allocator@D@2@@std@@P6AXH@Z@std@@V?$allocator@U?$pair@$$CBV?$basic_string@DU?$char_traits@D@std@@V?$allocator@D@2@@std@@P6AXH@Z@std@@@2@@std@@@std@@V?$allocator@V?$_List_iterator@V?$_List_val@U?$pair@$$CBV?$basic_string@DU?$char_traits@D@std@@V?$allocator@D@2@@std@@P6AXH@Z@std@@V?$allocator@U?$pair@$$CBV?$basic_string@DU?$char_traits@D@std@@V?$allocator@D@2@@std@@P6AXH@Z@std@@@2@@std@@@std@@@2@@std@@@2@IABV?$_List_iterator@V?$_List_val@U?$pair@$$CBV?$basic_string@DU?$char_traits@D@std@@V?$allocator@D@2@@std@@P6AXH@Z@std@@V?$allocator@U?$pair@$$CBV?$basic_string@DU?$char_traits@D@std@@V?$allocator@D@2@@std@@P6AXH@Z@std@@@2@@std@@@2@@Z 10003380 f i GameInterface.obj
 0001:00002730       ?size@?$vector@V?$_List_iterator@V?$_List_val@U?$pair@$$CBV?$basic_string@DU?$char_traits@D@std@@V?$allocator@D@2@@std@@_N@std@@V?$allocator@U?$pair@$$CBV?$basic_string@DU?$char_traits@D@std@@V?$allocator@D@2@@std@@_N@std@@@2@@std@@@std@@V?$allocator@V?$_List_iterator@V?$_List_val@U?$pair@$$CBV?$basic_string@DU?$char_traits@D@std@@V?$allocator@D@2@@std@@_N@std@@V?$allocator@U?$pair@$$CBV?$basic_string@DU?$char_traits@D@std@@V?$allocator@D@2@@std@@_N@std@@@2@@std@@@std@@@2@@std@@QBEIXZ 10003730 f i PatchMW2Experiments.obj
 0001:00002730       ?size@?$vector@HV?$allocator@H@std@@@std@@QBEIXZ 10003730 f i Script.obj
 0001:00002730       ?size@?$vector@PAVCCallbackBase@@V?$allocator@PAVCCallbackBase@@@std@@@std@@QBEIXZ 10003730 f i SteamBase.obj
 0001:00002730       ?size@?$vector@V?$_List_iterator@V?$_List_val@U?$pair@$$CB_KPAVCCallbackBase@@@std@@V?$allocator@U?$pair@$$CB_KPAVCCallbackBase@@@std@@@2@@std@@@std@@V?$allocator@V?$_List_iterator@V?$_List_val@U?$pair@$$CB_KPAVCCallbackBase@@@std@@V?$allocator@U?$pair@$$CB_KPAVCCallbackBase@@@std@@@2@@std@@@std@@@2@@std@@QBEIXZ 10003730 f i SteamBase.obj
 0001:00002730       ?size@?$vector@V?$_List_iterator@V?$_List_val@U?$pair@$$CBV?$basic_string@DU?$char_traits@D@std@@V?$allocator@D@2@@std@@PAUVehicleDef@@@std@@V?$allocator@U?$pair@$$CBV?$basic_string@DU?$char_traits@D@std@@V?$allocator@D@2@@std@@PAUVehicleDef@@@std@@@2@@std@@@std@@V?$allocator@V?$_List_iterator@V?$_List_val@U?$pair@$$CBV?$basic_string@DU?$char_traits@D@std@@V?$allocator@D@2@@std@@PAUVehicleDef@@@std@@V?$allocator@U?$pair@$$CBV?$basic_string@DU?$char_traits@D@std@@V?$allocator@D@2@@std@@PAUVehicleDef@@@std@@@2@@std@@@std@@@2@@std@@QBEIXZ 10003730 f i PatchMW2LoadVehicleDef.obj
 0001:00002730       ?size@?$vector@PAUmenuDef_t@@V?$allocator@PAUmenuDef_t@@@std@@@std@@QBEIXZ 10003730 f i PatchMW2UILoading.obj
 0001:00002730       ?size@?$vector@V?$_List_iterator@V?$_List_val@U?$pair@$$CBV?$basic_string@DU?$char_traits@D@std@@V?$allocator@D@2@@std@@P6AXH@Z@std@@V?$allocator@U?$pair@$$CBV?$basic_string@DU?$char_traits@D@std@@V?$allocator@D@2@@std@@P6AXH@Z@std@@@2@@std@@@std@@V?$allocator@V?$_List_iterator@V?$_List_val@U?$pair@$$CBV?$basic_string@DU?$char_traits@D@std@@V?$allocator@D@2@@std@@P6AXH@Z@std@@V?$allocator@U?$pair@$$CBV?$basic_string@DU?$char_traits@D@std@@V?$allocator@D@2@@std@@P6AXH@Z@std@@@2@@std@@@std@@@2@@std@@QBEIXZ 10003730 f i GameInterface.obj
 0001:00002730       ?size@?$vector@PAUMaterial@@V?$allocator@PAUMaterial@@@std@@@std@@QBEIXZ 10003730 f i PatchMW2WeaponCamos.obj
 0001:00002730       ?size@?$vector@PAUchallengeState_t@@V?$allocator@PAUchallengeState_t@@@std@@@std@@QBEIXZ 10003730 f i PatchMW2PreAuthenticate.obj
 0001:00002730       ?size@?$vector@V?$_List_iterator@V?$_List_val@U?$pair@$$CB_K_N@std@@V?$allocator@U?$pair@$$CB_K_N@std@@@2@@std@@@std@@V?$allocator@V?$_List_iterator@V?$_List_val@U?$pair@$$CB_K_N@std@@V?$allocator@U?$pair@$$CB_K_N@std@@@2@@std@@@std@@@2@@std@@QBEIXZ 10003730 f i SteamBase.obj
 0001:00002730       ?size@?$vector@V?$_List_iterator@V?$_List_val@U?$pair@$$CBK_N@std@@V?$allocator@U?$pair@$$CBK_N@std@@@2@@std@@@std@@V?$allocator@V?$_List_iterator@V?$_List_val@U?$pair@$$CBK_N@std@@V?$allocator@U?$pair@$$CBK_N@std@@@2@@std@@@std@@@2@@std@@QBEIXZ 10003730 f i PatchMW2AssetRestrict.obj
 0001:00002750       ?_Ufill@?$vector@V?$_List_iterator@V?$_List_val@U?$pair@$$CBV?$basic_string@DU?$char_traits@D@std@@V?$allocator@D@2@@std@@P6AXH@Z@std@@V?$allocator@U?$pair@$$CBV?$basic_string@DU?$char_traits@D@std@@V?$allocator@D@2@@std@@P6AXH@Z@std@@@2@@std@@@std@@V?$allocator@V?$_List_iterator@V?$_List_val@U?$pair@$$CBV?$basic_string@DU?$char_traits@D@std@@V?$allocator@D@2@@std@@P6AXH@Z@std@@V?$allocator@U?$pair@$$CBV?$basic_string@DU?$char_traits@D@std@@V?$allocator@D@2@@std@@P6AXH@Z@std@@@2@@std@@@std@@@2@@std@@IAEPAV?$_List_iterator@V?$_List_val@U?$pair@$$CBV?$basic_string@DU?$char_traits@D@std@@V?$allocator@D@2@@std@@P6AXH@Z@std@@V?$allocator@U?$pair@$$CBV?$basic_string@DU?$char_traits@D@std@@V?$allocator@D@2@@std@@P6AXH@Z@std@@@2@@std@@@2@PAV32@IPBV32@@Z 10003750 f i GameInterface.obj
 0001:00002790       ??$_Destroy_range@V?$allocator@V?$_List_iterator@V?$_List_val@U?$pair@$$CBV?$basic_string@DU?$char_traits@D@std@@V?$allocator@D@2@@std@@_N@std@@V?$allocator@U?$pair@$$CBV?$basic_string@DU?$char_traits@D@std@@V?$allocator@D@2@@std@@_N@std@@@2@@std@@@std@@@std@@@std@@YAXPAV?$_List_iterator@V?$_List_val@U?$pair@$$CBV?$basic_string@DU?$char_traits@D@std@@V?$allocator@D@2@@std@@_N@std@@V?$allocator@U?$pair@$$CBV?$basic_string@DU?$char_traits@D@std@@V?$allocator@D@2@@std@@_N@std@@@2@@std@@@0@0AAV?$allocator@V?$_List_iterator@V?$_List_val@U?$pair@$$CBV?$basic_string@DU?$char_traits@D@std@@V?$allocator@D@2@@std@@_N@std@@V?$allocator@U?$pair@$$CBV?$basic_string@DU?$char_traits@D@std@@V?$allocator@D@2@@std@@_N@std@@@2@@std@@@std@@@0@@Z 10003790 f i PatchMW2Experiments.obj
 0001:00002790       ??$_Destroy_range@V?$allocator@V?$_List_iterator@V?$_List_val@U?$pair@$$CB_KPAVCCallbackBase@@@std@@V?$allocator@U?$pair@$$CB_KPAVCCallbackBase@@@std@@@2@@std@@@std@@@std@@@std@@YAXPAV?$_List_iterator@V?$_List_val@U?$pair@$$CB_KPAVCCallbackBase@@@std@@V?$allocator@U?$pair@$$CB_KPAVCCallbackBase@@@std@@@2@@std@@@0@0AAV?$allocator@V?$_List_iterator@V?$_List_val@U?$pair@$$CB_KPAVCCallbackBase@@@std@@V?$allocator@U?$pair@$$CB_KPAVCCallbackBase@@@std@@@2@@std@@@std@@@0@@Z 10003790 f i SteamBase.obj
 0001:00002790       ??$_Destroy_range@V?$allocator@V?$_List_iterator@V?$_List_val@U?$pair@$$CBV?$basic_string@DU?$char_traits@D@std@@V?$allocator@D@2@@std@@PAUVehicleDef@@@std@@V?$allocator@U?$pair@$$CBV?$basic_string@DU?$char_traits@D@std@@V?$allocator@D@2@@std@@PAUVehicleDef@@@std@@@2@@std@@@std@@@std@@@std@@YAXPAV?$_List_iterator@V?$_List_val@U?$pair@$$CBV?$basic_string@DU?$char_traits@D@std@@V?$allocator@D@2@@std@@PAUVehicleDef@@@std@@V?$allocator@U?$pair@$$CBV?$basic_string@DU?$char_traits@D@std@@V?$allocator@D@2@@std@@PAUVehicleDef@@@std@@@2@@std@@@0@0AAV?$allocator@V?$_List_iterator@V?$_List_val@U?$pair@$$CBV?$basic_string@DU?$char_traits@D@std@@V?$allocator@D@2@@std@@PAUVehicleDef@@@std@@V?$allocator@U?$pair@$$CBV?$basic_string@DU?$char_traits@D@std@@V?$allocator@D@2@@std@@PAUVehicleDef@@@std@@@2@@std@@@std@@@0@@Z 10003790 f i PatchMW2LoadVehicleDef.obj
 0001:00002790       ??$_Destroy_range@V?$allocator@V?$_List_iterator@V?$_List_val@U?$pair@$$CBK_N@std@@V?$allocator@U?$pair@$$CBK_N@std@@@2@@std@@@std@@@std@@@std@@YAXPAV?$_List_iterator@V?$_List_val@U?$pair@$$CBK_N@std@@V?$allocator@U?$pair@$$CBK_N@std@@@2@@std@@@0@0AAV?$allocator@V?$_List_iterator@V?$_List_val@U?$pair@$$CBK_N@std@@V?$allocator@U?$pair@$$CBK_N@std@@@2@@std@@@std@@@0@@Z 10003790 f i PatchMW2AssetRestrict.obj
 0001:00002790       ??$_Destroy_range@V?$allocator@V?$_List_iterator@V?$_List_val@U?$pair@$$CB_K_N@std@@V?$allocator@U?$pair@$$CB_K_N@std@@@2@@std@@@std@@@std@@@std@@YAXPAV?$_List_iterator@V?$_List_val@U?$pair@$$CB_K_N@std@@V?$allocator@U?$pair@$$CB_K_N@std@@@2@@std@@@0@0AAV?$allocator@V?$_List_iterator@V?$_List_val@U?$pair@$$CB_K_N@std@@V?$allocator@U?$pair@$$CB_K_N@std@@@2@@std@@@std@@@0@@Z 10003790 f i SteamBase.obj
 0001:00002790       ??$_Destroy_range@V?$allocator@V?$_List_iterator@V?$_List_val@U?$pair@$$CBV?$basic_string@DU?$char_traits@D@std@@V?$allocator@D@2@@std@@P6AXH@Z@std@@V?$allocator@U?$pair@$$CBV?$basic_string@DU?$char_traits@D@std@@V?$allocator@D@2@@std@@P6AXH@Z@std@@@2@@std@@@std@@@std@@@std@@YAXPAV?$_List_iterator@V?$_List_val@U?$pair@$$CBV?$basic_string@DU?$char_traits@D@std@@V?$allocator@D@2@@std@@P6AXH@Z@std@@V?$allocator@U?$pair@$$CBV?$basic_string@DU?$char_traits@D@std@@V?$allocator@D@2@@std@@P6AXH@Z@std@@@2@@std@@@0@0AAV?$allocator@V?$_List_iterator@V?$_List_val@U?$pair@$$CBV?$basic_string@DU?$char_traits@D@std@@V?$allocator@D@2@@std@@P6AXH@Z@std@@V?$allocator@U?$pair@$$CBV?$basic_string@DU?$char_traits@D@std@@V?$allocator@D@2@@std@@P6AXH@Z@std@@@2@@std@@@std@@@0@@Z 10003790 f i GameInterface.obj
 0001:000027d0       ??$_Umove@PAV?$_List_iterator@V?$_List_val@U?$pair@$$CBV?$basic_string@DU?$char_traits@D@std@@V?$allocator@D@2@@std@@P6AXH@Z@std@@V?$allocator@U?$pair@$$CBV?$basic_string@DU?$char_traits@D@std@@V?$allocator@D@2@@std@@P6AXH@Z@std@@@2@@std@@@std@@@?$vector@V?$_List_iterator@V?$_List_val@U?$pair@$$CBV?$basic_string@DU?$char_traits@D@std@@V?$allocator@D@2@@std@@P6AXH@Z@std@@V?$allocator@U?$pair@$$CBV?$basic_string@DU?$char_traits@D@std@@V?$allocator@D@2@@std@@P6AXH@Z@std@@@2@@std@@@std@@V?$allocator@V?$_List_iterator@V?$_List_val@U?$pair@$$CBV?$basic_string@DU?$char_traits@D@std@@V?$allocator@D@2@@std@@P6AXH@Z@std@@V?$allocator@U?$pair@$$CBV?$basic_string@DU?$char_traits@D@std@@V?$allocator@D@2@@std@@P6AXH@Z@std@@@2@@std@@@std@@@2@@std@@IAEPAV?$_List_iterator@V?$_List_val@U?$pair@$$CBV?$basic_string@DU?$char_traits@D@std@@V?$allocator@D@2@@std@@P6AXH@Z@std@@V?$allocator@U?$pair@$$CBV?$basic_string@DU?$char_traits@D@std@@V?$allocator@D@2@@std@@P6AXH@Z@std@@@2@@std@@@1@PAV21@00@Z 100037d0 f i GameInterface.obj
 0001:00002800       ??$_Uninitialized_fill_n@PAV?$_List_iterator@V?$_List_val@U?$pair@$$CBV?$basic_string@DU?$char_traits@D@std@@V?$allocator@D@2@@std@@P6AXH@Z@std@@V?$allocator@U?$pair@$$CBV?$basic_string@DU?$char_traits@D@std@@V?$allocator@D@2@@std@@P6AXH@Z@std@@@2@@std@@@std@@IV12@V?$allocator@V?$_List_iterator@V?$_List_val@U?$pair@$$CBV?$basic_string@DU?$char_traits@D@std@@V?$allocator@D@2@@std@@P6AXH@Z@std@@V?$allocator@U?$pair@$$CBV?$basic_string@DU?$char_traits@D@std@@V?$allocator@D@2@@std@@P6AXH@Z@std@@@2@@std@@@std@@@2@@std@@YAXPAV?$_List_iterator@V?$_List_val@U?$pair@$$CBV?$basic_string@DU?$char_traits@D@std@@V?$allocator@D@2@@std@@P6AXH@Z@std@@V?$allocator@U?$pair@$$CBV?$basic_string@DU?$char_traits@D@std@@V?$allocator@D@2@@std@@P6AXH@Z@std@@@2@@std@@@0@IPBV10@AAV?$allocator@V?$_List_iterator@V?$_List_val@U?$pair@$$CBV?$basic_string@DU?$char_traits@D@std@@V?$allocator@D@2@@std@@P6AXH@Z@std@@V?$allocator@U?$pair@$$CBV?$basic_string@DU?$char_traits@D@std@@V?$allocator@D@2@@std@@P6AXH@Z@std@@@2@@std@@@std@@@0@@Z 10003800 f i GameInterface.obj
 0001:00002850       ??0bad_alloc@std@@QAE@PBD@Z 10003850 f i GameInterface.obj
 0001:00002880       ??1bad_alloc@std@@UAE@XZ   10003880 f i GameInterface.obj
 0001:000028a0       ??_Ebad_alloc@std@@UAEPAXI@Z 100038a0 f i GameInterface.obj
 0001:000028a0       ??_Gbad_alloc@std@@UAEPAXI@Z 100038a0 f i GameInterface.obj
 0001:000028d0       ??$_Dest_val@V?$allocator@U_Node@?$_List_nod@U?$pair@$$CBV?$basic_string@DU?$char_traits@D@std@@V?$allocator@D@2@@std@@P6AXH@Z@std@@V?$allocator@U?$pair@$$CBV?$basic_string@DU?$char_traits@D@std@@V?$allocator@D@2@@std@@P6AXH@Z@std@@@2@@std@@@std@@U_Node@?$_List_nod@U?$pair@$$CBV?$basic_string@DU?$char_traits@D@std@@V?$allocator@D@2@@std@@P6AXH@Z@std@@V?$allocator@U?$pair@$$CBV?$basic_string@DU?$char_traits@D@std@@V?$allocator@D@2@@std@@P6AXH@Z@std@@@2@@2@@std@@YAXAAV?$allocator@U_Node@?$_List_nod@U?$pair@$$CBV?$basic_string@DU?$char_traits@D@std@@V?$allocator@D@2@@std@@P6AXH@Z@std@@V?$allocator@U?$pair@$$CBV?$basic_string@DU?$char_traits@D@std@@V?$allocator@D@2@@std@@P6AXH@Z@std@@@2@@std@@@0@PAU_Node@?$_List_nod@U?$pair@$$CBV?$basic_string@DU?$char_traits@D@std@@V?$allocator@D@2@@std@@P6AXH@Z@std@@V?$allocator@U?$pair@$$CBV?$basic_string@DU?$char_traits@D@std@@V?$allocator@D@2@@std@@P6AXH@Z@std@@@2@@0@@Z 100038d0 f i GameInterface.obj
 0001:000028d0       ??$_Dest_val@V?$allocator@U_Node@?$_List_nod@U?$pair@$$CBV?$basic_string@DU?$char_traits@D@std@@V?$allocator@D@2@@std@@_N@std@@V?$allocator@U?$pair@$$CBV?$basic_string@DU?$char_traits@D@std@@V?$allocator@D@2@@std@@_N@std@@@2@@std@@@std@@U_Node@?$_List_nod@U?$pair@$$CBV?$basic_string@DU?$char_traits@D@std@@V?$allocator@D@2@@std@@_N@std@@V?$allocator@U?$pair@$$CBV?$basic_string@DU?$char_traits@D@std@@V?$allocator@D@2@@std@@_N@std@@@2@@2@@std@@YAXAAV?$allocator@U_Node@?$_List_nod@U?$pair@$$CBV?$basic_string@DU?$char_traits@D@std@@V?$allocator@D@2@@std@@_N@std@@V?$allocator@U?$pair@$$CBV?$basic_string@DU?$char_traits@D@std@@V?$allocator@D@2@@std@@_N@std@@@2@@std@@@0@PAU_Node@?$_List_nod@U?$pair@$$CBV?$basic_string@DU?$char_traits@D@std@@V?$allocator@D@2@@std@@_N@std@@V?$allocator@U?$pair@$$CBV?$basic_string@DU?$char_traits@D@std@@V?$allocator@D@2@@std@@_N@std@@@2@@0@@Z 100038d0 f i PatchMW2Experiments.obj
 0001:000028d0       ??$_Dest_val@V?$allocator@U_Node@?$_List_nod@U?$pair@$$CBV?$basic_string@DU?$char_traits@D@std@@V?$allocator@D@2@@std@@PAUVehicleDef@@@std@@V?$allocator@U?$pair@$$CBV?$basic_string@DU?$char_traits@D@std@@V?$allocator@D@2@@std@@PAUVehicleDef@@@std@@@2@@std@@@std@@U_Node@?$_List_nod@U?$pair@$$CBV?$basic_string@DU?$char_traits@D@std@@V?$allocator@D@2@@std@@PAUVehicleDef@@@std@@V?$allocator@U?$pair@$$CBV?$basic_string@DU?$char_traits@D@std@@V?$allocator@D@2@@std@@PAUVehicleDef@@@std@@@2@@2@@std@@YAXAAV?$allocator@U_Node@?$_List_nod@U?$pair@$$CBV?$basic_string@DU?$char_traits@D@std@@V?$allocator@D@2@@std@@PAUVehicleDef@@@std@@V?$allocator@U?$pair@$$CBV?$basic_string@DU?$char_traits@D@std@@V?$allocator@D@2@@std@@PAUVehicleDef@@@std@@@2@@std@@@0@PAU_Node@?$_List_nod@U?$pair@$$CBV?$basic_string@DU?$char_traits@D@std@@V?$allocator@D@2@@std@@PAUVehicleDef@@@std@@V?$allocator@U?$pair@$$CBV?$basic_string@DU?$char_traits@D@std@@V?$allocator@D@2@@std@@PAUVehicleDef@@@std@@@2@@0@@Z 100038d0 f i PatchMW2LoadVehicleDef.obj
 0001:000028f0       ?destroy@?$allocator@U_Node@?$_List_nod@U?$pair@$$CBV?$basic_string@DU?$char_traits@D@std@@V?$allocator@D@2@@std@@PAUVehicleDef@@@std@@V?$allocator@U?$pair@$$CBV?$basic_string@DU?$char_traits@D@std@@V?$allocator@D@2@@std@@PAUVehicleDef@@@std@@@2@@std@@@std@@QAEXPAU_Node@?$_List_nod@U?$pair@$$CBV?$basic_string@DU?$char_traits@D@std@@V?$allocator@D@2@@std@@PAUVehicleDef@@@std@@V?$allocator@U?$pair@$$CBV?$basic_string@DU?$char_traits@D@std@@V?$allocator@D@2@@std@@PAUVehicleDef@@@std@@@2@@2@@Z 100038f0 f i PatchMW2LoadVehicleDef.obj
 0001:000028f0       ?destroy@?$allocator@U_Node@?$_List_nod@U?$pair@$$CBV?$basic_string@DU?$char_traits@D@std@@V?$allocator@D@2@@std@@_N@std@@V?$allocator@U?$pair@$$CBV?$basic_string@DU?$char_traits@D@std@@V?$allocator@D@2@@std@@_N@std@@@2@@std@@@std@@QAEXPAU_Node@?$_List_nod@U?$pair@$$CBV?$basic_string@DU?$char_traits@D@std@@V?$allocator@D@2@@std@@_N@std@@V?$allocator@U?$pair@$$CBV?$basic_string@DU?$char_traits@D@std@@V?$allocator@D@2@@std@@_N@std@@@2@@2@@Z 100038f0 f i PatchMW2Experiments.obj
 0001:000028f0       ?destroy@?$allocator@U_Node@?$_List_nod@U?$pair@$$CBV?$basic_string@DU?$char_traits@D@std@@V?$allocator@D@2@@std@@P6AXH@Z@std@@V?$allocator@U?$pair@$$CBV?$basic_string@DU?$char_traits@D@std@@V?$allocator@D@2@@std@@P6AXH@Z@std@@@2@@std@@@std@@QAEXPAU_Node@?$_List_nod@U?$pair@$$CBV?$basic_string@DU?$char_traits@D@std@@V?$allocator@D@2@@std@@P6AXH@Z@std@@V?$allocator@U?$pair@$$CBV?$basic_string@DU?$char_traits@D@std@@V?$allocator@D@2@@std@@P6AXH@Z@std@@@2@@2@@Z 100038f0 f i GameInterface.obj
 0001:00002910       ?max_load_factor@?$_Hash@V?$_Umap_traits@V?$basic_string@DU?$char_traits@D@std@@V?$allocator@D@2@@std@@P6AXH@ZV?$_Hash_compare@V?$basic_string@DU?$char_traits@D@std@@V?$allocator@D@2@@std@@V?$hash@V?$basic_string@DU?$char_traits@D@std@@V?$allocator@D@2@@std@@@2@U?$equal_to@V?$basic_string@DU?$char_traits@D@std@@V?$allocator@D@2@@std@@@2@@2@V?$allocator@U?$pair@$$CBV?$basic_string@DU?$char_traits@D@std@@V?$allocator@D@2@@std@@P6AXH@Z@std@@@2@$0A@@tr1@std@@@std@@QBEMXZ 10003910 f i GameInterface.obj
 0001:00002910       ?max_load_factor@?$_Hash@V?$_Umap_traits@_K_NV?$_Hash_compare@_KV?$hash@_K@std@@U?$equal_to@_K@2@@std@@V?$allocator@U?$pair@$$CB_K_N@std@@@2@$0A@@tr1@std@@@std@@QBEMXZ 10003910 f i SteamBase.obj
 0001:00002910       ?max_load_factor@?$_Hash@V?$_Umap_traits@_KPAVCCallbackBase@@V?$_Hash_compare@_KV?$hash@_K@std@@U?$equal_to@_K@2@@std@@V?$allocator@U?$pair@$$CB_KPAVCCallbackBase@@@std@@@3@$0A@@tr1@std@@@std@@QBEMXZ 10003910 f i SteamBase.obj
 0001:00002910       ?max_load_factor@?$_Hash@V?$_Umap_traits@V?$basic_string@DU?$char_traits@D@std@@V?$allocator@D@2@@std@@PAUVehicleDef@@V?$_Hash_compare@V?$basic_string@DU?$char_traits@D@std@@V?$allocator@D@2@@std@@V?$hash@V?$basic_string@DU?$char_traits@D@std@@V?$allocator@D@2@@std@@@2@U?$equal_to@V?$basic_string@DU?$char_traits@D@std@@V?$allocator@D@2@@std@@@2@@2@V?$allocator@U?$pair@$$CBV?$basic_string@DU?$char_traits@D@std@@V?$allocator@D@2@@std@@PAUVehicleDef@@@std@@@2@$0A@@tr1@std@@@std@@QBEMXZ 10003910 f i PatchMW2LoadVehicleDef.obj
 0001:00002930       ?_Reinsert@?$_Hash@V?$_Umap_traits@V?$basic_string@DU?$char_traits@D@std@@V?$allocator@D@2@@std@@P6AXH@ZV?$_Hash_compare@V?$basic_string@DU?$char_traits@D@std@@V?$allocator@D@2@@std@@V?$hash@V?$basic_string@DU?$char_traits@D@std@@V?$allocator@D@2@@std@@@2@U?$equal_to@V?$basic_string@DU?$char_traits@D@std@@V?$allocator@D@2@@std@@@2@@2@V?$allocator@U?$pair@$$CBV?$basic_string@DU?$char_traits@D@std@@V?$allocator@D@2@@std@@P6AXH@Z@std@@@2@$0A@@tr1@std@@@std@@IAEXV?$_List_iterator@V?$_List_val@U?$pair@$$CBV?$basic_string@DU?$char_traits@D@std@@V?$allocator@D@2@@std@@P6AXH@Z@std@@V?$allocator@U?$pair@$$CBV?$basic_string@DU?$char_traits@D@std@@V?$allocator@D@2@@std@@P6AXH@Z@std@@@2@@std@@@2@@Z 10003930 f i GameInterface.obj
 0001:000029b0       ?_Incsize@?$list@U?$pair@$$CBV?$basic_string@DU?$char_traits@D@std@@V?$allocator@D@2@@std@@P6AXH@Z@std@@V?$allocator@U?$pair@$$CBV?$basic_string@DU?$char_traits@D@std@@V?$allocator@D@2@@std@@P6AXH@Z@std@@@2@@std@@QAEXI@Z 100039b0 f i GameInterface.obj
 0001:000029b0       ?_Incsize@?$list@U?$pair@$$CBV?$basic_string@DU?$char_traits@D@std@@V?$allocator@D@2@@std@@PAUVehicleDef@@@std@@V?$allocator@U?$pair@$$CBV?$basic_string@DU?$char_traits@D@std@@V?$allocator@D@2@@std@@PAUVehicleDef@@@std@@@2@@std@@QAEXI@Z 100039b0 f i PatchMW2LoadVehicleDef.obj
 0001:000029f0       ?size@?$_Hash@V?$_Umap_traits@_KPAVCCallbackBase@@V?$_Hash_compare@_KV?$hash@_K@std@@U?$equal_to@_K@2@@std@@V?$allocator@U?$pair@$$CB_KPAVCCallbackBase@@@std@@@3@$0A@@tr1@std@@@std@@QBEIXZ 100039f0 f i SteamBase.obj
 0001:000029f0       ?size@?$_Hash@V?$_Umap_traits@_K_NV?$_Hash_compare@_KV?$hash@_K@std@@U?$equal_to@_K@2@@std@@V?$allocator@U?$pair@$$CB_K_N@std@@@2@$0A@@tr1@std@@@std@@QBEIXZ 100039f0 f i SteamBase.obj
 0001:000029f0       ?size@?$_Hash@V?$_Umap_traits@V?$basic_string@DU?$char_traits@D@std@@V?$allocator@D@2@@std@@P6AXH@ZV?$_Hash_compare@V?$basic_string@DU?$char_traits@D@std@@V?$allocator@D@2@@std@@V?$hash@V?$basic_string@DU?$char_traits@D@std@@V?$allocator@D@2@@std@@@2@U?$equal_to@V?$basic_string@DU?$char_traits@D@std@@V?$allocator@D@2@@std@@@2@@2@V?$allocator@U?$pair@$$CBV?$basic_string@DU?$char_traits@D@std@@V?$allocator@D@2@@std@@P6AXH@Z@std@@@2@$0A@@tr1@std@@@std@@QBEIXZ 100039f0 f i GameInterface.obj
 0001:000029f0       ?size@?$_Hash@V?$_Umap_traits@V?$basic_string@DU?$char_traits@D@std@@V?$allocator@D@2@@std@@PAUVehicleDef@@V?$_Hash_compare@V?$basic_string@DU?$char_traits@D@std@@V?$allocator@D@2@@std@@V?$hash@V?$basic_string@DU?$char_traits@D@std@@V?$allocator@D@2@@std@@@2@U?$equal_to@V?$basic_string@DU?$char_traits@D@std@@V?$allocator@D@2@@std@@@2@@2@V?$allocator@U?$pair@$$CBV?$basic_string@DU?$char_traits@D@std@@V?$allocator@D@2@@std@@PAUVehicleDef@@@std@@@2@$0A@@tr1@std@@@std@@QBEIXZ 100039f0 f i PatchMW2LoadVehicleDef.obj
 0001:00002a10       ??$emplace_front@U?$pair@$$CBV?$basic_string@DU?$char_traits@D@std@@V?$allocator@D@2@@std@@P6AXH@Z@std@@@?$list@U?$pair@$$CBV?$basic_string@DU?$char_traits@D@std@@V?$allocator@D@2@@std@@P6AXH@Z@std@@V?$allocator@U?$pair@$$CBV?$basic_string@DU?$char_traits@D@std@@V?$allocator@D@2@@std@@P6AXH@Z@std@@@2@@std@@QAEX$$QAU?$pair@$$CBV?$basic_string@DU?$char_traits@D@std@@V?$allocator@D@2@@std@@P6AXH@Z@1@@Z 10003a10 f i GameInterface.obj
 0001:00002a50       ??$_Destroy_range@V?$allocator@V?$_List_iterator@V?$_List_val@U?$pair@$$CB_K_N@std@@V?$allocator@U?$pair@$$CB_K_N@std@@@2@@std@@@std@@@std@@@std@@YAXPAV?$_List_iterator@V?$_List_val@U?$pair@$$CB_K_N@std@@V?$allocator@U?$pair@$$CB_K_N@std@@@2@@std@@@0@0AAV?$allocator@V?$_List_iterator@V?$_List_val@U?$pair@$$CB_K_N@std@@V?$allocator@U?$pair@$$CB_K_N@std@@@2@@std@@@std@@@0@U_Nonscalar_ptr_iterator_tag@0@@Z 10003a50 f i SteamBase.obj
 0001:00002a50       ??$_Destroy_range@V?$allocator@V?$_List_iterator@V?$_List_val@U?$pair@$$CBV?$basic_string@DU?$char_traits@D@std@@V?$allocator@D@2@@std@@_N@std@@V?$allocator@U?$pair@$$CBV?$basic_string@DU?$char_traits@D@std@@V?$allocator@D@2@@std@@_N@std@@@2@@std@@@std@@@std@@@std@@YAXPAV?$_List_iterator@V?$_List_val@U?$pair@$$CBV?$basic_string@DU?$char_traits@D@std@@V?$allocator@D@2@@std@@_N@std@@V?$allocator@U?$pair@$$CBV?$basic_string@DU?$char_traits@D@std@@V?$allocator@D@2@@std@@_N@std@@@2@@std@@@0@0AAV?$allocator@V?$_List_iterator@V?$_List_val@U?$pair@$$CBV?$basic_string@DU?$char_traits@D@std@@V?$allocator@D@2@@std@@_N@std@@V?$allocator@U?$pair@$$CBV?$basic_string@DU?$char_traits@D@std@@V?$allocator@D@2@@std@@_N@std@@@2@@std@@@std@@@0@U_Nonscalar_ptr_iterator_tag@0@@Z 10003a50 f i PatchMW2Experiments.obj
 0001:00002a50       ??$_Destroy_range@V?$allocator@V?$_List_iterator@V?$_List_val@U?$pair@$$CBV?$basic_string@DU?$char_traits@D@std@@V?$allocator@D@2@@std@@PAUVehicleDef@@@std@@V?$allocator@U?$pair@$$CBV?$basic_string@DU?$char_traits@D@std@@V?$allocator@D@2@@std@@PAUVehicleDef@@@std@@@2@@std@@@std@@@std@@@std@@YAXPAV?$_List_iterator@V?$_List_val@U?$pair@$$CBV?$basic_string@DU?$char_traits@D@std@@V?$allocator@D@2@@std@@PAUVehicleDef@@@std@@V?$allocator@U?$pair@$$CBV?$basic_string@DU?$char_traits@D@std@@V?$allocator@D@2@@std@@PAUVehicleDef@@@std@@@2@@std@@@0@0AAV?$allocator@V?$_List_iterator@V?$_List_val@U?$pair@$$CBV?$basic_string@DU?$char_traits@D@std@@V?$allocator@D@2@@std@@PAUVehicleDef@@@std@@V?$allocator@U?$pair@$$CBV?$basic_string@DU?$char_traits@D@std@@V?$allocator@D@2@@std@@PAUVehicleDef@@@std@@@2@@std@@@std@@@0@U_Nonscalar_ptr_iterator_tag@0@@Z 10003a50 f i PatchMW2LoadVehicleDef.obj
 0001:00002a50       ??$_Destroy_range@V?$allocator@V?$_List_iterator@V?$_List_val@U?$pair@$$CBK_N@std@@V?$allocator@U?$pair@$$CBK_N@std@@@2@@std@@@std@@@std@@@std@@YAXPAV?$_List_iterator@V?$_List_val@U?$pair@$$CBK_N@std@@V?$allocator@U?$pair@$$CBK_N@std@@@2@@std@@@0@0AAV?$allocator@V?$_List_iterator@V?$_List_val@U?$pair@$$CBK_N@std@@V?$allocator@U?$pair@$$CBK_N@std@@@2@@std@@@std@@@0@U_Nonscalar_ptr_iterator_tag@0@@Z 10003a50 f i PatchMW2AssetRestrict.obj
 0001:00002a50       ??$_Destroy_range@V?$allocator@V?$_List_iterator@V?$_List_val@U?$pair@$$CBV?$basic_string@DU?$char_traits@D@std@@V?$allocator@D@2@@std@@P6AXH@Z@std@@V?$allocator@U?$pair@$$CBV?$basic_string@DU?$char_traits@D@std@@V?$allocator@D@2@@std@@P6AXH@Z@std@@@2@@std@@@std@@@std@@@std@@YAXPAV?$_List_iterator@V?$_List_val@U?$pair@$$CBV?$basic_string@DU?$char_traits@D@std@@V?$allocator@D@2@@std@@P6AXH@Z@std@@V?$allocator@U?$pair@$$CBV?$basic_string@DU?$char_traits@D@std@@V?$allocator@D@2@@std@@P6AXH@Z@std@@@2@@std@@@0@0AAV?$allocator@V?$_List_iterator@V?$_List_val@U?$pair@$$CBV?$basic_string@DU?$char_traits@D@std@@V?$allocator@D@2@@std@@P6AXH@Z@std@@V?$allocator@U?$pair@$$CBV?$basic_string@DU?$char_traits@D@std@@V?$allocator@D@2@@std@@P6AXH@Z@std@@@2@@std@@@std@@@0@U_Nonscalar_ptr_iterator_tag@0@@Z 10003a50 f i GameInterface.obj
 0001:00002a50       ??$_Destroy_range@V?$allocator@V?$_List_iterator@V?$_List_val@U?$pair@$$CB_KPAVCCallbackBase@@@std@@V?$allocator@U?$pair@$$CB_KPAVCCallbackBase@@@std@@@2@@std@@@std@@@std@@@std@@YAXPAV?$_List_iterator@V?$_List_val@U?$pair@$$CB_KPAVCCallbackBase@@@std@@V?$allocator@U?$pair@$$CB_KPAVCCallbackBase@@@std@@@2@@std@@@0@0AAV?$allocator@V?$_List_iterator@V?$_List_val@U?$pair@$$CB_KPAVCCallbackBase@@@std@@V?$allocator@U?$pair@$$CB_KPAVCCallbackBase@@@std@@@2@@std@@@std@@@0@U_Nonscalar_ptr_iterator_tag@0@@Z 10003a50 f i SteamBase.obj
 0001:00002a80       ??$_Uninitialized_move@PAV?$_List_iterator@V?$_List_val@U?$pair@$$CBV?$basic_string@DU?$char_traits@D@std@@V?$allocator@D@2@@std@@P6AXH@Z@std@@V?$allocator@U?$pair@$$CBV?$basic_string@DU?$char_traits@D@std@@V?$allocator@D@2@@std@@P6AXH@Z@std@@@2@@std@@@std@@PAV12@V?$allocator@V?$_List_iterator@V?$_List_val@U?$pair@$$CBV?$basic_string@DU?$char_traits@D@std@@V?$allocator@D@2@@std@@P6AXH@Z@std@@V?$allocator@U?$pair@$$CBV?$basic_string@DU?$char_traits@D@std@@V?$allocator@D@2@@std@@P6AXH@Z@std@@@2@@std@@@std@@@2@@std@@YAPAV?$_List_iterator@V?$_List_val@U?$pair@$$CBV?$basic_string@DU?$char_traits@D@std@@V?$allocator@D@2@@std@@P6AXH@Z@std@@V?$allocator@U?$pair@$$CBV?$basic_string@DU?$char_traits@D@std@@V?$allocator@D@2@@std@@P6AXH@Z@std@@@2@@std@@@0@PAV10@00AAV?$allocator@V?$_List_iterator@V?$_List_val@U?$pair@$$CBV?$basic_string@DU?$char_traits@D@std@@V?$allocator@D@2@@std@@P6AXH@Z@std@@V?$allocator@U?$pair@$$CBV?$basic_string@DU?$char_traits@D@std@@V?$allocator@D@2@@std@@P6AXH@Z@std@@@2@@std@@@std@@@0@@Z 10003a80 f i GameInterface.obj
 0001:00002ad0       ??$_Uninit_fill_n@PAV?$_List_iterator@V?$_List_val@U?$pair@$$CBV?$basic_string@DU?$char_traits@D@std@@V?$allocator@D@2@@std@@P6AXH@Z@std@@V?$allocator@U?$pair@$$CBV?$basic_string@DU?$char_traits@D@std@@V?$allocator@D@2@@std@@P6AXH@Z@std@@@2@@std@@@std@@IV12@V?$allocator@V?$_List_iterator@V?$_List_val@U?$pair@$$CBV?$basic_string@DU?$char_traits@D@std@@V?$allocator@D@2@@std@@P6AXH@Z@std@@V?$allocator@U?$pair@$$CBV?$basic_string@DU?$char_traits@D@std@@V?$allocator@D@2@@std@@P6AXH@Z@std@@@2@@std@@@std@@@2@V12@@std@@YAXPAV?$_List_iterator@V?$_List_val@U?$pair@$$CBV?$basic_string@DU?$char_traits@D@std@@V?$allocator@D@2@@std@@P6AXH@Z@std@@V?$allocator@U?$pair@$$CBV?$basic_string@DU?$char_traits@D@std@@V?$allocator@D@2@@std@@P6AXH@Z@std@@@2@@std@@@0@IPBV10@AAV?$allocator@V?$_List_iterator@V?$_List_val@U?$pair@$$CBV?$basic_string@DU?$char_traits@D@std@@V?$allocator@D@2@@std@@P6AXH@Z@std@@V?$allocator@U?$pair@$$CBV?$basic_string@DU?$char_traits@D@std@@V?$allocator@D@2@@std@@P6AXH@Z@std@@@2@@std@@@std@@@0@0U_Nonscalar_ptr_iterator_tag@0@@Z 10003ad0 f i GameInterface.obj
 0001:00002b90       ??$_Destroy@U_Node@?$_List_nod@U?$pair@$$CBV?$basic_string@DU?$char_traits@D@std@@V?$allocator@D@2@@std@@P6AXH@Z@std@@V?$allocator@U?$pair@$$CBV?$basic_string@DU?$char_traits@D@std@@V?$allocator@D@2@@std@@P6AXH@Z@std@@@2@@std@@@std@@YAXPAU_Node@?$_List_nod@U?$pair@$$CBV?$basic_string@DU?$char_traits@D@std@@V?$allocator@D@2@@std@@P6AXH@Z@std@@V?$allocator@U?$pair@$$CBV?$basic_string@DU?$char_traits@D@std@@V?$allocator@D@2@@std@@P6AXH@Z@std@@@2@@0@@Z 10003b90 f i GameInterface.obj
 0001:00002b90       ??$_Destroy@U_Node@?$_List_nod@U?$pair@$$CBV?$basic_string@DU?$char_traits@D@std@@V?$allocator@D@2@@std@@_N@std@@V?$allocator@U?$pair@$$CBV?$basic_string@DU?$char_traits@D@std@@V?$allocator@D@2@@std@@_N@std@@@2@@std@@@std@@YAXPAU_Node@?$_List_nod@U?$pair@$$CBV?$basic_string@DU?$char_traits@D@std@@V?$allocator@D@2@@std@@_N@std@@V?$allocator@U?$pair@$$CBV?$basic_string@DU?$char_traits@D@std@@V?$allocator@D@2@@std@@_N@std@@@2@@0@@Z 10003b90 f i PatchMW2Experiments.obj
 0001:00002b90       ??$_Destroy@U_Node@?$_List_nod@U?$pair@$$CBV?$basic_string@DU?$char_traits@D@std@@V?$allocator@D@2@@std@@PAUVehicleDef@@@std@@V?$allocator@U?$pair@$$CBV?$basic_string@DU?$char_traits@D@std@@V?$allocator@D@2@@std@@PAUVehicleDef@@@std@@@2@@std@@@std@@YAXPAU_Node@?$_List_nod@U?$pair@$$CBV?$basic_string@DU?$char_traits@D@std@@V?$allocator@D@2@@std@@PAUVehicleDef@@@std@@V?$allocator@U?$pair@$$CBV?$basic_string@DU?$char_traits@D@std@@V?$allocator@D@2@@std@@PAUVehicleDef@@@std@@@2@@0@@Z 10003b90 f i PatchMW2LoadVehicleDef.obj
 0001:00002ba0       ??_G_Node@?$_List_nod@U?$pair@$$CBV?$basic_string@DU?$char_traits@D@std@@V?$allocator@D@2@@std@@P6AXH@Z@std@@V?$allocator@U?$pair@$$CBV?$basic_string@DU?$char_traits@D@std@@V?$allocator@D@2@@std@@P6AXH@Z@std@@@2@@std@@QAEPAXI@Z 10003ba0 f i GameInterface.obj
 0001:00002ba0       ??_G_Node@?$_List_nod@U?$pair@$$CBV?$basic_string@DU?$char_traits@D@std@@V?$allocator@D@2@@std@@PAUVehicleDef@@@std@@V?$allocator@U?$pair@$$CBV?$basic_string@DU?$char_traits@D@std@@V?$allocator@D@2@@std@@PAUVehicleDef@@@std@@@2@@std@@QAEPAXI@Z 10003ba0 f i PatchMW2LoadVehicleDef.obj
 0001:00002ba0       ??_G_Node@?$_List_nod@U?$pair@$$CBV?$basic_string@DU?$char_traits@D@std@@V?$allocator@D@2@@std@@_N@std@@V?$allocator@U?$pair@$$CBV?$basic_string@DU?$char_traits@D@std@@V?$allocator@D@2@@std@@_N@std@@@2@@std@@QAEPAXI@Z 10003ba0 f i PatchMW2Experiments.obj
 0001:00002bd0       ??1_Node@?$_List_nod@U?$pair@$$CBV?$basic_string@DU?$char_traits@D@std@@V?$allocator@D@2@@std@@PAUVehicleDef@@@std@@V?$allocator@U?$pair@$$CBV?$basic_string@DU?$char_traits@D@std@@V?$allocator@D@2@@std@@PAUVehicleDef@@@std@@@2@@std@@QAE@XZ 10003bd0 f i PatchMW2LoadVehicleDef.obj
 0001:00002bd0       ??1_Node@?$_List_nod@U?$pair@$$CBV?$basic_string@DU?$char_traits@D@std@@V?$allocator@D@2@@std@@_N@std@@V?$allocator@U?$pair@$$CBV?$basic_string@DU?$char_traits@D@std@@V?$allocator@D@2@@std@@_N@std@@@2@@std@@QAE@XZ 10003bd0 f i PatchMW2Experiments.obj
 0001:00002bd0       ??1_Node@?$_List_nod@U?$pair@$$CBV?$basic_string@DU?$char_traits@D@std@@V?$allocator@D@2@@std@@P6AXH@Z@std@@V?$allocator@U?$pair@$$CBV?$basic_string@DU?$char_traits@D@std@@V?$allocator@D@2@@std@@P6AXH@Z@std@@@2@@std@@QAE@XZ 10003bd0 f i GameInterface.obj
 0001:00002bf0       ??$_Insert_rv@U?$pair@$$CBV?$basic_string@DU?$char_traits@D@std@@V?$allocator@D@2@@std@@P6AXH@Z@std@@@?$list@U?$pair@$$CBV?$basic_string@DU?$char_traits@D@std@@V?$allocator@D@2@@std@@P6AXH@Z@std@@V?$allocator@U?$pair@$$CBV?$basic_string@DU?$char_traits@D@std@@V?$allocator@D@2@@std@@P6AXH@Z@std@@@2@@std@@QAEXV?$_List_const_iterator@V?$_List_val@U?$pair@$$CBV?$basic_string@DU?$char_traits@D@std@@V?$allocator@D@2@@std@@P6AXH@Z@std@@V?$allocator@U?$pair@$$CBV?$basic_string@DU?$char_traits@D@std@@V?$allocator@D@2@@std@@P6AXH@Z@std@@@2@@std@@@1@$$QAU?$pair@$$CBV?$basic_string@DU?$char_traits@D@std@@V?$allocator@D@2@@std@@P6AXH@Z@1@@Z 10003bf0 f i GameInterface.obj
 0001:00002c70       ??$_Uninit_move@PAV?$_List_iterator@V?$_List_val@U?$pair@$$CBV?$basic_string@DU?$char_traits@D@std@@V?$allocator@D@2@@std@@P6AXH@Z@std@@V?$allocator@U?$pair@$$CBV?$basic_string@DU?$char_traits@D@std@@V?$allocator@D@2@@std@@P6AXH@Z@std@@@2@@std@@@std@@PAV12@V?$allocator@V?$_List_iterator@V?$_List_val@U?$pair@$$CBV?$basic_string@DU?$char_traits@D@std@@V?$allocator@D@2@@std@@P6AXH@Z@std@@V?$allocator@U?$pair@$$CBV?$basic_string@DU?$char_traits@D@std@@V?$allocator@D@2@@std@@P6AXH@Z@std@@@2@@std@@@std@@@2@V12@@std@@YAPAV?$_List_iterator@V?$_List_val@U?$pair@$$CBV?$basic_string@DU?$char_traits@D@std@@V?$allocator@D@2@@std@@P6AXH@Z@std@@V?$allocator@U?$pair@$$CBV?$basic_string@DU?$char_traits@D@std@@V?$allocator@D@2@@std@@P6AXH@Z@std@@@2@@std@@@0@PAV10@00AAV?$allocator@V?$_List_iterator@V?$_List_val@U?$pair@$$CBV?$basic_string@DU?$char_traits@D@std@@V?$allocator@D@2@@std@@P6AXH@Z@std@@V?$allocator@U?$pair@$$CBV?$basic_string@DU?$char_traits@D@std@@V?$allocator@D@2@@std@@P6AXH@Z@std@@@2@@std@@@std@@@0@0U_Nonscalar_ptr_iterator_tag@0@@Z 10003c70 f i GameInterface.obj
 0001:00002d30       ??$_Cons_val@V?$allocator@V?$_List_iterator@V?$_List_val@U?$pair@$$CBV?$basic_string@DU?$char_traits@D@std@@V?$allocator@D@2@@std@@P6AXH@Z@std@@V?$allocator@U?$pair@$$CBV?$basic_string@DU?$char_traits@D@std@@V?$allocator@D@2@@std@@P6AXH@Z@std@@@2@@std@@@std@@@std@@V?$_List_iterator@V?$_List_val@U?$pair@$$CBV?$basic_string@DU?$char_traits@D@std@@V?$allocator@D@2@@std@@P6AXH@Z@std@@V?$allocator@U?$pair@$$CBV?$basic_string@DU?$char_traits@D@std@@V?$allocator@D@2@@std@@P6AXH@Z@std@@@2@@std@@@2@ABV32@@std@@YAXAAV?$allocator@V?$_List_iterator@V?$_List_val@U?$pair@$$CBV?$basic_string@DU?$char_traits@D@std@@V?$allocator@D@2@@std@@P6AXH@Z@std@@V?$allocator@U?$pair@$$CBV?$basic_string@DU?$char_traits@D@std@@V?$allocator@D@2@@std@@P6AXH@Z@std@@@2@@std@@@std@@@0@PAV?$_List_iterator@V?$_List_val@U?$pair@$$CBV?$basic_string@DU?$char_traits@D@std@@V?$allocator@D@2@@std@@P6AXH@Z@std@@V?$allocator@U?$pair@$$CBV?$basic_string@DU?$char_traits@D@std@@V?$allocator@D@2@@std@@P6AXH@Z@std@@@2@@std@@@0@ABV20@@Z 10003d30 f i GameInterface.obj
 0001:00002d50       ?construct@?$allocator@V?$_List_iterator@V?$_List_val@U?$pair@$$CBV?$basic_string@DU?$char_traits@D@std@@V?$allocator@D@2@@std@@P6AXH@Z@std@@V?$allocator@U?$pair@$$CBV?$basic_string@DU?$char_traits@D@std@@V?$allocator@D@2@@std@@P6AXH@Z@std@@@2@@std@@@std@@@std@@QAEXPAV?$_List_iterator@V?$_List_val@U?$pair@$$CBV?$basic_string@DU?$char_traits@D@std@@V?$allocator@D@2@@std@@P6AXH@Z@std@@V?$allocator@U?$pair@$$CBV?$basic_string@DU?$char_traits@D@std@@V?$allocator@D@2@@std@@P6AXH@Z@std@@@2@@std@@@2@ABV32@@Z 10003d50 f i GameInterface.obj
 0001:00002d70       ??$_Buynode@U?$pair@$$CBV?$basic_string@DU?$char_traits@D@std@@V?$allocator@D@2@@std@@P6AXH@Z@std@@@?$_List_val@U?$pair@$$CBV?$basic_string@DU?$char_traits@D@std@@V?$allocator@D@2@@std@@P6AXH@Z@std@@V?$allocator@U?$pair@$$CBV?$basic_string@DU?$char_traits@D@std@@V?$allocator@D@2@@std@@P6AXH@Z@std@@@2@@std@@QAEPAU_Node@?$_List_nod@U?$pair@$$CBV?$basic_string@DU?$char_traits@D@std@@V?$allocator@D@2@@std@@P6AXH@Z@std@@V?$allocator@U?$pair@$$CBV?$basic_string@DU?$char_traits@D@std@@V?$allocator@D@2@@std@@P6AXH@Z@std@@@2@@1@PAU231@0$$QAU?$pair@$$CBV?$basic_string@DU?$char_traits@D@std@@V?$allocator@D@2@@std@@P6AXH@Z@1@@Z 10003d70 f i GameInterface.obj
 0001:00002e70       ??$_Cons_val@V?$allocator@V?$_List_iterator@V?$_List_val@U?$pair@$$CBV?$basic_string@DU?$char_traits@D@std@@V?$allocator@D@2@@std@@P6AXH@Z@std@@V?$allocator@U?$pair@$$CBV?$basic_string@DU?$char_traits@D@std@@V?$allocator@D@2@@std@@P6AXH@Z@std@@@2@@std@@@std@@@std@@V?$_List_iterator@V?$_List_val@U?$pair@$$CBV?$basic_string@DU?$char_traits@D@std@@V?$allocator@D@2@@std@@P6AXH@Z@std@@V?$allocator@U?$pair@$$CBV?$basic_string@DU?$char_traits@D@std@@V?$allocator@D@2@@std@@P6AXH@Z@std@@@2@@std@@@2@V32@@std@@YAXAAV?$allocator@V?$_List_iterator@V?$_List_val@U?$pair@$$CBV?$basic_string@DU?$char_traits@D@std@@V?$allocator@D@2@@std@@P6AXH@Z@std@@V?$allocator@U?$pair@$$CBV?$basic_string@DU?$char_traits@D@std@@V?$allocator@D@2@@std@@P6AXH@Z@std@@@2@@std@@@std@@@0@PAV?$_List_iterator@V?$_List_val@U?$pair@$$CBV?$basic_string@DU?$char_traits@D@std@@V?$allocator@D@2@@std@@P6AXH@Z@std@@V?$allocator@U?$pair@$$CBV?$basic_string@DU?$char_traits@D@std@@V?$allocator@D@2@@std@@P6AXH@Z@std@@@2@@std@@@0@$$QAV20@@Z 10003e70 f i GameInterface.obj
 0001:00002e90       ??$_Construct@V?$_List_iterator@V?$_List_val@U?$pair@$$CBV?$basic_string@DU?$char_traits@D@std@@V?$allocator@D@2@@std@@P6AXH@Z@std@@V?$allocator@U?$pair@$$CBV?$basic_string@DU?$char_traits@D@std@@V?$allocator@D@2@@std@@P6AXH@Z@std@@@2@@std@@@std@@ABV12@@std@@YAXPAV?$_List_iterator@V?$_List_val@U?$pair@$$CBV?$basic_string@DU?$char_traits@D@std@@V?$allocator@D@2@@std@@P6AXH@Z@std@@V?$allocator@U?$pair@$$CBV?$basic_string@DU?$char_traits@D@std@@V?$allocator@D@2@@std@@P6AXH@Z@std@@@2@@std@@@0@ABV10@@Z 10003e90 f i GameInterface.obj
 0001:00002f10       ??2@YAPAXIPAX@Z            10003f10 f i GameInterface.obj
 0001:00002f20       ?construct@?$allocator@V?$_List_iterator@V?$_List_val@U?$pair@$$CBV?$basic_string@DU?$char_traits@D@std@@V?$allocator@D@2@@std@@P6AXH@Z@std@@V?$allocator@U?$pair@$$CBV?$basic_string@DU?$char_traits@D@std@@V?$allocator@D@2@@std@@P6AXH@Z@std@@@2@@std@@@std@@@std@@QAEXPAV?$_List_iterator@V?$_List_val@U?$pair@$$CBV?$basic_string@DU?$char_traits@D@std@@V?$allocator@D@2@@std@@P6AXH@Z@std@@V?$allocator@U?$pair@$$CBV?$basic_string@DU?$char_traits@D@std@@V?$allocator@D@2@@std@@P6AXH@Z@std@@@2@@std@@@2@$$QAV32@@Z 10003f20 f i GameInterface.obj
 0001:00002fa0       ??$_Cons_val@V?$allocator@U?$pair@$$CBV?$basic_string@DU?$char_traits@D@std@@V?$allocator@D@2@@std@@P6AXH@Z@std@@@std@@U?$pair@$$CBV?$basic_string@DU?$char_traits@D@std@@V?$allocator@D@2@@std@@P6AXH@Z@2@U32@@std@@YAXAAV?$allocator@U?$pair@$$CBV?$basic_string@DU?$char_traits@D@std@@V?$allocator@D@2@@std@@P6AXH@Z@std@@@0@PAU?$pair@$$CBV?$basic_string@DU?$char_traits@D@std@@V?$allocator@D@2@@std@@P6AXH@Z@0@$$QAU20@@Z 10003fa0 f i GameInterface.obj
 0001:00002fc0       ?construct@?$allocator@U?$pair@$$CBV?$basic_string@DU?$char_traits@D@std@@V?$allocator@D@2@@std@@P6AXH@Z@std@@@std@@QAEXPAU?$pair@$$CBV?$basic_string@DU?$char_traits@D@std@@V?$allocator@D@2@@std@@P6AXH@Z@2@$$QAU32@@Z 10003fc0 f i GameInterface.obj
 0001:00003040       ??$?0$$CBV?$basic_string@DU?$char_traits@D@std@@V?$allocator@D@2@@std@@P6AXH@Z@?$pair@$$CBV?$basic_string@DU?$char_traits@D@std@@V?$allocator@D@2@@std@@P6AXH@Z@std@@QAE@$$QAU01@@Z 10004040 f i GameInterface.obj
 0001:00003080       ??0?$_Pair_base@$$CBV?$basic_string@DU?$char_traits@D@std@@V?$allocator@D@2@@std@@P6AXH@Z@std@@QAE@$$QBV?$basic_string@DU?$char_traits@D@std@@V?$allocator@D@2@@1@$$QAP6AXH@Z@Z 10004080 f i GameInterface.obj
 0001:000030f0       ??R?$hash@V?$basic_string@DU?$char_traits@D@std@@V?$allocator@D@2@@std@@@std@@QBEIABV?$basic_string@DU?$char_traits@D@std@@V?$allocator@D@2@@1@@Z 100040f0 f i GameInterface.obj
 0001:00003170       ?Cmd_Argc@@YAHXZ           10004170 f i GameInterface.obj
 0001:00003190       ??0?$basic_string@DU?$char_traits@D@std@@V?$allocator@D@2@@std@@QAE@PBD@Z 10004190 f i GameInterface.obj
 0001:00003200       ??1?$basic_string@DU?$char_traits@D@std@@V?$allocator@D@2@@std@@QAE@XZ 10004200 f i GameInterface.obj
 0001:00003250       ??A?$basic_string@DU?$char_traits@D@std@@V?$allocator@D@2@@std@@QBEABDI@Z 10004250 f i GameInterface.obj
 0001:00003270       ?state@?$fpos@H@std@@QBEHXZ 10004270 f i PatchMW2StringTable.obj
 0001:00003270       ?size@?$deque@U?$pair@PAEPAE@std@@V?$allocator@U?$pair@PAEPAE@std@@@2@@std@@QBEIXZ 10004270 f i PatchMW2StringTable.obj
 0001:00003270       ?size@?$deque@Udownload_s@@V?$allocator@Udownload_s@@@std@@@std@@QBEIXZ 10004270 f i PatchMW2DownloadCL.obj
 0001:00003270       ?length@?$basic_string@DU?$char_traits@D@std@@V?$allocator@D@2@@std@@QBEIXZ 10004270 f i PatchMW2StringTable.obj
 0001:00003270       ?size@?$basic_string@DU?$char_traits@D@std@@V?$allocator@D@2@@std@@QBEIXZ 10004270 f i GameInterface.obj
 0001:00003270       ?size@?$deque@V?$deque@U?$pair@PAEPAE@std@@V?$allocator@U?$pair@PAEPAE@std@@@2@@std@@V?$allocator@V?$deque@U?$pair@PAEPAE@std@@V?$allocator@U?$pair@PAEPAE@std@@@2@@std@@@2@@std@@QBEIXZ 10004270 f i PatchMW2StringTable.obj
 0001:00003290       ?compare@?$basic_string@DU?$char_traits@D@std@@V?$allocator@D@2@@std@@QBEHABV12@@Z 10004290 f i GameInterface.obj
 0001:000032c0       ?assign@?$basic_string@DU?$char_traits@D@std@@V?$allocator@D@2@@std@@QAEAAV12@PBD@Z 100042c0 f i GameInterface.obj
 0001:000032f0       ?length@?$char_traits@D@std@@SAIPBD@Z 100042f0 f i GameInterface.obj
 0001:00003310       ?compare@?$basic_string@DU?$char_traits@D@std@@V?$allocator@D@2@@std@@QBEHIIPBDI@Z 10004310 f i GameInterface.obj
 0001:000033c0       ?compare@?$char_traits@D@std@@SAHPBD0I@Z 100043c0 f i GameInterface.obj
 0001:000033e0       ?_Tidy@?$basic_string@DU?$char_traits@D@std@@V?$allocator@D@2@@std@@QAEX_NI@Z 100043e0 f i GameInterface.obj
 0001:00003460       ?copy@?$char_traits@D@std@@SAPADPADPBDI@Z 10004460 f i GameInterface.obj
 0001:00003480       ??0?$_String_val@DV?$allocator@D@std@@@std@@QAE@V?$allocator@D@1@@Z 10004480 f i GameInterface.obj
 0001:000034a0       ??1?$_Vector_val@V?$_List_iterator@V?$_List_val@U?$pair@$$CBV?$basic_string@DU?$char_traits@D@std@@V?$allocator@D@2@@std@@P6AXH@Z@std@@V?$allocator@U?$pair@$$CBV?$basic_string@DU?$char_traits@D@std@@V?$allocator@D@2@@std@@P6AXH@Z@std@@@2@@std@@@std@@V?$allocator@V?$_List_iterator@V?$_List_val@U?$pair@$$CBV?$basic_string@DU?$char_traits@D@std@@V?$allocator@D@2@@std@@P6AXH@Z@std@@V?$allocator@U?$pair@$$CBV?$basic_string@DU?$char_traits@D@std@@V?$allocator@D@2@@std@@P6AXH@Z@std@@@2@@std@@@std@@@2@@std@@QAE@XZ 100044a0 f i GameInterface.obj
 0001:000034a0       ??1?$_Vector_val@UUIClickHandler_t@@V?$allocator@UUIClickHandler_t@@@std@@@std@@QAE@XZ 100044a0 f i PatchMW2UIScripts.obj
 0001:000034a0       ??1?$_Vector_val@UServerStorageEntry@@V?$allocator@UServerStorageEntry@@@std@@@std@@QAE@XZ 100044a0 f i ServerStorage.obj
 0001:000034a0       ??1?$_Vector_val@PAUMaterial@@V?$allocator@PAUMaterial@@@std@@@std@@QAE@XZ 100044a0 f i PatchMW2WeaponCamos.obj
 0001:000034a0       ??1?$libc_allocator_with_realloc@U?$pair@$$CBV?$basic_string@DU?$char_traits@D@std@@V?$allocator@D@2@@std@@PAUMaterial@@@std@@@google@@QAE@XZ 100044a0 f i PatchMW2Materialism.obj
 0001:000034a0       ?_Orphan_all@_Container_base12@std@@QAEXXZ 100044a0 f i PatchMW2DownloadCL.obj
 0001:000034a0       ??1?$libc_allocator_with_realloc@U?$pair@$$CBKPAUCModelAllocData@@@std@@@google@@QAE@XZ 100044a0 f i PatchMW2CModels.obj
 0001:000034a0       ??1?$libc_allocator_with_realloc@U?$pair@$$CBV?$basic_string@DU?$char_traits@D@std@@V?$allocator@D@2@@std@@V12@@std@@@google@@QAE@XZ 100044a0 f i PatchMW2LocalizedStrings.obj
 0001:000034a0       ??1?$_Vector_val@PAUmenuDef_t@@V?$allocator@PAUmenuDef_t@@@std@@@std@@QAE@XZ 100044a0 f i PatchMW2UILoading.obj
 0001:000034a0       ??1?$_Vector_val@USteamInterface2_s@@V?$allocator@USteamInterface2_s@@@std@@@std@@QAE@XZ 100044a0 f i SteamBase.obj
 0001:000034a0       ??1?$libc_allocator_with_realloc@U?$pair@$$CBV?$basic_string@DU?$char_traits@D@std@@V?$allocator@D@2@@std@@PAUXModel@@@std@@@google@@QAE@XZ 100044a0 f i PatchMW2WeaponCamos.obj
 0001:000034a0       ??1?$libc_allocator_with_realloc@U?$pair@$$CBKPAX@std@@@google@@QAE@XZ 100044a0 f i PatchMW2CModels.obj
 0001:000034a0       ??1?$_Vector_val@HV?$allocator@H@std@@@std@@QAE@XZ 100044a0 f i Script.obj
 0001:000034a0       ??1?$_Vector_val@V?$basic_string@DU?$char_traits@D@std@@V?$allocator@D@2@@std@@V?$allocator@V?$basic_string@DU?$char_traits@D@std@@V?$allocator@D@2@@std@@@2@@std@@QAE@XZ 100044a0 f i MW2.obj
 0001:000034a0       ??1?$libc_allocator_with_realloc@U?$pair@$$CBV?$basic_string@DU?$char_traits@D@std@@V?$allocator@D@2@@std@@PAUstringTable_s@@@std@@@google@@QAE@XZ 100044a0 f i PatchMW2StringTable.obj
 0001:000034a0       ??1?$_Vector_val@UUIFeeder_t@@V?$allocator@UUIFeeder_t@@@std@@@std@@QAE@XZ 100044a0 f i PatchMW2UIScripts.obj
 0001:000034a0       ??1?$_Vector_val@V?$_List_iterator@V?$_List_val@U?$pair@$$CB_KPAVCCallbackBase@@@std@@V?$allocator@U?$pair@$$CB_KPAVCCallbackBase@@@std@@@2@@std@@@std@@V?$allocator@V?$_List_iterator@V?$_List_val@U?$pair@$$CB_KPAVCCallbackBase@@@std@@V?$allocator@U?$pair@$$CB_KPAVCCallbackBase@@@std@@@2@@std@@@std@@@2@@std@@QAE@XZ 100044a0 f i SteamBase.obj
 0001:000034a0       ?_Makestr@system_error@std@@AAEXXZ 100044a0 f i PatchMW2StringTable.obj
 0001:000034a0       ??1?$_Vector_val@V?$_List_iterator@V?$_List_val@U?$pair@$$CBV?$basic_string@DU?$char_traits@D@std@@V?$allocator@D@2@@std@@_N@std@@V?$allocator@U?$pair@$$CBV?$basic_string@DU?$char_traits@D@std@@V?$allocator@D@2@@std@@_N@std@@@2@@std@@@std@@V?$allocator@V?$_List_iterator@V?$_List_val@U?$pair@$$CBV?$basic_string@DU?$char_traits@D@std@@V?$allocator@D@2@@std@@_N@std@@V?$allocator@U?$pair@$$CBV?$basic_string@DU?$char_traits@D@std@@V?$allocator@D@2@@std@@_N@std@@@2@@std@@@std@@@2@@std@@QAE@XZ 100044a0 f i PatchMW2Experiments.obj
 0001:000034a0       ??1_Iterator_base12@std@@QAE@XZ 100044a0 f i PatchMW2DownloadCL.obj
 0001:000034a0       ??1?$_Vector_val@V?$_List_iterator@V?$_List_val@U?$pair@$$CBK_N@std@@V?$allocator@U?$pair@$$CBK_N@std@@@2@@std@@@std@@V?$allocator@V?$_List_iterator@V?$_List_val@U?$pair@$$CBK_N@std@@V?$allocator@U?$pair@$$CBK_N@std@@@2@@std@@@std@@@2@@std@@QAE@XZ 100044a0 f i PatchMW2AssetRestrict.obj
 0001:000034a0       ??1?$_Vector_val@V?$_List_iterator@V?$_List_val@U?$pair@$$CB_K_N@std@@V?$allocator@U?$pair@$$CB_K_N@std@@@2@@std@@@std@@V?$allocator@V?$_List_iterator@V?$_List_val@U?$pair@$$CB_K_N@std@@V?$allocator@U?$pair@$$CB_K_N@std@@@2@@std@@@std@@@2@@std@@QAE@XZ 100044a0 f i SteamBase.obj
 0001:000034a0       ??1?$libc_allocator_with_realloc@U?$pair@$$CBV?$basic_string@DU?$char_traits@D@std@@V?$allocator@D@2@@std@@G@std@@@google@@QAE@XZ 100044a0 f i PatchMW2StringList.obj
 0001:000034a0       ??1?$_Vector_val@V?$_List_iterator@V?$_List_val@U?$pair@$$CBV?$basic_string@DU?$char_traits@D@std@@V?$allocator@D@2@@std@@PAUVehicleDef@@@std@@V?$allocator@U?$pair@$$CBV?$basic_string@DU?$char_traits@D@std@@V?$allocator@D@2@@std@@PAUVehicleDef@@@std@@@2@@std@@@std@@V?$allocator@V?$_List_iterator@V?$_List_val@U?$pair@$$CBV?$basic_string@DU?$char_traits@D@std@@V?$allocator@D@2@@std@@PAUVehicleDef@@@std@@V?$allocator@U?$pair@$$CBV?$basic_string@DU?$char_traits@D@std@@V?$allocator@D@2@@std@@PAUVehicleDef@@@std@@@2@@std@@@std@@@2@@std@@QAE@XZ 100044a0 f i PatchMW2LoadVehicleDef.obj
 0001:000034a0       ?_Orphan_all@_Container_base0@std@@QAEXXZ 100044a0 f i GameInterface.obj
 0001:000034a0       ??1?$_Vector_val@Ugscr_file_t@@V?$allocator@Ugscr_file_t@@@std@@@std@@QAE@XZ 100044a0 f i Script.obj
 0001:000034a0       ??1?$_Vector_val@Unetadr_t@@V?$allocator@Unetadr_t@@@std@@@std@@QAE@XZ 100044a0 f i PatchMW2Redirect.obj
 0001:000034a0       ??1?$_Vector_val@UUIScript_t@@V?$allocator@UUIScript_t@@@std@@@std@@QAE@XZ 100044a0 f i PatchMW2UIScripts.obj
 0001:000034a0       ??1?$_String_val@DV?$allocator@D@std@@@std@@QAE@XZ 100044a0 f i GameInterface.obj
 0001:000034a0       ??1?$_Vector_val@USteamAPIResult_s@@V?$allocator@USteamAPIResult_s@@@std@@@std@@QAE@XZ 100044a0 f i SteamBase.obj
 0001:000034a0       ??1?$_Vector_val@PAUchallengeState_t@@V?$allocator@PAUchallengeState_t@@@std@@@std@@QAE@XZ 100044a0 f i PatchMW2PreAuthenticate.obj
 0001:000034a0       ??1?$_Vector_val@PAVCCallbackBase@@V?$allocator@PAVCCallbackBase@@@std@@@std@@QAE@XZ 100044a0 f i SteamBase.obj
 0001:000034b0       ?assign@?$basic_string@DU?$char_traits@D@std@@V?$allocator@D@2@@std@@QAEAAV12@PBDI@Z 100044b0 f i GameInterface.obj
 0001:00003530       ?_Eos@?$basic_string@DU?$char_traits@D@std@@V?$allocator@D@2@@std@@QAEXI@Z 10004530 f i GameInterface.obj
 0001:00003570       ?assign@?$char_traits@D@std@@SAXAADABD@Z 10004570 f i GameInterface.obj
 0001:00003580       ?_Myptr@?$basic_string@DU?$char_traits@D@std@@V?$allocator@D@2@@std@@QBEPBDXZ 10004580 f i GameInterface.obj
 0001:00003580       ?_Myptr@?$basic_string@DU?$char_traits@D@std@@V?$allocator@D@2@@std@@QAEPADXZ 10004580 f i GameInterface.obj
 0001:000035b0       ?_Xran@?$basic_string@DU?$char_traits@D@std@@V?$allocator@D@2@@std@@QBEXXZ 100045b0 f i GameInterface.obj
 0001:000035d0       ?assign@?$basic_string@DU?$char_traits@D@std@@V?$allocator@D@2@@std@@QAEAAV12@ABV12@II@Z 100045d0 f i GameInterface.obj
 0001:00003690       ?_Grow@?$basic_string@DU?$char_traits@D@std@@V?$allocator@D@2@@std@@QAE_NI_N@Z 10004690 f i GameInterface.obj
 0001:00003730       ?_Inside@?$basic_string@DU?$char_traits@D@std@@V?$allocator@D@2@@std@@QAE_NPBD@Z 10004730 f i GameInterface.obj
 0001:00003770       ?_Xlen@?$basic_string@DU?$char_traits@D@std@@V?$allocator@D@2@@std@@QBEXXZ 10004770 f i GameInterface.obj
 0001:00003790       ?erase@?$basic_string@DU?$char_traits@D@std@@V?$allocator@D@2@@std@@QAEAAV12@II@Z 10004790 f i GameInterface.obj
 0001:00003820       ?move@?$char_traits@D@std@@SAPADPADPBDI@Z 10004820 f i GameInterface.obj
 0001:00003840       ?max_size@?$basic_string@DU?$char_traits@D@std@@V?$allocator@D@2@@std@@QBEIXZ 10004840 f i GameInterface.obj
 0001:00003880       ?_Copy@?$basic_string@DU?$char_traits@D@std@@V?$allocator@D@2@@std@@QAEXII@Z 10004880 f i GameInterface.obj
 0001:00003a00       ?allocate@?$allocator@D@std@@QAEPADI@Z 10004a00 f i GameInterface.obj
 0001:00003a20       ?max_size@?$allocator@D@std@@QBEIXZ 10004a20 f i GameInterface.obj
 0001:00003a50       ??$_Allocate@D@std@@YAPADIPAD@Z 10004a50 f i GameInterface.obj
 0001:00003ab0       ??0bad_alloc@std@@QAE@ABV01@@Z 10004ab0 f i GameInterface.obj
 0001:00003ae0       ??0?$unordered_map@V?$basic_string@DU?$char_traits@D@std@@V?$allocator@D@2@@std@@P6AXH@ZV?$hash@V?$basic_string@DU?$char_traits@D@std@@V?$allocator@D@2@@std@@@2@U?$equal_to@V?$basic_string@DU?$char_traits@D@std@@V?$allocator@D@2@@std@@@2@V?$allocator@U?$pair@$$CBV?$basic_string@DU?$char_traits@D@std@@V?$allocator@D@2@@std@@P6AXH@Z@std@@@2@@tr1@std@@QAE@XZ 10004ae0 f i GameInterface.obj
 0001:00003b10       ??0?$_Hash@V?$_Umap_traits@V?$basic_string@DU?$char_traits@D@std@@V?$allocator@D@2@@std@@P6AXH@ZV?$_Hash_compare@V?$basic_string@DU?$char_traits@D@std@@V?$allocator@D@2@@std@@V?$hash@V?$basic_string@DU?$char_traits@D@std@@V?$allocator@D@2@@std@@@2@U?$equal_to@V?$basic_string@DU?$char_traits@D@std@@V?$allocator@D@2@@std@@@2@@2@V?$allocator@U?$pair@$$CBV?$basic_string@DU?$char_traits@D@std@@V?$allocator@D@2@@std@@P6AXH@Z@std@@@2@$0A@@tr1@std@@@std@@QAE@ABV?$_Hash_compare@V?$basic_string@DU?$char_traits@D@std@@V?$allocator@D@2@@std@@V?$hash@V?$basic_string@DU?$char_traits@D@std@@V?$allocator@D@2@@std@@@2@U?$equal_to@V?$basic_string@DU?$char_traits@D@std@@V?$allocator@D@2@@std@@@2@@1@ABV?$allocator@U?$pair@$$CBV?$basic_string@DU?$char_traits@D@std@@V?$allocator@D@2@@std@@P6AXH@Z@std@@@1@@Z 10004b10 f i GameInterface.obj
 0001:00003ba0       ??1?$list@U?$pair@$$CBV?$basic_string@DU?$char_traits@D@std@@V?$allocator@D@2@@std@@P6AXH@Z@std@@V?$allocator@U?$pair@$$CBV?$basic_string@DU?$char_traits@D@std@@V?$allocator@D@2@@std@@P6AXH@Z@std@@@2@@std@@QAE@XZ 10004ba0 f i GameInterface.obj
 0001:00003bf0       ??1?$vector@V?$_List_iterator@V?$_List_val@U?$pair@$$CBV?$basic_string@DU?$char_traits@D@std@@V?$allocator@D@2@@std@@P6AXH@Z@std@@V?$allocator@U?$pair@$$CBV?$basic_string@DU?$char_traits@D@std@@V?$allocator@D@2@@std@@P6AXH@Z@std@@@2@@std@@@std@@V?$allocator@V?$_List_iterator@V?$_List_val@U?$pair@$$CBV?$basic_string@DU?$char_traits@D@std@@V?$allocator@D@2@@std@@P6AXH@Z@std@@V?$allocator@U?$pair@$$CBV?$basic_string@DU?$char_traits@D@std@@V?$allocator@D@2@@std@@P6AXH@Z@std@@@2@@std@@@std@@@2@@std@@QAE@XZ 10004bf0 f i GameInterface.obj
 0001:00003c40       ??1?$_List_val@U?$pair@$$CB_KPAVCCallbackBase@@@std@@V?$allocator@U?$pair@$$CB_KPAVCCallbackBase@@@std@@@2@@std@@QAE@XZ 10004c40 f i SteamBase.obj
 0001:00003c40       ??1?$_List_val@U?$pair@$$CB_K_N@std@@V?$allocator@U?$pair@$$CB_K_N@std@@@2@@std@@QAE@XZ 10004c40 f i SteamBase.obj
 0001:00003c40       ??1?$_List_val@U?$pair@$$CBV?$basic_string@DU?$char_traits@D@std@@V?$allocator@D@2@@std@@PAUVehicleDef@@@std@@V?$allocator@U?$pair@$$CBV?$basic_string@DU?$char_traits@D@std@@V?$allocator@D@2@@std@@PAUVehicleDef@@@std@@@2@@std@@QAE@XZ 10004c40 f i PatchMW2LoadVehicleDef.obj
 0001:00003c40       ??1?$_List_val@U?$pair@$$CBK_N@std@@V?$allocator@U?$pair@$$CBK_N@std@@@2@@std@@QAE@XZ 10004c40 f i PatchMW2AssetRestrict.obj
 0001:00003c40       ??1?$_List_val@U?$pair@$$CBV?$basic_string@DU?$char_traits@D@std@@V?$allocator@D@2@@std@@P6AXH@Z@std@@V?$allocator@U?$pair@$$CBV?$basic_string@DU?$char_traits@D@std@@V?$allocator@D@2@@std@@P6AXH@Z@std@@@2@@std@@QAE@XZ 10004c40 f i GameInterface.obj
 0001:00003c40       ??1?$_List_val@U?$pair@$$CBV?$basic_string@DU?$char_traits@D@std@@V?$allocator@D@2@@std@@_N@std@@V?$allocator@U?$pair@$$CBV?$basic_string@DU?$char_traits@D@std@@V?$allocator@D@2@@std@@_N@std@@@2@@std@@QAE@XZ 10004c40 f i PatchMW2Experiments.obj
 0001:00003c60       ?_Tidy@?$vector@V?$_List_iterator@V?$_List_val@U?$pair@$$CBV?$basic_string@DU?$char_traits@D@std@@V?$allocator@D@2@@std@@PAUVehicleDef@@@std@@V?$allocator@U?$pair@$$CBV?$basic_string@DU?$char_traits@D@std@@V?$allocator@D@2@@std@@PAUVehicleDef@@@std@@@2@@std@@@std@@V?$allocator@V?$_List_iterator@V?$_List_val@U?$pair@$$CBV?$basic_string@DU?$char_traits@D@std@@V?$allocator@D@2@@std@@PAUVehicleDef@@@std@@V?$allocator@U?$pair@$$CBV?$basic_string@DU?$char_traits@D@std@@V?$allocator@D@2@@std@@PAUVehicleDef@@@std@@@2@@std@@@std@@@2@@std@@IAEXXZ 10004c60 f i PatchMW2LoadVehicleDef.obj
 0001:00003c60       ?_Tidy@?$vector@V?$_List_iterator@V?$_List_val@U?$pair@$$CBV?$basic_string@DU?$char_traits@D@std@@V?$allocator@D@2@@std@@P6AXH@Z@std@@V?$allocator@U?$pair@$$CBV?$basic_string@DU?$char_traits@D@std@@V?$allocator@D@2@@std@@P6AXH@Z@std@@@2@@std@@@std@@V?$allocator@V?$_List_iterator@V?$_List_val@U?$pair@$$CBV?$basic_string@DU?$char_traits@D@std@@V?$allocator@D@2@@std@@P6AXH@Z@std@@V?$allocator@U?$pair@$$CBV?$basic_string@DU?$char_traits@D@std@@V?$allocator@D@2@@std@@P6AXH@Z@std@@@2@@std@@@std@@@2@@std@@IAEXXZ 10004c60 f i GameInterface.obj
 0001:00003c60       ?_Tidy@?$vector@V?$_List_iterator@V?$_List_val@U?$pair@$$CB_K_N@std@@V?$allocator@U?$pair@$$CB_K_N@std@@@2@@std@@@std@@V?$allocator@V?$_List_iterator@V?$_List_val@U?$pair@$$CB_K_N@std@@V?$allocator@U?$pair@$$CB_K_N@std@@@2@@std@@@std@@@2@@std@@IAEXXZ 10004c60 f i SteamBase.obj
 0001:00003c60       ?_Tidy@?$vector@V?$_List_iterator@V?$_List_val@U?$pair@$$CB_KPAVCCallbackBase@@@std@@V?$allocator@U?$pair@$$CB_KPAVCCallbackBase@@@std@@@2@@std@@@std@@V?$allocator@V?$_List_iterator@V?$_List_val@U?$pair@$$CB_KPAVCCallbackBase@@@std@@V?$allocator@U?$pair@$$CB_KPAVCCallbackBase@@@std@@@2@@std@@@std@@@2@@std@@IAEXXZ 10004c60 f i SteamBase.obj
 0001:00003c60       ?_Tidy@?$vector@V?$_List_iterator@V?$_List_val@U?$pair@$$CBK_N@std@@V?$allocator@U?$pair@$$CBK_N@std@@@2@@std@@@std@@V?$allocator@V?$_List_iterator@V?$_List_val@U?$pair@$$CBK_N@std@@V?$allocator@U?$pair@$$CBK_N@std@@@2@@std@@@std@@@2@@std@@IAEXXZ 10004c60 f i PatchMW2AssetRestrict.obj
 0001:00003c60       ?_Tidy@?$vector@V?$_List_iterator@V?$_List_val@U?$pair@$$CBV?$basic_string@DU?$char_traits@D@std@@V?$allocator@D@2@@std@@_N@std@@V?$allocator@U?$pair@$$CBV?$basic_string@DU?$char_traits@D@std@@V?$allocator@D@2@@std@@_N@std@@@2@@std@@@std@@V?$allocator@V?$_List_iterator@V?$_List_val@U?$pair@$$CBV?$basic_string@DU?$char_traits@D@std@@V?$allocator@D@2@@std@@_N@std@@V?$allocator@U?$pair@$$CBV?$basic_string@DU?$char_traits@D@std@@V?$allocator@D@2@@std@@_N@std@@@2@@std@@@std@@@2@@std@@IAEXXZ 10004c60 f i PatchMW2Experiments.obj
 0001:00003cd0       ??1?$unordered_map@V?$basic_string@DU?$char_traits@D@std@@V?$allocator@D@2@@std@@P6AXH@ZV?$hash@V?$basic_string@DU?$char_traits@D@std@@V?$allocator@D@2@@std@@@2@U?$equal_to@V?$basic_string@DU?$char_traits@D@std@@V?$allocator@D@2@@std@@@2@V?$allocator@U?$pair@$$CBV?$basic_string@DU?$char_traits@D@std@@V?$allocator@D@2@@std@@P6AXH@Z@std@@@2@@tr1@std@@QAE@XZ 10004cd0 f i GameInterface.obj
 0001:00003cf0       ??1?$_Hash@V?$_Umap_traits@V?$basic_string@DU?$char_traits@D@std@@V?$allocator@D@2@@std@@P6AXH@ZV?$_Hash_compare@V?$basic_string@DU?$char_traits@D@std@@V?$allocator@D@2@@std@@V?$hash@V?$basic_string@DU?$char_traits@D@std@@V?$allocator@D@2@@std@@@2@U?$equal_to@V?$basic_string@DU?$char_traits@D@std@@V?$allocator@D@2@@std@@@2@@2@V?$allocator@U?$pair@$$CBV?$basic_string@DU?$char_traits@D@std@@V?$allocator@D@2@@std@@P6AXH@Z@std@@@2@$0A@@tr1@std@@@std@@QAE@XZ 10004cf0 f i GameInterface.obj
 0001:00003d40       ?HideCode_FindModuleHolding@@YAPAUHINSTANCE__@@K@Z 10004d40 f   hidecode.obj
 0001:00003d60       ?HideCode_FindFunction@@YAPAXPAUHINSTANCE__@@I@Z 10004d60 f   hidecode.obj
 0001:00003e40       ?HideCode_PatchFunction@@YAXPAUHINSTANCE__@@IPAX@Z 10004e40 f   hidecode.obj
 0001:00003f30       ?HideCode_FindString@@YAXIIPADI@Z 10004f30 f   hidecode.obj
 0001:00003fb0       ?HideCode_DoCreateFile@@YGPAXPBDKKPAU_SECURITY_ATTRIBUTES@@KKPAX@Z 10004fb0 f   hidecode.obj
 0001:00004150       ?HideCode_FindCreateFile@@YAXXZ 10005150 f   hidecode.obj
 0001:000041b0       ?HideCode_FindDeviceIoControl@@YAXXZ 100051b0 f   hidecode.obj
 0001:00004230       ?HideCode_FindModuleHoldingBase@@YAPAUHINSTANCE__@@K@Z 10005230 f i hidecode.obj
 0001:00004280       ?initialize@CallHook@@QAEXKPAX@Z 10005280 f   Hooking.obj
 0001:000042d0       ?installHook@CallHook@@QAEXPAX@Z 100052d0 f   Hooking.obj
 0001:00004310       ?releaseHook@CallHook@@QAEXXZ 10005310 f   Hooking.obj
 0001:00004340       ?initialize@StompHook@@QAEXKPAXE_N@Z 10005340 f   Hooking.obj
 0001:000043b0       ?installHook@StompHook@@QAEXPAX@Z 100053b0 f   Hooking.obj
 0001:00004430       ?releaseHook@StompHook@@QAEXXZ 10005430 f   Hooking.obj
 0001:00004460       ?HookInstall@@YAXKKH@Z     10005460 f   Hooking.obj
 0001:000044a0       ?_patch@@YAXPAXKK@Z        100054a0 f   Hooking.obj
 0001:000044e0       ?_nop@@YAXPAXK@Z           100054e0 f   Hooking.obj
 0001:00004570       ?_call@@YAXPAXKW4eCallPatcher@@@Z 10005570 f   Hooking.obj
 0001:000045b0       ?_charptr@@YAXPAXPBD@Z     100055b0 f   Hooking.obj
 0001:000045c0       ?HTTPService_Forbidden@@YAXPAUmg_connection@@@Z 100055c0 f   HTTPService.obj
 0001:000045e0       ?HTTPService_NotFound@@YAXPAUmg_connection@@@Z 100055e0 f   HTTPService.obj
 0001:00004600       ?HTTPService_HandleDownloadRequest@@YAXPAUmg_connection@@PBUmg_request_info@@@Z 10005600 f   HTTPService.obj
 0001:00004680       ?HTTPService_HandleEvent@@YAPAXW4mg_event@@PAUmg_connection@@PBUmg_request_info@@@Z 10005680 f   HTTPService.obj
 0001:00004750       ?HTTPService_Init@@YAXXZ   10005750 f   HTTPService.obj
 0001:000047e0       ?HTTPService_Shutdown@@YAXXZ 100057e0 f   HTTPService.obj
 0001:00004800       ?SetBits@@YAXAAKHHH@Z      10005800 f   hwbrk.obj
 0001:00004840       ?SetHardwareBreakpoint@@YAPAXPAXW4HWBRK_TYPE@@W4HWBRK_SIZE@@0@Z 10005840 f   hwbrk.obj
 0001:00004e50       ?RemoveHardwareBreakpoint@@YA_NPAX@Z 10005e50 f   hwbrk.obj
 0001:00004f30       ??0HWBRK@@QAE@XZ           10005f30 f i hwbrk.obj
 0001:00004f80       ?Main_UnprotectModule@@YAXPAUHINSTANCE__@@@Z 10005f80 f   Main.obj
 0001:00004fc0       ?Main_DoInit@@YAXXZ        10005fc0 f   Main.obj
 0001:00005050       ?Main_SetSafeInit@@YAXXZ   10006050 f   Main.obj
 0001:000050e0       ?allocc@@YGKPAX@Z          100060e0 f   Main.obj
 0001:00005100       _DllMain@12                10006100 f   Main.obj
 0001:00005130       ?CL_GetServerIPAddress@@YAPBDXZ 10006130 f   MW2.obj
 0001:000051b0       ?Cmd_ArgcSV@@YAHXZ         100061b0 f   MW2.obj
 0001:000051d0       ?Cmd_ArgvSV@@YAPADH@Z      100061d0 f   MW2.obj
 0001:00005210       ?SV_GetStatus@@YAXPAUsvstatus_t@@@Z 10006210 f   MW2.obj
 0001:000052b0       ?SV_IsClientIP@@YA_NI@Z    100062b0 f   MW2.obj
 0001:00005340       ?OOBPrintT@@YAXHUnetadr_t@@PBD@Z 10006340 f   MW2.obj
 0001:00005380       ?NET_OutOfBandPrint@@YAXHUnetadr_t@@PBDZZ 10006380 f   MW2.obj
 0001:000053f0       ?Party_NumPublicSlots@@YAHPAUparty_s@@@Z 100063f0 f   MW2.obj
 0001:00005410       ?Party_NumPublicSlots@@YAHXZ 10006410 f   MW2.obj
 0001:00005430       ?GetStringConvar@@YAPADPAD@Z 10006430 f   MW2.obj
 0001:00005460       ?getBlockedIps@@YA?AV?$vector@V?$basic_string@DU?$char_traits@D@std@@V?$allocator@D@2@@std@@V?$allocator@V?$basic_string@DU?$char_traits@D@std@@V?$allocator@D@2@@std@@@2@@std@@XZ 10006460 f   MW2.obj
 0001:00005490       ?banIP@@YAXV?$basic_string@DU?$char_traits@D@std@@V?$allocator@D@2@@std@@@Z 10006490 f   MW2.obj
 0001:000055b0       ??0?$vector@V?$basic_string@DU?$char_traits@D@std@@V?$allocator@D@2@@std@@V?$allocator@V?$basic_string@DU?$char_traits@D@std@@V?$allocator@D@2@@std@@@2@@std@@QAE@ABV01@@Z 100065b0 f i MW2.obj
 0001:000056a0       ?push_back@?$vector@V?$basic_string@DU?$char_traits@D@std@@V?$allocator@D@2@@std@@V?$allocator@V?$basic_string@DU?$char_traits@D@std@@V?$allocator@D@2@@std@@@2@@std@@QAEXABV?$basic_string@DU?$char_traits@D@std@@V?$allocator@D@2@@2@@Z 100066a0 f i MW2.obj
 0001:000057a0       ?begin@?$vector@V?$basic_string@DU?$char_traits@D@std@@V?$allocator@D@2@@std@@V?$allocator@V?$basic_string@DU?$char_traits@D@std@@V?$allocator@D@2@@std@@@2@@std@@QBE?AV?$_Vector_const_iterator@V?$_Vector_val@V?$basic_string@DU?$char_traits@D@std@@V?$allocator@D@2@@std@@V?$allocator@V?$basic_string@DU?$char_traits@D@std@@V?$allocator@D@2@@std@@@2@@std@@@2@XZ 100067a0 f i MW2.obj
 0001:000057d0       ?end@?$vector@V?$basic_string@DU?$char_traits@D@std@@V?$allocator@D@2@@std@@V?$allocator@V?$basic_string@DU?$char_traits@D@std@@V?$allocator@D@2@@std@@@2@@std@@QBE?AV?$_Vector_const_iterator@V?$_Vector_val@V?$basic_string@DU?$char_traits@D@std@@V?$allocator@D@2@@std@@V?$allocator@V?$basic_string@DU?$char_traits@D@std@@V?$allocator@D@2@@std@@@2@@std@@@2@XZ 100067d0 f i MW2.obj
 0001:00005800       ?size@?$vector@V?$basic_string@DU?$char_traits@D@std@@V?$allocator@D@2@@std@@V?$allocator@V?$basic_string@DU?$char_traits@D@std@@V?$allocator@D@2@@std@@@2@@std@@QBEIXZ 10006800 f i MW2.obj
 0001:00005820       ?_Buy@?$vector@V?$basic_string@DU?$char_traits@D@std@@V?$allocator@D@2@@std@@V?$allocator@V?$basic_string@DU?$char_traits@D@std@@V?$allocator@D@2@@std@@@2@@std@@IAE_NI@Z 10006820 f i MW2.obj
 0001:000058a0       ?_Reserve@?$vector@V?$basic_string@DU?$char_traits@D@std@@V?$allocator@D@2@@std@@V?$allocator@V?$basic_string@DU?$char_traits@D@std@@V?$allocator@D@2@@std@@@2@@std@@IAEXI@Z 100068a0 f i MW2.obj
 0001:00005910       ?_Tidy@?$vector@V?$basic_string@DU?$char_traits@D@std@@V?$allocator@D@2@@std@@V?$allocator@V?$basic_string@DU?$char_traits@D@std@@V?$allocator@D@2@@std@@@2@@std@@IAEXXZ 10006910 f i MW2.obj
 0001:00005990       ?reserve@?$vector@V?$basic_string@DU?$char_traits@D@std@@V?$allocator@D@2@@std@@V?$allocator@V?$basic_string@DU?$char_traits@D@std@@V?$allocator@D@2@@std@@@2@@std@@QAEXI@Z 10006990 f i MW2.obj
 0001:00005ae0       ?capacity@?$vector@V?$basic_string@DU?$char_traits@D@std@@V?$allocator@D@2@@std@@V?$allocator@V?$basic_string@DU?$char_traits@D@std@@V?$allocator@D@2@@std@@@2@@std@@QBEIXZ 10006ae0 f i MW2.obj
 0001:00005b00       ?max_size@?$vector@V?$basic_string@DU?$char_traits@D@std@@V?$allocator@D@2@@std@@V?$allocator@V?$basic_string@DU?$char_traits@D@std@@V?$allocator@D@2@@std@@@2@@std@@QBEIXZ 10006b00 f i MW2.obj
 0001:00005b20       ?_Destroy@?$vector@V?$basic_string@DU?$char_traits@D@std@@V?$allocator@D@2@@std@@V?$allocator@V?$basic_string@DU?$char_traits@D@std@@V?$allocator@D@2@@std@@@2@@std@@IAEXPAV?$basic_string@DU?$char_traits@D@std@@V?$allocator@D@2@@2@0@Z 10006b20 f i MW2.obj
 0001:00005b50       ?_Grow_to@?$vector@V?$basic_string@DU?$char_traits@D@std@@V?$allocator@D@2@@std@@V?$allocator@V?$basic_string@DU?$char_traits@D@std@@V?$allocator@D@2@@std@@@2@@std@@IBEII@Z 10006b50 f i MW2.obj
 0001:00005bb0       ?allocate@?$allocator@V?$basic_string@DU?$char_traits@D@std@@V?$allocator@D@2@@std@@@std@@QAEPAV?$basic_string@DU?$char_traits@D@std@@V?$allocator@D@2@@2@I@Z 10006bb0 f i MW2.obj
 0001:00005bd0       ?max_size@?$allocator@V?$basic_string@DU?$char_traits@D@std@@V?$allocator@D@2@@std@@@std@@QBEIXZ 10006bd0 f i MW2.obj
 0001:00005c00       ??$_Ucopy@V?$_Vector_const_iterator@V?$_Vector_val@V?$basic_string@DU?$char_traits@D@std@@V?$allocator@D@2@@std@@V?$allocator@V?$basic_string@DU?$char_traits@D@std@@V?$allocator@D@2@@std@@@2@@std@@@std@@@?$vector@V?$basic_string@DU?$char_traits@D@std@@V?$allocator@D@2@@std@@V?$allocator@V?$basic_string@DU?$char_traits@D@std@@V?$allocator@D@2@@std@@@2@@std@@IAEPAV?$basic_string@DU?$char_traits@D@std@@V?$allocator@D@2@@1@V?$_Vector_const_iterator@V?$_Vector_val@V?$basic_string@DU?$char_traits@D@std@@V?$allocator@D@2@@std@@V?$allocator@V?$basic_string@DU?$char_traits@D@std@@V?$allocator@D@2@@std@@@2@@std@@@1@0PAV21@@Z 10006c00 f i MW2.obj
 0001:00005c30       ??$_Cons_val@V?$allocator@V?$basic_string@DU?$char_traits@D@std@@V?$allocator@D@2@@std@@@std@@V?$basic_string@DU?$char_traits@D@std@@V?$allocator@D@2@@2@AAV32@@std@@YAXAAV?$allocator@V?$basic_string@DU?$char_traits@D@std@@V?$allocator@D@2@@std@@@0@PAV?$basic_string@DU?$char_traits@D@std@@V?$allocator@D@2@@0@AAV20@@Z 10006c30 f i MW2.obj
 0001:00005c50       ??$_Cons_val@V?$allocator@V?$basic_string@DU?$char_traits@D@std@@V?$allocator@D@2@@std@@@std@@V?$basic_string@DU?$char_traits@D@std@@V?$allocator@D@2@@2@ABV32@@std@@YAXAAV?$allocator@V?$basic_string@DU?$char_traits@D@std@@V?$allocator@D@2@@std@@@0@PAV?$basic_string@DU?$char_traits@D@std@@V?$allocator@D@2@@0@ABV20@@Z 10006c50 f i MW2.obj
 0001:00005c70       ??$_Umove@PAV?$basic_string@DU?$char_traits@D@std@@V?$allocator@D@2@@std@@@?$vector@V?$basic_string@DU?$char_traits@D@std@@V?$allocator@D@2@@std@@V?$allocator@V?$basic_string@DU?$char_traits@D@std@@V?$allocator@D@2@@std@@@2@@std@@IAEPAV?$basic_string@DU?$char_traits@D@std@@V?$allocator@D@2@@1@PAV21@00@Z 10006c70 f i MW2.obj
 0001:00005ca0       ??$_Destroy_range@V?$allocator@V?$basic_string@DU?$char_traits@D@std@@V?$allocator@D@2@@std@@@std@@@std@@YAXPAV?$basic_string@DU?$char_traits@D@std@@V?$allocator@D@2@@0@0AAV?$allocator@V?$basic_string@DU?$char_traits@D@std@@V?$allocator@D@2@@std@@@0@@Z 10006ca0 f i MW2.obj
 0001:00005ce0       ??$_Allocate@V?$basic_string@DU?$char_traits@D@std@@V?$allocator@D@2@@std@@@std@@YAPAV?$basic_string@DU?$char_traits@D@std@@V?$allocator@D@2@@0@IPAV10@@Z 10006ce0 f i MW2.obj
 0001:00005d40       ?construct@?$allocator@V?$basic_string@DU?$char_traits@D@std@@V?$allocator@D@2@@std@@@std@@QAEXPAV?$basic_string@DU?$char_traits@D@std@@V?$allocator@D@2@@2@ABV32@@Z 10006d40 f i MW2.obj
 0001:00005d60       ??$_Uninitialized_copy@V?$_Vector_const_iterator@V?$_Vector_val@V?$basic_string@DU?$char_traits@D@std@@V?$allocator@D@2@@std@@V?$allocator@V?$basic_string@DU?$char_traits@D@std@@V?$allocator@D@2@@std@@@2@@std@@@std@@PAV?$basic_string@DU?$char_traits@D@std@@V?$allocator@D@2@@2@V?$allocator@V?$basic_string@DU?$char_traits@D@std@@V?$allocator@D@2@@std@@@2@@std@@YAPAV?$basic_string@DU?$char_traits@D@std@@V?$allocator@D@2@@0@V?$_Vector_const_iterator@V?$_Vector_val@V?$basic_string@DU?$char_traits@D@std@@V?$allocator@D@2@@std@@V?$allocator@V?$basic_string@DU?$char_traits@D@std@@V?$allocator@D@2@@std@@@2@@std@@@0@0PAV10@AAV?$allocator@V?$basic_string@DU?$char_traits@D@std@@V?$allocator@D@2@@std@@@0@@Z 10006d60 f i MW2.obj
 0001:00005da0       ??$construct@AAV?$basic_string@DU?$char_traits@D@std@@V?$allocator@D@2@@std@@@?$allocator@V?$basic_string@DU?$char_traits@D@std@@V?$allocator@D@2@@std@@@std@@QAEXPAV?$basic_string@DU?$char_traits@D@std@@V?$allocator@D@2@@1@AAV21@@Z 10006da0 f i MW2.obj
 0001:00005e20       ??$_Uninitialized_move@PAV?$basic_string@DU?$char_traits@D@std@@V?$allocator@D@2@@std@@PAV12@V?$allocator@V?$basic_string@DU?$char_traits@D@std@@V?$allocator@D@2@@std@@@2@@std@@YAPAV?$basic_string@DU?$char_traits@D@std@@V?$allocator@D@2@@0@PAV10@00AAV?$allocator@V?$basic_string@DU?$char_traits@D@std@@V?$allocator@D@2@@std@@@0@@Z 10006e20 f i MW2.obj
 0001:00005e70       ??$_Destroy_range@V?$allocator@V?$basic_string@DU?$char_traits@D@std@@V?$allocator@D@2@@std@@@std@@@std@@YAXPAV?$basic_string@DU?$char_traits@D@std@@V?$allocator@D@2@@0@0AAV?$allocator@V?$basic_string@DU?$char_traits@D@std@@V?$allocator@D@2@@std@@@0@U_Nonscalar_ptr_iterator_tag@0@@Z 10006e70 f i MW2.obj
 0001:00005ea0       ??$_Construct@V?$basic_string@DU?$char_traits@D@std@@V?$allocator@D@2@@std@@ABV12@@std@@YAXPAV?$basic_string@DU?$char_traits@D@std@@V?$allocator@D@2@@0@ABV10@@Z 10006ea0 f i MW2.obj
 0001:00005f20       ??$_Uninit_copy@V?$_Vector_const_iterator@V?$_Vector_val@V?$basic_string@DU?$char_traits@D@std@@V?$allocator@D@2@@std@@V?$allocator@V?$basic_string@DU?$char_traits@D@std@@V?$allocator@D@2@@std@@@2@@std@@@std@@PAV?$basic_string@DU?$char_traits@D@std@@V?$allocator@D@2@@2@V?$allocator@V?$basic_string@DU?$char_traits@D@std@@V?$allocator@D@2@@std@@@2@@std@@YAPAV?$basic_string@DU?$char_traits@D@std@@V?$allocator@D@2@@0@V?$_Vector_const_iterator@V?$_Vector_val@V?$basic_string@DU?$char_traits@D@std@@V?$allocator@D@2@@std@@V?$allocator@V?$basic_string@DU?$char_traits@D@std@@V?$allocator@D@2@@std@@@2@@std@@@0@0PAV10@AAV?$allocator@V?$basic_string@DU?$char_traits@D@std@@V?$allocator@D@2@@std@@@0@U_Nonscalar_ptr_iterator_tag@0@@Z 10006f20 f i MW2.obj
 0001:00006000       ??$_Uninit_move@PAV?$basic_string@DU?$char_traits@D@std@@V?$allocator@D@2@@std@@PAV12@V?$allocator@V?$basic_string@DU?$char_traits@D@std@@V?$allocator@D@2@@std@@@2@V12@@std@@YAPAV?$basic_string@DU?$char_traits@D@std@@V?$allocator@D@2@@0@PAV10@00AAV?$allocator@V?$basic_string@DU?$char_traits@D@std@@V?$allocator@D@2@@std@@@0@0U_Nonscalar_ptr_iterator_tag@0@@Z 10007000 f i MW2.obj
 0001:000060c0       ??$_Dest_val@V?$allocator@V?$basic_string@DU?$char_traits@D@std@@V?$allocator@D@2@@std@@@std@@V?$basic_string@DU?$char_traits@D@std@@V?$allocator@D@2@@2@@std@@YAXAAV?$allocator@V?$basic_string@DU?$char_traits@D@std@@V?$allocator@D@2@@std@@@0@PAV?$basic_string@DU?$char_traits@D@std@@V?$allocator@D@2@@0@@Z 100070c0 f i MW2.obj
 0001:000060e0       ?destroy@?$allocator@V?$basic_string@DU?$char_traits@D@std@@V?$allocator@D@2@@std@@@std@@QAEXPAV?$basic_string@DU?$char_traits@D@std@@V?$allocator@D@2@@2@@Z 100070e0 f i MW2.obj
 0001:00006100       ??E?$_Vector_const_iterator@V?$_Vector_val@V?$basic_string@DU?$char_traits@D@std@@V?$allocator@D@2@@std@@V?$allocator@V?$basic_string@DU?$char_traits@D@std@@V?$allocator@D@2@@std@@@2@@std@@@std@@QAEAAV01@XZ 10007100 f i MW2.obj
 0001:00006120       ??9?$_Vector_const_iterator@V?$_Vector_val@V?$_List_iterator@V?$_List_val@U?$pair@$$CBV?$basic_string@DU?$char_traits@D@std@@V?$allocator@D@2@@std@@_N@std@@V?$allocator@U?$pair@$$CBV?$basic_string@DU?$char_traits@D@std@@V?$allocator@D@2@@std@@_N@std@@@2@@std@@@std@@V?$allocator@V?$_List_iterator@V?$_List_val@U?$pair@$$CBV?$basic_string@DU?$char_traits@D@std@@V?$allocator@D@2@@std@@_N@std@@V?$allocator@U?$pair@$$CBV?$basic_string@DU?$char_traits@D@std@@V?$allocator@D@2@@std@@_N@std@@@2@@std@@@std@@@2@@std@@@std@@QBE_NABV01@@Z 10007120 f i PatchMW2Experiments.obj
 0001:00006120       ??9?$_Vector_const_iterator@V?$_Vector_val@V?$basic_string@DU?$char_traits@D@std@@V?$allocator@D@2@@std@@V?$allocator@V?$basic_string@DU?$char_traits@D@std@@V?$allocator@D@2@@std@@@2@@std@@@std@@QBE_NABV01@@Z 10007120 f i MW2.obj
 0001:00006120       ??9?$_Vector_const_iterator@V?$_Vector_val@V?$_List_iterator@V?$_List_val@U?$pair@$$CBV?$basic_string@DU?$char_traits@D@std@@V?$allocator@D@2@@std@@P6AXH@Z@std@@V?$allocator@U?$pair@$$CBV?$basic_string@DU?$char_traits@D@std@@V?$allocator@D@2@@std@@P6AXH@Z@std@@@2@@std@@@std@@V?$allocator@V?$_List_iterator@V?$_List_val@U?$pair@$$CBV?$basic_string@DU?$char_traits@D@std@@V?$allocator@D@2@@std@@P6AXH@Z@std@@V?$allocator@U?$pair@$$CBV?$basic_string@DU?$char_traits@D@std@@V?$allocator@D@2@@std@@P6AXH@Z@std@@@2@@std@@@std@@@2@@std@@@std@@QBE_NABV01@@Z 10007120 f i GameInterface.obj
 0001:00006120       ??9?$_Vector_const_iterator@V?$_Vector_val@UServerStorageEntry@@V?$allocator@UServerStorageEntry@@@std@@@std@@@std@@QBE_NABV01@@Z 10007120 f i ServerStorage.obj
 0001:00006120       ??9?$_Vector_const_iterator@V?$_Vector_val@V?$_List_iterator@V?$_List_val@U?$pair@$$CB_KPAVCCallbackBase@@@std@@V?$allocator@U?$pair@$$CB_KPAVCCallbackBase@@@std@@@2@@std@@@std@@V?$allocator@V?$_List_iterator@V?$_List_val@U?$pair@$$CB_KPAVCCallbackBase@@@std@@V?$allocator@U?$pair@$$CB_KPAVCCallbackBase@@@std@@@2@@std@@@std@@@2@@std@@@std@@QBE_NABV01@@Z 10007120 f i SteamBase.obj
 0001:00006120       ??9?$_Vector_const_iterator@V?$_Vector_val@V?$_List_iterator@V?$_List_val@U?$pair@$$CB_K_N@std@@V?$allocator@U?$pair@$$CB_K_N@std@@@2@@std@@@std@@V?$allocator@V?$_List_iterator@V?$_List_val@U?$pair@$$CB_K_N@std@@V?$allocator@U?$pair@$$CB_K_N@std@@@2@@std@@@std@@@2@@std@@@std@@QBE_NABV01@@Z 10007120 f i SteamBase.obj
 0001:00006120       ??9?$_Vector_const_iterator@V?$_Vector_val@PAUmenuDef_t@@V?$allocator@PAUmenuDef_t@@@std@@@std@@@std@@QBE_NABV01@@Z 10007120 f i PatchMW2UILoading.obj
 0001:00006120       ??9?$_Vector_const_iterator@V?$_Vector_val@V?$_List_iterator@V?$_List_val@U?$pair@$$CBK_N@std@@V?$allocator@U?$pair@$$CBK_N@std@@@2@@std@@@std@@V?$allocator@V?$_List_iterator@V?$_List_val@U?$pair@$$CBK_N@std@@V?$allocator@U?$pair@$$CBK_N@std@@@2@@std@@@std@@@2@@std@@@std@@QBE_NABV01@@Z 10007120 f i PatchMW2AssetRestrict.obj
 0001:00006120       ??9?$_String_const_iterator@DU?$char_traits@D@std@@V?$allocator@D@2@@std@@QBE_NABV01@@Z 10007120 f i PatchMW2Packet.obj
 0001:00006120       ??9?$_Vector_const_iterator@V?$_Vector_val@V?$_List_iterator@V?$_List_val@U?$pair@$$CBV?$basic_string@DU?$char_traits@D@std@@V?$allocator@D@2@@std@@PAUVehicleDef@@@std@@V?$allocator@U?$pair@$$CBV?$basic_string@DU?$char_traits@D@std@@V?$allocator@D@2@@std@@PAUVehicleDef@@@std@@@2@@std@@@std@@V?$allocator@V?$_List_iterator@V?$_List_val@U?$pair@$$CBV?$basic_string@DU?$char_traits@D@std@@V?$allocator@D@2@@std@@PAUVehicleDef@@@std@@V?$allocator@U?$pair@$$CBV?$basic_string@DU?$char_traits@D@std@@V?$allocator@D@2@@std@@PAUVehicleDef@@@std@@@2@@std@@@std@@@2@@std@@@std@@QBE_NABV01@@Z 10007120 f i PatchMW2LoadVehicleDef.obj
 0001:00006120       ??9?$_Vector_const_iterator@V?$_Vector_val@HV?$allocator@H@std@@@std@@@std@@QBE_NABV01@@Z 10007120 f i Script.obj
 0001:00006120       ??9?$_Vector_const_iterator@V?$_Vector_val@USteamAPIResult_s@@V?$allocator@USteamAPIResult_s@@@std@@@std@@@std@@QBE_NABV01@@Z 10007120 f i SteamBase.obj
 0001:00006150       ??8?$_String_const_iterator@DU?$char_traits@D@std@@V?$allocator@D@2@@std@@QBE_NABV01@@Z 10007150 f i PatchMW2Packet.obj
 0001:00006150       ??8?$_Vector_const_iterator@V?$_Vector_val@V?$_List_iterator@V?$_List_val@U?$pair@$$CBV?$basic_string@DU?$char_traits@D@std@@V?$allocator@D@2@@std@@PAUVehicleDef@@@std@@V?$allocator@U?$pair@$$CBV?$basic_string@DU?$char_traits@D@std@@V?$allocator@D@2@@std@@PAUVehicleDef@@@std@@@2@@std@@@std@@V?$allocator@V?$_List_iterator@V?$_List_val@U?$pair@$$CBV?$basic_string@DU?$char_traits@D@std@@V?$allocator@D@2@@std@@PAUVehicleDef@@@std@@V?$allocator@U?$pair@$$CBV?$basic_string@DU?$char_traits@D@std@@V?$allocator@D@2@@std@@PAUVehicleDef@@@std@@@2@@std@@@std@@@2@@std@@@std@@QBE_NABV01@@Z 10007150 f i PatchMW2LoadVehicleDef.obj
 0001:00006150       ??8?$_Vector_const_iterator@V?$_Vector_val@HV?$allocator@H@std@@@std@@@std@@QBE_NABV01@@Z 10007150 f i Script.obj
 0001:00006150       ??8?$_Vector_const_iterator@V?$_Vector_val@V?$_List_iterator@V?$_List_val@U?$pair@$$CBV?$basic_string@DU?$char_traits@D@std@@V?$allocator@D@2@@std@@P6AXH@Z@std@@V?$allocator@U?$pair@$$CBV?$basic_string@DU?$char_traits@D@std@@V?$allocator@D@2@@std@@P6AXH@Z@std@@@2@@std@@@std@@V?$allocator@V?$_List_iterator@V?$_List_val@U?$pair@$$CBV?$basic_string@DU?$char_traits@D@std@@V?$allocator@D@2@@std@@P6AXH@Z@std@@V?$allocator@U?$pair@$$CBV?$basic_string@DU?$char_traits@D@std@@V?$allocator@D@2@@std@@P6AXH@Z@std@@@2@@std@@@std@@@2@@std@@@std@@QBE_NABV01@@Z 10007150 f i GameInterface.obj
 0001:00006150       ??8?$_Vector_const_iterator@V?$_Vector_val@V?$_List_iterator@V?$_List_val@U?$pair@$$CBV?$basic_string@DU?$char_traits@D@std@@V?$allocator@D@2@@std@@_N@std@@V?$allocator@U?$pair@$$CBV?$basic_string@DU?$char_traits@D@std@@V?$allocator@D@2@@std@@_N@std@@@2@@std@@@std@@V?$allocator@V?$_List_iterator@V?$_List_val@U?$pair@$$CBV?$basic_string@DU?$char_traits@D@std@@V?$allocator@D@2@@std@@_N@std@@V?$allocator@U?$pair@$$CBV?$basic_string@DU?$char_traits@D@std@@V?$allocator@D@2@@std@@_N@std@@@2@@std@@@std@@@2@@std@@@std@@QBE_NABV01@@Z 10007150 f i PatchMW2Experiments.obj
 0001:00006150       ??8?$_Vector_const_iterator@V?$_Vector_val@V?$_List_iterator@V?$_List_val@U?$pair@$$CB_KPAVCCallbackBase@@@std@@V?$allocator@U?$pair@$$CB_KPAVCCallbackBase@@@std@@@2@@std@@@std@@V?$allocator@V?$_List_iterator@V?$_List_val@U?$pair@$$CB_KPAVCCallbackBase@@@std@@V?$allocator@U?$pair@$$CB_KPAVCCallbackBase@@@std@@@2@@std@@@std@@@2@@std@@@std@@QBE_NABV01@@Z 10007150 f i SteamBase.obj
 0001:00006150       ??8?$_Vector_const_iterator@V?$_Vector_val@V?$basic_string@DU?$char_traits@D@std@@V?$allocator@D@2@@std@@V?$allocator@V?$basic_string@DU?$char_traits@D@std@@V?$allocator@D@2@@std@@@2@@std@@@std@@QBE_NABV01@@Z 10007150 f i MW2.obj
 0001:00006150       ??8?$_Vector_const_iterator@V?$_Vector_val@USteamAPIResult_s@@V?$allocator@USteamAPIResult_s@@@std@@@std@@@std@@QBE_NABV01@@Z 10007150 f i SteamBase.obj
 0001:00006150       ??8?$_Vector_const_iterator@V?$_Vector_val@PAUmenuDef_t@@V?$allocator@PAUmenuDef_t@@@std@@@std@@@std@@QBE_NABV01@@Z 10007150 f i PatchMW2UILoading.obj
 0001:00006150       ??8?$_Vector_const_iterator@V?$_Vector_val@UServerStorageEntry@@V?$allocator@UServerStorageEntry@@@std@@@std@@@std@@QBE_NABV01@@Z 10007150 f i ServerStorage.obj
 0001:00006150       ??8?$_Vector_const_iterator@V?$_Vector_val@V?$_List_iterator@V?$_List_val@U?$pair@$$CB_K_N@std@@V?$allocator@U?$pair@$$CB_K_N@std@@@2@@std@@@std@@V?$allocator@V?$_List_iterator@V?$_List_val@U?$pair@$$CB_K_N@std@@V?$allocator@U?$pair@$$CB_K_N@std@@@2@@std@@@std@@@2@@std@@@std@@QBE_NABV01@@Z 10007150 f i SteamBase.obj
 0001:00006150       ??8?$_Vector_const_iterator@V?$_Vector_val@V?$_List_iterator@V?$_List_val@U?$pair@$$CBK_N@std@@V?$allocator@U?$pair@$$CBK_N@std@@@2@@std@@@std@@V?$allocator@V?$_List_iterator@V?$_List_val@U?$pair@$$CBK_N@std@@V?$allocator@U?$pair@$$CBK_N@std@@@2@@std@@@std@@@2@@std@@@std@@QBE_NABV01@@Z 10007150 f i PatchMW2AssetRestrict.obj
 0001:00006180       ??$_Cons_val@V?$allocator@V?$basic_string@DU?$char_traits@D@std@@V?$allocator@D@2@@std@@@std@@V?$basic_string@DU?$char_traits@D@std@@V?$allocator@D@2@@2@V32@@std@@YAXAAV?$allocator@V?$basic_string@DU?$char_traits@D@std@@V?$allocator@D@2@@std@@@0@PAV?$basic_string@DU?$char_traits@D@std@@V?$allocator@D@2@@0@$$QAV20@@Z 10007180 f i MW2.obj
 0001:000061a0       ??$_Destroy@V?$basic_string@DU?$char_traits@D@std@@V?$allocator@D@2@@std@@@std@@YAXPAV?$basic_string@DU?$char_traits@D@std@@V?$allocator@D@2@@0@@Z 100071a0 f i MW2.obj
 0001:000061b0       ??_G?$basic_string@DU?$char_traits@D@std@@V?$allocator@D@2@@std@@QAEPAXI@Z 100071b0 f i MW2.obj
 0001:000061e0       ?construct@?$allocator@V?$basic_string@DU?$char_traits@D@std@@V?$allocator@D@2@@std@@@std@@QAEXPAV?$basic_string@DU?$char_traits@D@std@@V?$allocator@D@2@@2@$$QAV32@@Z 100071e0 f i MW2.obj
 0001:00006260       ?StringCbPrintfA@@YAJPADIPBDZZ 10007260 f i MW2.obj
 0001:000062c0       ??0?$basic_string@DU?$char_traits@D@std@@V?$allocator@D@2@@std@@QAE@$$QAV01@@Z 100072c0 f i MW2.obj
 0001:00006340       ?assign@?$basic_string@DU?$char_traits@D@std@@V?$allocator@D@2@@std@@QAEAAV12@$$QAV12@@Z 10007340 f i MW2.obj
 0001:00006410       ??4?$basic_string@DU?$char_traits@D@std@@V?$allocator@D@2@@std@@QAEAAV01@ABV01@@Z 10007410 f i MW2.obj
 0001:00006430       ?get_allocator@?$basic_string@DU?$char_traits@D@std@@V?$allocator@D@2@@std@@QBE?AV?$allocator@D@2@XZ 10007430 f i MW2.obj
 0001:00006450       ?assign@?$basic_string@DU?$char_traits@D@std@@V?$allocator@D@2@@std@@QAEAAV12@ABV12@@Z 10007450 f i MW2.obj
 0001:00006480       ??$?9DD@std@@YA_NABV?$allocator@D@0@0@Z 10007480 f i MW2.obj
 0001:00006480       ??$?9PAUmenuDef_t@@PAU0@@std@@YA_NABV?$allocator@PAUmenuDef_t@@@0@0@Z 10007480 f i PatchMW2UILoading.obj
 0001:00006480       ??$?9Udownload_s@@U0@@std@@YA_NABV?$allocator@Udownload_s@@@0@0@Z 10007480 f i PatchMW2DownloadCL.obj
 0001:000064a0       ??0?$vector@PAUMaterial@@V?$allocator@PAUMaterial@@@std@@@std@@QAE@XZ 100074a0 f i PatchMW2WeaponCamos.obj
 0001:000064a0       ??0?$vector@PAUchallengeState_t@@V?$allocator@PAUchallengeState_t@@@std@@@std@@QAE@XZ 100074a0 f i PatchMW2PreAuthenticate.obj
 0001:000064a0       ??0?$vector@UUIScript_t@@V?$allocator@UUIScript_t@@@std@@@std@@QAE@XZ 100074a0 f i PatchMW2UIScripts.obj
 0001:000064a0       ??0?$vector@Unetadr_t@@V?$allocator@Unetadr_t@@@std@@@std@@QAE@XZ 100074a0 f i PatchMW2Redirect.obj
 0001:000064a0       ??0?$vector@PAUmenuDef_t@@V?$allocator@PAUmenuDef_t@@@std@@@std@@QAE@XZ 100074a0 f i PatchMW2UILoading.obj
 0001:000064a0       ??0?$vector@USteamAPIResult_s@@V?$allocator@USteamAPIResult_s@@@std@@@std@@QAE@XZ 100074a0 f i SteamBase.obj
 0001:000064a0       ??0?$vector@PAVCCallbackBase@@V?$allocator@PAVCCallbackBase@@@std@@@std@@QAE@XZ 100074a0 f i SteamBase.obj
 0001:000064a0       ??0?$vector@Ugscr_file_t@@V?$allocator@Ugscr_file_t@@@std@@@std@@QAE@XZ 100074a0 f i Script.obj
 0001:000064a0       ??0?$vector@UUIClickHandler_t@@V?$allocator@UUIClickHandler_t@@@std@@@std@@QAE@XZ 100074a0 f i PatchMW2UIScripts.obj
 0001:000064a0       ??0?$vector@UServerStorageEntry@@V?$allocator@UServerStorageEntry@@@std@@@std@@QAE@XZ 100074a0 f i ServerStorage.obj
 0001:000064a0       ??0?$vector@USteamInterface2_s@@V?$allocator@USteamInterface2_s@@@std@@@std@@QAE@XZ 100074a0 f i SteamBase.obj
 0001:000064a0       ??0?$vector@HV?$allocator@H@std@@@std@@QAE@XZ 100074a0 f i Script.obj
 0001:000064a0       ??0?$vector@UUIFeeder_t@@V?$allocator@UUIFeeder_t@@@std@@@std@@QAE@XZ 100074a0 f i PatchMW2UIScripts.obj
 0001:000064a0       ??0?$vector@V?$basic_string@DU?$char_traits@D@std@@V?$allocator@D@2@@std@@V?$allocator@V?$basic_string@DU?$char_traits@D@std@@V?$allocator@D@2@@std@@@2@@std@@QAE@XZ 100074a0 f i MW2.obj
 0001:000064d0       ??1?$vector@V?$basic_string@DU?$char_traits@D@std@@V?$allocator@D@2@@std@@V?$allocator@V?$basic_string@DU?$char_traits@D@std@@V?$allocator@D@2@@std@@@2@@std@@QAE@XZ 100074d0 f i MW2.obj
 0001:00006520       ??0myIDirect3D9@@QAE@PAUIDirect3D9Ex@@@Z 10007520 f   myIDirect3D9.obj
 0001:00006550       ??1myIDirect3D9@@UAE@XZ    10007550 f   myIDirect3D9.obj
 0001:00006570       ?QueryInterface@myIDirect3D9@@UAGJABU_GUID@@PAPAX@Z 10007570 f   myIDirect3D9.obj
 0001:000065c0       ?AddRef@myIDirect3D9@@UAGKXZ 100075c0 f   myIDirect3D9.obj
 0001:000065e0       ?Release@myIDirect3D9@@UAGKXZ 100075e0 f   myIDirect3D9.obj
 0001:00006650       ?RegisterSoftwareDevice@myIDirect3D9@@UAGJPAX@Z 10007650 f   myIDirect3D9.obj
 0001:00006670       ?GetAdapterCount@myIDirect3D9@@UAGIXZ 10007670 f   myIDirect3D9.obj
 0001:00006690       ?GetAdapterIdentifier@myIDirect3D9@@UAGJIKPAU_D3DADAPTER_IDENTIFIER9@@@Z 10007690 f   myIDirect3D9.obj
 0001:000066c0       ?GetAdapterModeCount@myIDirect3D9@@UAGIIW4_D3DFORMAT@@@Z 100076c0 f   myIDirect3D9.obj
 0001:000066f0       ?EnumAdapterModes@myIDirect3D9@@UAGJIW4_D3DFORMAT@@IPAU_D3DDISPLAYMODE@@@Z 100076f0 f   myIDirect3D9.obj
 0001:00006720       ?GetAdapterDisplayMode@myIDirect3D9@@UAGJIPAU_D3DDISPLAYMODE@@@Z 10007720 f   myIDirect3D9.obj
 0001:00006750       ?CheckDeviceType@myIDirect3D9@@UAGJIW4_D3DDEVTYPE@@W4_D3DFORMAT@@1H@Z 10007750 f   myIDirect3D9.obj
 0001:00006780       ?CheckDeviceFormat@myIDirect3D9@@UAGJIW4_D3DDEVTYPE@@W4_D3DFORMAT@@KW4_D3DRESOURCETYPE@@1@Z 10007780 f   myIDirect3D9.obj
 0001:000067c0       ?CheckDeviceMultiSampleType@myIDirect3D9@@UAGJIW4_D3DDEVTYPE@@W4_D3DFORMAT@@HW4_D3DMULTISAMPLE_TYPE@@PAK@Z 100077c0 f   myIDirect3D9.obj
 0001:00006800       ?CheckDepthStencilMatch@myIDirect3D9@@UAGJIW4_D3DDEVTYPE@@W4_D3DFORMAT@@11@Z 10007800 f   myIDirect3D9.obj
 0001:00006830       ?CheckDeviceFormatConversion@myIDirect3D9@@UAGJIW4_D3DDEVTYPE@@W4_D3DFORMAT@@1@Z 10007830 f   myIDirect3D9.obj
 0001:00006860       ?GetDeviceCaps@myIDirect3D9@@UAGJIW4_D3DDEVTYPE@@PAU_D3DCAPS9@@@Z 10007860 f   myIDirect3D9.obj
 0001:00006890       ?GetAdapterMonitor@myIDirect3D9@@UAGPAUHMONITOR__@@I@Z 10007890 f   myIDirect3D9.obj
 0001:000068b0       ?CreateDevice@myIDirect3D9@@UAGJIW4_D3DDEVTYPE@@PAUHWND__@@KPAU_D3DPRESENT_PARAMETERS_@@PAPAUIDirect3DDevice9@@@Z 100078b0 f   myIDirect3D9.obj
 0001:000069a0       ??_GmyIDirect3D9@@UAEPAXI@Z 100079a0 f i myIDirect3D9.obj
 0001:000069a0       ??_EmyIDirect3D9@@UAEPAXI@Z 100079a0 f i myIDirect3D9.obj
 0001:000069d0       ??0myIDirect3DDevice9@@QAE@PAUIDirect3DDevice9@@@Z 100079d0 f   myIDirect3DDevice9.obj
 0001:00006a00       ??1myIDirect3DDevice9@@UAE@XZ 10007a00 f   myIDirect3DDevice9.obj
 0001:00006a20       ?QueryInterface@myIDirect3DDevice9@@UAGJABU_GUID@@PAPAX@Z 10007a20 f   myIDirect3DDevice9.obj
 0001:00006a70       ?AddRef@myIDirect3DDevice9@@UAGKXZ 10007a70 f   myIDirect3DDevice9.obj
 0001:00006a90       ?Release@myIDirect3DDevice9@@UAGKXZ 10007a90 f   myIDirect3DDevice9.obj
 0001:00006af0       ?TestCooperativeLevel@myIDirect3DDevice9@@UAGJXZ 10007af0 f   myIDirect3DDevice9.obj
 0001:00006b10       ?GetAvailableTextureMem@myIDirect3DDevice9@@UAGIXZ 10007b10 f   myIDirect3DDevice9.obj
 0001:00006b30       ?EvictManagedResources@myIDirect3DDevice9@@UAGJXZ 10007b30 f   myIDirect3DDevice9.obj
 0001:00006b50       ?GetDirect3D@myIDirect3DDevice9@@UAGJPAPAUIDirect3D9@@@Z 10007b50 f   myIDirect3DDevice9.obj
 0001:00006b70       ?GetDeviceCaps@myIDirect3DDevice9@@UAGJPAU_D3DCAPS9@@@Z 10007b70 f   myIDirect3DDevice9.obj
 0001:00006b90       ?GetDisplayMode@myIDirect3DDevice9@@UAGJIPAU_D3DDISPLAYMODE@@@Z 10007b90 f   myIDirect3DDevice9.obj
 0001:00006bc0       ?GetCreationParameters@myIDirect3DDevice9@@UAGJPAU_D3DDEVICE_CREATION_PARAMETERS@@@Z 10007bc0 f   myIDirect3DDevice9.obj
 0001:00006be0       ?SetCursorProperties@myIDirect3DDevice9@@UAGJIIPAUIDirect3DSurface9@@@Z 10007be0 f   myIDirect3DDevice9.obj
 0001:00006c10       ?SetCursorPosition@myIDirect3DDevice9@@UAGXHHK@Z 10007c10 f   myIDirect3DDevice9.obj
 0001:00006c40       ?ShowCursor@myIDirect3DDevice9@@UAGHH@Z 10007c40 f   myIDirect3DDevice9.obj
 0001:00006c60       ?CreateAdditionalSwapChain@myIDirect3DDevice9@@UAGJPAU_D3DPRESENT_PARAMETERS_@@PAPAUIDirect3DSwapChain9@@@Z 10007c60 f   myIDirect3DDevice9.obj
 0001:00006c90       ?GetSwapChain@myIDirect3DDevice9@@UAGJIPAPAUIDirect3DSwapChain9@@@Z 10007c90 f   myIDirect3DDevice9.obj
 0001:00006cc0       ?GetNumberOfSwapChains@myIDirect3DDevice9@@UAGIXZ 10007cc0 f   myIDirect3DDevice9.obj
 0001:00006ce0       ?Reset@myIDirect3DDevice9@@UAGJPAU_D3DPRESENT_PARAMETERS_@@@Z 10007ce0 f   myIDirect3DDevice9.obj
 0001:00006d10       ?Present@myIDirect3DDevice9@@UAGJPBUtagRECT@@0PAUHWND__@@PBU_RGNDATA@@@Z 10007d10 f   myIDirect3DDevice9.obj
 0001:00006d50       ?GetBackBuffer@myIDirect3DDevice9@@UAGJIIW4_D3DBACKBUFFER_TYPE@@PAPAUIDirect3DSurface9@@@Z 10007d50 f   myIDirect3DDevice9.obj
 0001:00006d80       ?GetRasterStatus@myIDirect3DDevice9@@UAGJIPAU_D3DRASTER_STATUS@@@Z 10007d80 f   myIDirect3DDevice9.obj
 0001:00006db0       ?SetDialogBoxMode@myIDirect3DDevice9@@UAGJH@Z 10007db0 f   myIDirect3DDevice9.obj
 0001:00006dd0       ?SetGammaRamp@myIDirect3DDevice9@@UAGXIKPBU_D3DGAMMARAMP@@@Z 10007dd0 f   myIDirect3DDevice9.obj
 0001:00006e00       ?GetGammaRamp@myIDirect3DDevice9@@UAGXIPAU_D3DGAMMARAMP@@@Z 10007e00 f   myIDirect3DDevice9.obj
 0001:00006e30       ?CreateTexture@myIDirect3DDevice9@@UAGJIIIKW4_D3DFORMAT@@W4_D3DPOOL@@PAPAUIDirect3DTexture9@@PAPAX@Z 10007e30 f   myIDirect3DDevice9.obj
 0001:00006e90       ?CreateVolumeTexture@myIDirect3DDevice9@@UAGJIIIIKW4_D3DFORMAT@@W4_D3DPOOL@@PAPAUIDirect3DVolumeTexture9@@PAPAX@Z 10007e90 f   myIDirect3DDevice9.obj
 0001:00006ef0       ?CreateCubeTexture@myIDirect3DDevice9@@UAGJIIKW4_D3DFORMAT@@W4_D3DPOOL@@PAPAUIDirect3DCubeTexture9@@PAPAX@Z 10007ef0 f   myIDirect3DDevice9.obj
 0001:00006f40       ?CreateVertexBuffer@myIDirect3DDevice9@@UAGJIKKW4_D3DPOOL@@PAPAUIDirect3DVertexBuffer9@@PAPAX@Z 10007f40 f   myIDirect3DDevice9.obj
 0001:00006f90       ?CreateIndexBuffer@myIDirect3DDevice9@@UAGJIKW4_D3DFORMAT@@W4_D3DPOOL@@PAPAUIDirect3DIndexBuffer9@@PAPAX@Z 10007f90 f   myIDirect3DDevice9.obj
 0001:00006fe0       ?CreateRenderTarget@myIDirect3DDevice9@@UAGJIIW4_D3DFORMAT@@W4_D3DMULTISAMPLE_TYPE@@KHPAPAUIDirect3DSurface9@@PAPAX@Z 10007fe0 f   myIDirect3DDevice9.obj
 0001:00007020       ?CreateDepthStencilSurface@myIDirect3DDevice9@@UAGJIIW4_D3DFORMAT@@W4_D3DMULTISAMPLE_TYPE@@KHPAPAUIDirect3DSurface9@@PAPAX@Z 10008020 f   myIDirect3DDevice9.obj
 0001:00007060       ?UpdateSurface@myIDirect3DDevice9@@UAGJPAUIDirect3DSurface9@@PBUtagRECT@@0PBUtagPOINT@@@Z 10008060 f   myIDirect3DDevice9.obj
 0001:00007090       ?UpdateTexture@myIDirect3DDevice9@@UAGJPAUIDirect3DBaseTexture9@@0@Z 10008090 f   myIDirect3DDevice9.obj
 0001:000070c0       ?GetRenderTargetData@myIDirect3DDevice9@@UAGJPAUIDirect3DSurface9@@0@Z 100080c0 f   myIDirect3DDevice9.obj
 0001:000070f0       ?GetFrontBufferData@myIDirect3DDevice9@@UAGJIPAUIDirect3DSurface9@@@Z 100080f0 f   myIDirect3DDevice9.obj
 0001:00007120       ?StretchRect@myIDirect3DDevice9@@UAGJPAUIDirect3DSurface9@@PBUtagRECT@@01W4_D3DTEXTUREFILTERTYPE@@@Z 10008120 f   myIDirect3DDevice9.obj
 0001:00007160       ?ColorFill@myIDirect3DDevice9@@UAGJPAUIDirect3DSurface9@@PBUtagRECT@@K@Z 10008160 f   myIDirect3DDevice9.obj
 0001:00007190       ?CreateOffscreenPlainSurface@myIDirect3DDevice9@@UAGJIIW4_D3DFORMAT@@W4_D3DPOOL@@PAPAUIDirect3DSurface9@@PAPAX@Z 10008190 f   myIDirect3DDevice9.obj
 0001:000071e0       ?SetRenderTarget@myIDirect3DDevice9@@UAGJKPAUIDirect3DSurface9@@@Z 100081e0 f   myIDirect3DDevice9.obj
 0001:00007210       ?GetRenderTarget@myIDirect3DDevice9@@UAGJKPAPAUIDirect3DSurface9@@@Z 10008210 f   myIDirect3DDevice9.obj
 0001:00007240       ?SetDepthStencilSurface@myIDirect3DDevice9@@UAGJPAUIDirect3DSurface9@@@Z 10008240 f   myIDirect3DDevice9.obj
 0001:00007270       ?GetDepthStencilSurface@myIDirect3DDevice9@@UAGJPAPAUIDirect3DSurface9@@@Z 10008270 f   myIDirect3DDevice9.obj
 0001:000072a0       ?BeginScene@myIDirect3DDevice9@@UAGJXZ 100082a0 f   myIDirect3DDevice9.obj
 0001:00007310       ?EndScene@myIDirect3DDevice9@@UAGJXZ 10008310 f   myIDirect3DDevice9.obj
 0001:00007360       ?Clear@myIDirect3DDevice9@@UAGJKPBU_D3DRECT@@KKMK@Z 10008360 f   myIDirect3DDevice9.obj
 0001:000073c0       ?SetTransform@myIDirect3DDevice9@@UAGJW4_D3DTRANSFORMSTATETYPE@@PBU_D3DMATRIX@@@Z 100083c0 f   myIDirect3DDevice9.obj
 0001:000073f0       ?GetTransform@myIDirect3DDevice9@@UAGJW4_D3DTRANSFORMSTATETYPE@@PAU_D3DMATRIX@@@Z 100083f0 f   myIDirect3DDevice9.obj
 0001:00007420       ?MultiplyTransform@myIDirect3DDevice9@@UAGJW4_D3DTRANSFORMSTATETYPE@@PBU_D3DMATRIX@@@Z 10008420 f   myIDirect3DDevice9.obj
 0001:00007450       ?SetViewport@myIDirect3DDevice9@@UAGJPBU_D3DVIEWPORT9@@@Z 10008450 f   myIDirect3DDevice9.obj
 0001:00007480       ?GetViewport@myIDirect3DDevice9@@UAGJPAU_D3DVIEWPORT9@@@Z 10008480 f   myIDirect3DDevice9.obj
 0001:000074b0       ?SetMaterial@myIDirect3DDevice9@@UAGJPBU_D3DMATERIAL9@@@Z 100084b0 f   myIDirect3DDevice9.obj
 0001:000074e0       ?GetMaterial@myIDirect3DDevice9@@UAGJPAU_D3DMATERIAL9@@@Z 100084e0 f   myIDirect3DDevice9.obj
 0001:00007510       ?SetLight@myIDirect3DDevice9@@UAGJKPBU_D3DLIGHT9@@@Z 10008510 f   myIDirect3DDevice9.obj
 0001:00007540       ?GetLight@myIDirect3DDevice9@@UAGJKPAU_D3DLIGHT9@@@Z 10008540 f   myIDirect3DDevice9.obj
 0001:00007570       ?LightEnable@myIDirect3DDevice9@@UAGJKH@Z 10008570 f   myIDirect3DDevice9.obj
 0001:000075a0       ?GetLightEnable@myIDirect3DDevice9@@UAGJKPAH@Z 100085a0 f   myIDirect3DDevice9.obj
 0001:000075d0       ?SetClipPlane@myIDirect3DDevice9@@UAGJKPBM@Z 100085d0 f   myIDirect3DDevice9.obj
 0001:00007600       ?GetClipPlane@myIDirect3DDevice9@@UAGJKPAM@Z 10008600 f   myIDirect3DDevice9.obj
 0001:00007630       ?SetRenderState@myIDirect3DDevice9@@UAGJW4_D3DRENDERSTATETYPE@@K@Z 10008630 f   myIDirect3DDevice9.obj
 0001:00007660       ?GetRenderState@myIDirect3DDevice9@@UAGJW4_D3DRENDERSTATETYPE@@PAK@Z 10008660 f   myIDirect3DDevice9.obj
 0001:00007690       ?CreateStateBlock@myIDirect3DDevice9@@UAGJW4_D3DSTATEBLOCKTYPE@@PAPAUIDirect3DStateBlock9@@@Z 10008690 f   myIDirect3DDevice9.obj
 0001:000076c0       ?BeginStateBlock@myIDirect3DDevice9@@UAGJXZ 100086c0 f   myIDirect3DDevice9.obj
 0001:000076e0       ?EndStateBlock@myIDirect3DDevice9@@UAGJPAPAUIDirect3DStateBlock9@@@Z 100086e0 f   myIDirect3DDevice9.obj
 0001:00007710       ?SetClipStatus@myIDirect3DDevice9@@UAGJPBU_D3DCLIPSTATUS9@@@Z 10008710 f   myIDirect3DDevice9.obj
 0001:00007740       ?GetClipStatus@myIDirect3DDevice9@@UAGJPAU_D3DCLIPSTATUS9@@@Z 10008740 f   myIDirect3DDevice9.obj
 0001:00007770       ?GetTexture@myIDirect3DDevice9@@UAGJKPAPAUIDirect3DBaseTexture9@@@Z 10008770 f   myIDirect3DDevice9.obj
 0001:000077a0       ?SetTexture@myIDirect3DDevice9@@UAGJKPAUIDirect3DBaseTexture9@@@Z 100087a0 f   myIDirect3DDevice9.obj
 0001:000077d0       ?GetTextureStageState@myIDirect3DDevice9@@UAGJKW4_D3DTEXTURESTAGESTATETYPE@@PAK@Z 100087d0 f   myIDirect3DDevice9.obj
 0001:00007800       ?SetTextureStageState@myIDirect3DDevice9@@UAGJKW4_D3DTEXTURESTAGESTATETYPE@@K@Z 10008800 f   myIDirect3DDevice9.obj
 0001:00007830       ?GetSamplerState@myIDirect3DDevice9@@UAGJKW4_D3DSAMPLERSTATETYPE@@PAK@Z 10008830 f   myIDirect3DDevice9.obj
 0001:00007860       ?SetSamplerState@myIDirect3DDevice9@@UAGJKW4_D3DSAMPLERSTATETYPE@@K@Z 10008860 f   myIDirect3DDevice9.obj
 0001:00007890       ?ValidateDevice@myIDirect3DDevice9@@UAGJPAK@Z 10008890 f   myIDirect3DDevice9.obj
 0001:000078c0       ?SetPaletteEntries@myIDirect3DDevice9@@UAGJIPBUtagPALETTEENTRY@@@Z 100088c0 f   myIDirect3DDevice9.obj
 0001:000078f0       ?GetPaletteEntries@myIDirect3DDevice9@@UAGJIPAUtagPALETTEENTRY@@@Z 100088f0 f   myIDirect3DDevice9.obj
 0001:00007920       ?SetCurrentTexturePalette@myIDirect3DDevice9@@UAGJI@Z 10008920 f   myIDirect3DDevice9.obj
 0001:00007950       ?GetCurrentTexturePalette@myIDirect3DDevice9@@UAGJPAI@Z 10008950 f   myIDirect3DDevice9.obj
 0001:00007980       ?SetScissorRect@myIDirect3DDevice9@@UAGJPBUtagRECT@@@Z 10008980 f   myIDirect3DDevice9.obj
 0001:000079b0       ?GetScissorRect@myIDirect3DDevice9@@UAGJPAUtagRECT@@@Z 100089b0 f   myIDirect3DDevice9.obj
 0001:000079e0       ?SetSoftwareVertexProcessing@myIDirect3DDevice9@@UAGJH@Z 100089e0 f   myIDirect3DDevice9.obj
 0001:00007a10       ?GetSoftwareVertexProcessing@myIDirect3DDevice9@@UAGHXZ 10008a10 f   myIDirect3DDevice9.obj
 0001:00007a30       ?SetNPatchMode@myIDirect3DDevice9@@UAGJM@Z 10008a30 f   myIDirect3DDevice9.obj
 0001:00007a60       ?GetNPatchMode@myIDirect3DDevice9@@UAGMXZ 10008a60 f   myIDirect3DDevice9.obj
 0001:00007a80       ?DrawPrimitive@myIDirect3DDevice9@@UAGJW4_D3DPRIMITIVETYPE@@II@Z 10008a80 f   myIDirect3DDevice9.obj
 0001:00007ab0       ?DrawIndexedPrimitive@myIDirect3DDevice9@@UAGJW4_D3DPRIMITIVETYPE@@HIIII@Z 10008ab0 f   myIDirect3DDevice9.obj
 0001:00007b10       ?DrawPrimitiveUP@myIDirect3DDevice9@@UAGJW4_D3DPRIMITIVETYPE@@IPBXI@Z 10008b10 f   myIDirect3DDevice9.obj
 0001:00007b40       ?DrawIndexedPrimitiveUP@myIDirect3DDevice9@@UAGJW4_D3DPRIMITIVETYPE@@IIIPBXW4_D3DFORMAT@@1I@Z 10008b40 f   myIDirect3DDevice9.obj
 0001:00007b80       ?ProcessVertices@myIDirect3DDevice9@@UAGJIIIPAUIDirect3DVertexBuffer9@@PAUIDirect3DVertexDeclaration9@@K@Z 10008b80 f   myIDirect3DDevice9.obj
 0001:00007bc0       ?CreateVertexDeclaration@myIDirect3DDevice9@@UAGJPBU_D3DVERTEXELEMENT9@@PAPAUIDirect3DVertexDeclaration9@@@Z 10008bc0 f   myIDirect3DDevice9.obj
 0001:00007bf0       ?SetVertexDeclaration@myIDirect3DDevice9@@UAGJPAUIDirect3DVertexDeclaration9@@@Z 10008bf0 f   myIDirect3DDevice9.obj
 0001:00007c20       ?GetVertexDeclaration@myIDirect3DDevice9@@UAGJPAPAUIDirect3DVertexDeclaration9@@@Z 10008c20 f   myIDirect3DDevice9.obj
 0001:00007c50       ?SetFVF@myIDirect3DDevice9@@UAGJK@Z 10008c50 f   myIDirect3DDevice9.obj
 0001:00007c80       ?GetFVF@myIDirect3DDevice9@@UAGJPAK@Z 10008c80 f   myIDirect3DDevice9.obj
 0001:00007cb0       ?CreateVertexShader@myIDirect3DDevice9@@UAGJPBKPAPAUIDirect3DVertexShader9@@@Z 10008cb0 f   myIDirect3DDevice9.obj
 0001:00007ce0       ?SetVertexShader@myIDirect3DDevice9@@UAGJPAUIDirect3DVertexShader9@@@Z 10008ce0 f   myIDirect3DDevice9.obj
 0001:00007d10       ?GetVertexShader@myIDirect3DDevice9@@UAGJPAPAUIDirect3DVertexShader9@@@Z 10008d10 f   myIDirect3DDevice9.obj
 0001:00007d40       ?SetVertexShaderConstantF@myIDirect3DDevice9@@UAGJIPBMI@Z 10008d40 f   myIDirect3DDevice9.obj
 0001:00007d70       ?GetVertexShaderConstantF@myIDirect3DDevice9@@UAGJIPAMI@Z 10008d70 f   myIDirect3DDevice9.obj
 0001:00007da0       ?SetVertexShaderConstantI@myIDirect3DDevice9@@UAGJIPBHI@Z 10008da0 f   myIDirect3DDevice9.obj
 0001:00007dd0       ?GetVertexShaderConstantI@myIDirect3DDevice9@@UAGJIPAHI@Z 10008dd0 f   myIDirect3DDevice9.obj
 0001:00007e00       ?SetVertexShaderConstantB@myIDirect3DDevice9@@UAGJIPBHI@Z 10008e00 f   myIDirect3DDevice9.obj
 0001:00007e30       ?GetVertexShaderConstantB@myIDirect3DDevice9@@UAGJIPAHI@Z 10008e30 f   myIDirect3DDevice9.obj
 0001:00007e60       ?SetStreamSource@myIDirect3DDevice9@@UAGJIPAUIDirect3DVertexBuffer9@@II@Z 10008e60 f   myIDirect3DDevice9.obj
 0001:00007e90       ?GetStreamSource@myIDirect3DDevice9@@UAGJIPAPAUIDirect3DVertexBuffer9@@PAI1@Z 10008e90 f   myIDirect3DDevice9.obj
 0001:00007ec0       ?SetStreamSourceFreq@myIDirect3DDevice9@@UAGJII@Z 10008ec0 f   myIDirect3DDevice9.obj
 0001:00007ef0       ?GetStreamSourceFreq@myIDirect3DDevice9@@UAGJIPAI@Z 10008ef0 f   myIDirect3DDevice9.obj
 0001:00007f20       ?SetIndices@myIDirect3DDevice9@@UAGJPAUIDirect3DIndexBuffer9@@@Z 10008f20 f   myIDirect3DDevice9.obj
 0001:00007f50       ?GetIndices@myIDirect3DDevice9@@UAGJPAPAUIDirect3DIndexBuffer9@@@Z 10008f50 f   myIDirect3DDevice9.obj
 0001:00007f80       ?CreatePixelShader@myIDirect3DDevice9@@UAGJPBKPAPAUIDirect3DPixelShader9@@@Z 10008f80 f   myIDirect3DDevice9.obj
 0001:00007fb0       ?SetPixelShader@myIDirect3DDevice9@@UAGJPAUIDirect3DPixelShader9@@@Z 10008fb0 f   myIDirect3DDevice9.obj
 0001:00007fe0       ?GetPixelShader@myIDirect3DDevice9@@UAGJPAPAUIDirect3DPixelShader9@@@Z 10008fe0 f   myIDirect3DDevice9.obj
 0001:00008010       ?SetPixelShaderConstantF@myIDirect3DDevice9@@UAGJIPBMI@Z 10009010 f   myIDirect3DDevice9.obj
 0001:00008040       ?GetPixelShaderConstantF@myIDirect3DDevice9@@UAGJIPAMI@Z 10009040 f   myIDirect3DDevice9.obj
 0001:00008070       ?SetPixelShaderConstantI@myIDirect3DDevice9@@UAGJIPBHI@Z 10009070 f   myIDirect3DDevice9.obj
 0001:000080a0       ?GetPixelShaderConstantI@myIDirect3DDevice9@@UAGJIPAHI@Z 100090a0 f   myIDirect3DDevice9.obj
 0001:000080d0       ?SetPixelShaderConstantB@myIDirect3DDevice9@@UAGJIPBHI@Z 100090d0 f   myIDirect3DDevice9.obj
 0001:00008100       ?GetPixelShaderConstantB@myIDirect3DDevice9@@UAGJIPAHI@Z 10009100 f   myIDirect3DDevice9.obj
 0001:00008130       ?DrawRectPatch@myIDirect3DDevice9@@UAGJIPBMPBU_D3DRECTPATCH_INFO@@@Z 10009130 f   myIDirect3DDevice9.obj
 0001:00008160       ?DrawTriPatch@myIDirect3DDevice9@@UAGJIPBMPBU_D3DTRIPATCH_INFO@@@Z 10009160 f   myIDirect3DDevice9.obj
 0001:00008190       ?DeletePatch@myIDirect3DDevice9@@UAGJI@Z 10009190 f   myIDirect3DDevice9.obj
 0001:000081c0       ?CreateQuery@myIDirect3DDevice9@@UAGJW4_D3DQUERYTYPE@@PAPAUIDirect3DQuery9@@@Z 100091c0 f   myIDirect3DDevice9.obj
 0001:00008210       ?ShowWeAreHere@myIDirect3DDevice9@@AAEXXZ 10009210 f   myIDirect3DDevice9.obj
 0001:00008270       ??_GmyIDirect3DDevice9@@UAEPAXI@Z 10009270 f i myIDirect3DDevice9.obj
 0001:00008270       ??_EmyIDirect3DDevice9@@UAEPAXI@Z 10009270 f i myIDirect3DDevice9.obj
 0001:000082a0       ??0IDirect3D9@@QAE@XZ      100092a0 f i myIDirect3D9.obj
 0001:000082a0       ??0IDirect3DDevice9@@QAE@XZ 100092a0 f i myIDirect3DDevice9.obj
 0001:000082c0       ?Sys_RunInit@@YAXXZ        100092c0 f   PatchMW2.obj
 0001:000082d0       ?PatchMW2@@YAXXZ           100092d0 f   PatchMW2.obj
 0001:00008360       ?WinMainInitHookStub@@YAXXZ 10009360 f   PatchMW2.obj
 0001:00008370       ?SysInitHookStub@@YAXXZ    10009370 f   PatchMW2.obj
 0001:00008380       ?PatchMW2_159@@YAXXZ       10009380 f   PatchMW2.obj
 0001:00008600       ?PatchMW2_FFHash@@YAXXZ    10009600 f   PatchMW2.obj
 0001:00008680       ?ExecIsFSHookFunc@@YAHPBD0@Z 10009680 f   PatchMW2.obj
 0001:000086b0       ?ExecIsFSHookStub@@YAXXZ   100096b0 f   PatchMW2.obj
 0001:000086c0       ?PatchMW2_Modding@@YAXXZ   100096c0 f   PatchMW2.obj
 0001:000087f0       ?CustomUnhandledExceptionFilter@@YGJPAU_EXCEPTION_POINTERS@@@Z 100097f0 f   PatchMW2.obj
 0001:000089a0       ?InstallCrashHandler@@YAXXZ 100099a0 f   PatchMW2.obj
 0001:000089c0       ?DoSysInit@@YAXXZ          100099c0 f   PatchMW2.obj
 0001:000089d0       ?oneAtATimeHash@@YAIPAD@Z  100099d0 f   PatchMW2.obj
 0001:00008aa0       ?custom_gethostbyname@@YGPAUhostent@@PBD@Z 10009aa0 f   PatchMW2.obj
 0001:00008b50       ?PatchMW2_Servers@@YAXXZ   10009b50 f   PatchMW2.obj
 0001:00008b60       ?HelloIW@@YAXH@Z           10009b60 f   PatchMW2.obj
 0001:00008ba0       ?HelloHookStub@@YAXXZ      10009ba0 f   PatchMW2.obj
 0001:00008bb0       ?HelloHook2Stub@@YAXXZ     10009bb0 f   PatchMW2.obj
 0001:00008bc0       ?PatchMW2_Hello@@YAXXZ     10009bc0 f   PatchMW2.obj
 0001:00008c10       ?IWClient_HandleLobbyData@@YAPBDPBD@Z 10009c10 f   PatchMW2.obj
 0001:00008cd0       ?ConnectToAddress@@YAXUnetadr_t@@@Z 10009cd0 f   PatchMW2.obj
 0001:00008d30       ?CL_OpenStore_f@@YAXXZ     10009d30 f   PatchMW2.obj
 0001:00008d60       ?PatchMW2_Client@@YAXXZ    10009d60 f   PatchMW2.obj
 0001:00008e00       ?PatchMW2_VA@@YAXXZ        10009e00 f   PatchMW2.obj
 0001:00008e30       ??0CSteamID@@QAE@IIW4EUniverse@@W4EAccountType@@@Z 10009e30 f i PatchMW2.obj
 0001:00008e60       ?InstancedSet@CSteamID@@QAEXIIW4EUniverse@@W4EAccountType@@@Z 10009e60 f i PatchMW2.obj
 0001:00008ee0       ?CanWeLoadAsset@@YADW4assetType_e@@PAX@Z 10009ee0 f   PatchMW2AssetRestrict.obj
 0001:00008fb0       ?DoBeforeLoadAsset@@YAXW4assetType_e@@PAPAX@Z 10009fb0 f   PatchMW2AssetRestrict.obj
 0001:00009000       ?LoadDefaultAsset@@YAPAXW4assetType_e@@@Z 1000a000 f   PatchMW2AssetRestrict.obj
 0001:00009030       ?DB_AddXAssetHookStub@@YAXXZ 1000a030 f   PatchMW2AssetRestrict.obj
 0001:00009080       ?PatchMW2_AssetRestrict@@YAXXZ 1000a080 f   PatchMW2AssetRestrict.obj
 0001:000090b0       ??0?$unordered_map@K_NV?$hash@K@std@@U?$equal_to@K@2@V?$allocator@U?$pair@$$CBK_N@std@@@2@@tr1@std@@QAE@XZ 1000a0b0 f i PatchMW2AssetRestrict.obj
 0001:000090e0       ??0?$_Hash@V?$_Umap_traits@K_NV?$_Hash_compare@KV?$hash@K@std@@U?$equal_to@K@2@@std@@V?$allocator@U?$pair@$$CBK_N@std@@@2@$0A@@tr1@std@@@std@@QAE@ABV?$_Hash_compare@KV?$hash@K@std@@U?$equal_to@K@2@@1@ABV?$allocator@U?$pair@$$CBK_N@std@@@1@@Z 1000a0e0 f i PatchMW2AssetRestrict.obj
 0001:00009170       ??0?$list@U?$pair@$$CBK_N@std@@V?$allocator@U?$pair@$$CBK_N@std@@@2@@std@@QAE@ABV?$allocator@U?$pair@$$CBK_N@std@@@1@@Z 1000a170 f i PatchMW2AssetRestrict.obj
 0001:000091a0       ??0?$_List_val@U?$pair@$$CBK_N@std@@V?$allocator@U?$pair@$$CBK_N@std@@@2@@std@@QAE@V?$allocator@U?$pair@$$CBK_N@std@@@1@@Z 1000a1a0 f i PatchMW2AssetRestrict.obj
 0001:00009210       ?allocate@?$allocator@U_Node@?$_List_nod@U?$pair@$$CBK_N@std@@V?$allocator@U?$pair@$$CBK_N@std@@@2@@std@@@std@@QAEPAU_Node@?$_List_nod@U?$pair@$$CBK_N@std@@V?$allocator@U?$pair@$$CBK_N@std@@@2@@2@I@Z 1000a210 f i PatchMW2AssetRestrict.obj
 0001:00009210       ?allocate@?$allocator@UUIFeeder_t@@@std@@QAEPAUUIFeeder_t@@I@Z 1000a210 f i PatchMW2ModList.obj
 0001:00009230       ?end@?$vector@Ugscr_file_t@@V?$allocator@Ugscr_file_t@@@std@@@std@@QAE?AV?$_Vector_iterator@V?$_Vector_val@Ugscr_file_t@@V?$allocator@Ugscr_file_t@@@std@@@std@@@2@XZ 1000a230 f i Script.obj
 0001:00009230       ?end@?$vector@HV?$allocator@H@std@@@std@@QAE?AV?$_Vector_iterator@V?$_Vector_val@HV?$allocator@H@std@@@std@@@2@XZ 1000a230 f i Script.obj
 0001:00009230       ?end@?$vector@V?$_List_iterator@V?$_List_val@U?$pair@$$CBV?$basic_string@DU?$char_traits@D@std@@V?$allocator@D@2@@std@@PAUVehicleDef@@@std@@V?$allocator@U?$pair@$$CBV?$basic_string@DU?$char_traits@D@std@@V?$allocator@D@2@@std@@PAUVehicleDef@@@std@@@2@@std@@@std@@V?$allocator@V?$_List_iterator@V?$_List_val@U?$pair@$$CBV?$basic_string@DU?$char_traits@D@std@@V?$allocator@D@2@@std@@PAUVehicleDef@@@std@@V?$allocator@U?$pair@$$CBV?$basic_string@DU?$char_traits@D@std@@V?$allocator@D@2@@std@@PAUVehicleDef@@@std@@@2@@std@@@std@@@2@@std@@QAE?AV?$_Vector_iterator@V?$_Vector_val@V?$_List_iterator@V?$_List_val@U?$pair@$$CBV?$basic_string@DU?$char_traits@D@std@@V?$allocator@D@2@@std@@PAUVehicleDef@@@std@@V?$allocator@U?$pair@$$CBV?$basic_string@DU?$char_traits@D@std@@V?$allocator@D@2@@std@@PAUVehicleDef@@@std@@@2@@std@@@std@@V?$allocator@V?$_List_iterator@V?$_List_val@U?$pair@$$CBV?$basic_string@DU?$char_traits@D@std@@V?$allocator@D@2@@std@@PAUVehicleDef@@@std@@V?$allocator@U?$pair@$$CBV?$basic_string@DU?$char_traits@D@std@@V?$allocator@D@2@@std@@PAUVehicleDef@@@std@@@2@@std@@@std@@@2@@std@@@2@XZ 1000a230 f i PatchMW2LoadVehicleDef.obj
 0001:00009230       ?end@?$vector@UUIClickHandler_t@@V?$allocator@UUIClickHandler_t@@@std@@@std@@QAE?AV?$_Vector_iterator@V?$_Vector_val@UUIClickHandler_t@@V?$allocator@UUIClickHandler_t@@@std@@@std@@@2@XZ 1000a230 f i PatchMW2UIScripts.obj
 0001:00009230       ?end@?$vector@V?$_List_iterator@V?$_List_val@U?$pair@$$CB_KPAVCCallbackBase@@@std@@V?$allocator@U?$pair@$$CB_KPAVCCallbackBase@@@std@@@2@@std@@@std@@V?$allocator@V?$_List_iterator@V?$_List_val@U?$pair@$$CB_KPAVCCallbackBase@@@std@@V?$allocator@U?$pair@$$CB_KPAVCCallbackBase@@@std@@@2@@std@@@std@@@2@@std@@QAE?AV?$_Vector_iterator@V?$_Vector_val@V?$_List_iterator@V?$_List_val@U?$pair@$$CB_KPAVCCallbackBase@@@std@@V?$allocator@U?$pair@$$CB_KPAVCCallbackBase@@@std@@@2@@std@@@std@@V?$allocator@V?$_List_iterator@V?$_List_val@U?$pair@$$CB_KPAVCCallbackBase@@@std@@V?$allocator@U?$pair@$$CB_KPAVCCallbackBase@@@std@@@2@@std@@@std@@@2@@std@@@2@XZ 1000a230 f i SteamBase.obj
 0001:00009230       ?end@?$vector@V?$_List_iterator@V?$_List_val@U?$pair@$$CBV?$basic_string@DU?$char_traits@D@std@@V?$allocator@D@2@@std@@P6AXH@Z@std@@V?$allocator@U?$pair@$$CBV?$basic_string@DU?$char_traits@D@std@@V?$allocator@D@2@@std@@P6AXH@Z@std@@@2@@std@@@std@@V?$allocator@V?$_List_iterator@V?$_List_val@U?$pair@$$CBV?$basic_string@DU?$char_traits@D@std@@V?$allocator@D@2@@std@@P6AXH@Z@std@@V?$allocator@U?$pair@$$CBV?$basic_string@DU?$char_traits@D@std@@V?$allocator@D@2@@std@@P6AXH@Z@std@@@2@@std@@@std@@@2@@std@@QAE?AV?$_Vector_iterator@V?$_Vector_val@V?$_List_iterator@V?$_List_val@U?$pair@$$CBV?$basic_string@DU?$char_traits@D@std@@V?$allocator@D@2@@std@@P6AXH@Z@std@@V?$allocator@U?$pair@$$CBV?$basic_string@DU?$char_traits@D@std@@V?$allocator@D@2@@std@@P6AXH@Z@std@@@2@@std@@@std@@V?$allocator@V?$_List_iterator@V?$_List_val@U?$pair@$$CBV?$basic_string@DU?$char_traits@D@std@@V?$allocator@D@2@@std@@P6AXH@Z@std@@V?$allocator@U?$pair@$$CBV?$basic_string@DU?$char_traits@D@std@@V?$allocator@D@2@@std@@P6AXH@Z@std@@@2@@std@@@std@@@2@@std@@@2@XZ 1000a230 f i GameInterface.obj
 0001:00009230       ?end@?$vector@UUIFeeder_t@@V?$allocator@UUIFeeder_t@@@std@@@std@@QAE?AV?$_Vector_iterator@V?$_Vector_val@UUIFeeder_t@@V?$allocator@UUIFeeder_t@@@std@@@std@@@2@XZ 1000a230 f i PatchMW2UIScripts.obj
 0001:00009230       ?end@?$vector@PAUmenuDef_t@@V?$allocator@PAUmenuDef_t@@@std@@@std@@QAE?AV?$_Vector_iterator@V?$_Vector_val@PAUmenuDef_t@@V?$allocator@PAUmenuDef_t@@@std@@@std@@@2@XZ 1000a230 f i PatchMW2UILoading.obj
 0001:00009230       ?end@?$vector@V?$basic_string@DU?$char_traits@D@std@@V?$allocator@D@2@@std@@V?$allocator@V?$basic_string@DU?$char_traits@D@std@@V?$allocator@D@2@@std@@@2@@std@@QAE?AV?$_Vector_iterator@V?$_Vector_val@V?$basic_string@DU?$char_traits@D@std@@V?$allocator@D@2@@std@@V?$allocator@V?$basic_string@DU?$char_traits@D@std@@V?$allocator@D@2@@std@@@2@@std@@@2@XZ 1000a230 f i PatchMW2Packet.obj
 0001:00009230       ?end@?$vector@USteamAPIResult_s@@V?$allocator@USteamAPIResult_s@@@std@@@std@@QAE?AV?$_Vector_iterator@V?$_Vector_val@USteamAPIResult_s@@V?$allocator@USteamAPIResult_s@@@std@@@std@@@2@XZ 1000a230 f i SteamBase.obj
 0001:00009230       ?end@?$vector@V?$_List_iterator@V?$_List_val@U?$pair@$$CBV?$basic_string@DU?$char_traits@D@std@@V?$allocator@D@2@@std@@_N@std@@V?$allocator@U?$pair@$$CBV?$basic_string@DU?$char_traits@D@std@@V?$allocator@D@2@@std@@_N@std@@@2@@std@@@std@@V?$allocator@V?$_List_iterator@V?$_List_val@U?$pair@$$CBV?$basic_string@DU?$char_traits@D@std@@V?$allocator@D@2@@std@@_N@std@@V?$allocator@U?$pair@$$CBV?$basic_string@DU?$char_traits@D@std@@V?$allocator@D@2@@std@@_N@std@@@2@@std@@@std@@@2@@std@@QAE?AV?$_Vector_iterator@V?$_Vector_val@V?$_List_iterator@V?$_List_val@U?$pair@$$CBV?$basic_string@DU?$char_traits@D@std@@V?$allocator@D@2@@std@@_N@std@@V?$allocator@U?$pair@$$CBV?$basic_string@DU?$char_traits@D@std@@V?$allocator@D@2@@std@@_N@std@@@2@@std@@@std@@V?$allocator@V?$_List_iterator@V?$_List_val@U?$pair@$$CBV?$basic_string@DU?$char_traits@D@std@@V?$allocator@D@2@@std@@_N@std@@V?$allocator@U?$pair@$$CBV?$basic_string@DU?$char_traits@D@std@@V?$allocator@D@2@@std@@_N@std@@@2@@std@@@std@@@2@@std@@@2@XZ 1000a230 f i PatchMW2Experiments.obj
 0001:00009230       ?end@?$vector@UUIScript_t@@V?$allocator@UUIScript_t@@@std@@@std@@QAE?AV?$_Vector_iterator@V?$_Vector_val@UUIScript_t@@V?$allocator@UUIScript_t@@@std@@@std@@@2@XZ 1000a230 f i PatchMW2UIScripts.obj
 0001:00009230       ?end@?$vector@PAVCCallbackBase@@V?$allocator@PAVCCallbackBase@@@std@@@std@@QAE?AV?$_Vector_iterator@V?$_Vector_val@PAVCCallbackBase@@V?$allocator@PAVCCallbackBase@@@std@@@std@@@2@XZ 1000a230 f i SteamBase.obj
 0001:00009230       ?end@?$vector@UServerStorageEntry@@V?$allocator@UServerStorageEntry@@@std@@@std@@QAE?AV?$_Vector_iterator@V?$_Vector_val@UServerStorageEntry@@V?$allocator@UServerStorageEntry@@@std@@@std@@@2@XZ 1000a230 f i ServerStorage.obj
 0001:00009230       ?end@?$vector@V?$_List_iterator@V?$_List_val@U?$pair@$$CB_K_N@std@@V?$allocator@U?$pair@$$CB_K_N@std@@@2@@std@@@std@@V?$allocator@V?$_List_iterator@V?$_List_val@U?$pair@$$CB_K_N@std@@V?$allocator@U?$pair@$$CB_K_N@std@@@2@@std@@@std@@@2@@std@@QAE?AV?$_Vector_iterator@V?$_Vector_val@V?$_List_iterator@V?$_List_val@U?$pair@$$CB_K_N@std@@V?$allocator@U?$pair@$$CB_K_N@std@@@2@@std@@@std@@V?$allocator@V?$_List_iterator@V?$_List_val@U?$pair@$$CB_K_N@std@@V?$allocator@U?$pair@$$CB_K_N@std@@@2@@std@@@std@@@2@@std@@@2@XZ 1000a230 f i SteamBase.obj
 0001:00009230       ?end@?$vector@V?$_List_iterator@V?$_List_val@U?$pair@$$CBK_N@std@@V?$allocator@U?$pair@$$CBK_N@std@@@2@@std@@@std@@V?$allocator@V?$_List_iterator@V?$_List_val@U?$pair@$$CBK_N@std@@V?$allocator@U?$pair@$$CBK_N@std@@@2@@std@@@std@@@2@@std@@QAE?AV?$_Vector_iterator@V?$_Vector_val@V?$_List_iterator@V?$_List_val@U?$pair@$$CBK_N@std@@V?$allocator@U?$pair@$$CBK_N@std@@@2@@std@@@std@@V?$allocator@V?$_List_iterator@V?$_List_val@U?$pair@$$CBK_N@std@@V?$allocator@U?$pair@$$CBK_N@std@@@2@@std@@@std@@@2@@std@@@2@XZ 1000a230 f i PatchMW2AssetRestrict.obj
 0001:00009230       ?end@?$vector@PAUMaterial@@V?$allocator@PAUMaterial@@@std@@@std@@QAE?AV?$_Vector_iterator@V?$_Vector_val@PAUMaterial@@V?$allocator@PAUMaterial@@@std@@@std@@@2@XZ 1000a230 f i PatchMW2WeaponCamos.obj
 0001:00009260       ??$_Allocate@UUIFeeder_t@@@std@@YAPAUUIFeeder_t@@IPAU1@@Z 1000a260 f i PatchMW2ModList.obj
 0001:00009260       ??$_Allocate@U_Node@?$_List_nod@U?$pair@$$CBK_N@std@@V?$allocator@U?$pair@$$CBK_N@std@@@2@@std@@@std@@YAPAU_Node@?$_List_nod@U?$pair@$$CBK_N@std@@V?$allocator@U?$pair@$$CBK_N@std@@@2@@0@IPAU120@@Z 1000a260 f i PatchMW2AssetRestrict.obj
 0001:000092c0       ??$_Move@PAV?$_List_iterator@V?$_List_val@U?$pair@$$CBK_N@std@@V?$allocator@U?$pair@$$CBK_N@std@@@2@@std@@@std@@PAV12@@std@@YAPAV?$_List_iterator@V?$_List_val@U?$pair@$$CBK_N@std@@V?$allocator@U?$pair@$$CBK_N@std@@@2@@std@@@0@PAV10@00@Z 1000a2c0 f i PatchMW2AssetRestrict.obj
 0001:000092c0       ??$_Move@PAV?$_List_iterator@V?$_List_val@U?$pair@$$CB_KPAVCCallbackBase@@@std@@V?$allocator@U?$pair@$$CB_KPAVCCallbackBase@@@std@@@2@@std@@@std@@PAV12@@std@@YAPAV?$_List_iterator@V?$_List_val@U?$pair@$$CB_KPAVCCallbackBase@@@std@@V?$allocator@U?$pair@$$CB_KPAVCCallbackBase@@@std@@@2@@std@@@0@PAV10@00@Z 1000a2c0 f i SteamBase.obj
 0001:000092c0       ??$_Move@PAV?$_List_iterator@V?$_List_val@U?$pair@$$CBV?$basic_string@DU?$char_traits@D@std@@V?$allocator@D@2@@std@@_N@std@@V?$allocator@U?$pair@$$CBV?$basic_string@DU?$char_traits@D@std@@V?$allocator@D@2@@std@@_N@std@@@2@@std@@@std@@PAV12@@std@@YAPAV?$_List_iterator@V?$_List_val@U?$pair@$$CBV?$basic_string@DU?$char_traits@D@std@@V?$allocator@D@2@@std@@_N@std@@V?$allocator@U?$pair@$$CBV?$basic_string@DU?$char_traits@D@std@@V?$allocator@D@2@@std@@_N@std@@@2@@std@@@0@PAV10@00@Z 1000a2c0 f i PatchMW2Experiments.obj
 0001:000092c0       ??$_Move@PAV?$_List_iterator@V?$_List_val@U?$pair@$$CB_K_N@std@@V?$allocator@U?$pair@$$CB_K_N@std@@@2@@std@@@std@@PAV12@@std@@YAPAV?$_List_iterator@V?$_List_val@U?$pair@$$CB_K_N@std@@V?$allocator@U?$pair@$$CB_K_N@std@@@2@@std@@@0@PAV10@00@Z 1000a2c0 f i SteamBase.obj
 0001:000092c0       ??$_Move@PAV?$_List_iterator@V?$_List_val@U?$pair@$$CBV?$basic_string@DU?$char_traits@D@std@@V?$allocator@D@2@@std@@PAUVehicleDef@@@std@@V?$allocator@U?$pair@$$CBV?$basic_string@DU?$char_traits@D@std@@V?$allocator@D@2@@std@@PAUVehicleDef@@@std@@@2@@std@@@std@@PAV12@@std@@YAPAV?$_List_iterator@V?$_List_val@U?$pair@$$CBV?$basic_string@DU?$char_traits@D@std@@V?$allocator@D@2@@std@@PAUVehicleDef@@@std@@V?$allocator@U?$pair@$$CBV?$basic_string@DU?$char_traits@D@std@@V?$allocator@D@2@@std@@PAUVehicleDef@@@std@@@2@@std@@@0@PAV10@00@Z 1000a2c0 f i PatchMW2LoadVehicleDef.obj
 0001:000092c0       ??$_Move@PAV?$_List_iterator@V?$_List_val@U?$pair@$$CBV?$basic_string@DU?$char_traits@D@std@@V?$allocator@D@2@@std@@P6AXH@Z@std@@V?$allocator@U?$pair@$$CBV?$basic_string@DU?$char_traits@D@std@@V?$allocator@D@2@@std@@P6AXH@Z@std@@@2@@std@@@std@@PAV12@@std@@YAPAV?$_List_iterator@V?$_List_val@U?$pair@$$CBV?$basic_string@DU?$char_traits@D@std@@V?$allocator@D@2@@std@@P6AXH@Z@std@@V?$allocator@U?$pair@$$CBV?$basic_string@DU?$char_traits@D@std@@V?$allocator@D@2@@std@@P6AXH@Z@std@@@2@@std@@@0@PAV10@00@Z 1000a2c0 f i GameInterface.obj
 0001:00009300       ??$fill@PAV?$_List_iterator@V?$_List_val@U?$pair@$$CBV?$basic_string@DU?$char_traits@D@std@@V?$allocator@D@2@@std@@PAUVehicleDef@@@std@@V?$allocator@U?$pair@$$CBV?$basic_string@DU?$char_traits@D@std@@V?$allocator@D@2@@std@@PAUVehicleDef@@@std@@@2@@std@@@std@@V12@@std@@YAXPAV?$_List_iterator@V?$_List_val@U?$pair@$$CBV?$basic_string@DU?$char_traits@D@std@@V?$allocator@D@2@@std@@PAUVehicleDef@@@std@@V?$allocator@U?$pair@$$CBV?$basic_string@DU?$char_traits@D@std@@V?$allocator@D@2@@std@@PAUVehicleDef@@@std@@@2@@std@@@0@0ABV10@@Z 1000a300 f i PatchMW2LoadVehicleDef.obj
 0001:00009300       ??$fill@PAV?$_List_iterator@V?$_List_val@U?$pair@$$CB_KPAVCCallbackBase@@@std@@V?$allocator@U?$pair@$$CB_KPAVCCallbackBase@@@std@@@2@@std@@@std@@V12@@std@@YAXPAV?$_List_iterator@V?$_List_val@U?$pair@$$CB_KPAVCCallbackBase@@@std@@V?$allocator@U?$pair@$$CB_KPAVCCallbackBase@@@std@@@2@@std@@@0@0ABV10@@Z 1000a300 f i SteamBase.obj
 0001:00009300       ??$fill@PAV?$_List_iterator@V?$_List_val@U?$pair@$$CBK_N@std@@V?$allocator@U?$pair@$$CBK_N@std@@@2@@std@@@std@@V12@@std@@YAXPAV?$_List_iterator@V?$_List_val@U?$pair@$$CBK_N@std@@V?$allocator@U?$pair@$$CBK_N@std@@@2@@std@@@0@0ABV10@@Z 1000a300 f i PatchMW2AssetRestrict.obj
 0001:00009300       ??$fill@PAV?$_List_iterator@V?$_List_val@U?$pair@$$CBV?$basic_string@DU?$char_traits@D@std@@V?$allocator@D@2@@std@@_N@std@@V?$allocator@U?$pair@$$CBV?$basic_string@DU?$char_traits@D@std@@V?$allocator@D@2@@std@@_N@std@@@2@@std@@@std@@V12@@std@@YAXPAV?$_List_iterator@V?$_List_val@U?$pair@$$CBV?$basic_string@DU?$char_traits@D@std@@V?$allocator@D@2@@std@@_N@std@@V?$allocator@U?$pair@$$CBV?$basic_string@DU?$char_traits@D@std@@V?$allocator@D@2@@std@@_N@std@@@2@@std@@@0@0ABV10@@Z 1000a300 f i PatchMW2Experiments.obj
 0001:00009300       ??$fill@PAV?$_List_iterator@V?$_List_val@U?$pair@$$CB_K_N@std@@V?$allocator@U?$pair@$$CB_K_N@std@@@2@@std@@@std@@V12@@std@@YAXPAV?$_List_iterator@V?$_List_val@U?$pair@$$CB_K_N@std@@V?$allocator@U?$pair@$$CB_K_N@std@@@2@@std@@@0@0ABV10@@Z 1000a300 f i SteamBase.obj
 0001:00009300       ??$fill@PAV?$_List_iterator@V?$_List_val@U?$pair@$$CBV?$basic_string@DU?$char_traits@D@std@@V?$allocator@D@2@@std@@P6AXH@Z@std@@V?$allocator@U?$pair@$$CBV?$basic_string@DU?$char_traits@D@std@@V?$allocator@D@2@@std@@P6AXH@Z@std@@@2@@std@@@std@@V12@@std@@YAXPAV?$_List_iterator@V?$_List_val@U?$pair@$$CBV?$basic_string@DU?$char_traits@D@std@@V?$allocator@D@2@@std@@P6AXH@Z@std@@V?$allocator@U?$pair@$$CBV?$basic_string@DU?$char_traits@D@std@@V?$allocator@D@2@@std@@P6AXH@Z@std@@@2@@std@@@0@0ABV10@@Z 1000a300 f i GameInterface.obj
 0001:00009330       ??$_Copy_backward@PAV?$_List_iterator@V?$_List_val@U?$pair@$$CBV?$basic_string@DU?$char_traits@D@std@@V?$allocator@D@2@@std@@_N@std@@V?$allocator@U?$pair@$$CBV?$basic_string@DU?$char_traits@D@std@@V?$allocator@D@2@@std@@_N@std@@@2@@std@@@std@@PAV12@@std@@YAPAV?$_List_iterator@V?$_List_val@U?$pair@$$CBV?$basic_string@DU?$char_traits@D@std@@V?$allocator@D@2@@std@@_N@std@@V?$allocator@U?$pair@$$CBV?$basic_string@DU?$char_traits@D@std@@V?$allocator@D@2@@std@@_N@std@@@2@@std@@@0@PAV10@00@Z 1000a330 f i PatchMW2Experiments.obj
 0001:00009330       ??$_Copy_backward@PAV?$_List_iterator@V?$_List_val@U?$pair@$$CBV?$basic_string@DU?$char_traits@D@std@@V?$allocator@D@2@@std@@PAUVehicleDef@@@std@@V?$allocator@U?$pair@$$CBV?$basic_string@DU?$char_traits@D@std@@V?$allocator@D@2@@std@@PAUVehicleDef@@@std@@@2@@std@@@std@@PAV12@@std@@YAPAV?$_List_iterator@V?$_List_val@U?$pair@$$CBV?$basic_string@DU?$char_traits@D@std@@V?$allocator@D@2@@std@@PAUVehicleDef@@@std@@V?$allocator@U?$pair@$$CBV?$basic_string@DU?$char_traits@D@std@@V?$allocator@D@2@@std@@PAUVehicleDef@@@std@@@2@@std@@@0@PAV10@00@Z 1000a330 f i PatchMW2LoadVehicleDef.obj
 0001:00009330       ??$_Copy_backward@PAV?$_List_iterator@V?$_List_val@U?$pair@$$CBK_N@std@@V?$allocator@U?$pair@$$CBK_N@std@@@2@@std@@@std@@PAV12@@std@@YAPAV?$_List_iterator@V?$_List_val@U?$pair@$$CBK_N@std@@V?$allocator@U?$pair@$$CBK_N@std@@@2@@std@@@0@PAV10@00@Z 1000a330 f i PatchMW2AssetRestrict.obj
 0001:00009330       ??$_Copy_backward@PAV?$_List_iterator@V?$_List_val@U?$pair@$$CB_KPAVCCallbackBase@@@std@@V?$allocator@U?$pair@$$CB_KPAVCCallbackBase@@@std@@@2@@std@@@std@@PAV12@@std@@YAPAV?$_List_iterator@V?$_List_val@U?$pair@$$CB_KPAVCCallbackBase@@@std@@V?$allocator@U?$pair@$$CB_KPAVCCallbackBase@@@std@@@2@@std@@@0@PAV10@00@Z 1000a330 f i SteamBase.obj
 0001:00009330       ??$_Copy_backward@PAV?$_List_iterator@V?$_List_val@U?$pair@$$CBV?$basic_string@DU?$char_traits@D@std@@V?$allocator@D@2@@std@@P6AXH@Z@std@@V?$allocator@U?$pair@$$CBV?$basic_string@DU?$char_traits@D@std@@V?$allocator@D@2@@std@@P6AXH@Z@std@@@2@@std@@@std@@PAV12@@std@@YAPAV?$_List_iterator@V?$_List_val@U?$pair@$$CBV?$basic_string@DU?$char_traits@D@std@@V?$allocator@D@2@@std@@P6AXH@Z@std@@V?$allocator@U?$pair@$$CBV?$basic_string@DU?$char_traits@D@std@@V?$allocator@D@2@@std@@P6AXH@Z@std@@@2@@std@@@0@PAV10@00@Z 1000a330 f i GameInterface.obj
 0001:00009330       ??$_Copy_backward@PAV?$_List_iterator@V?$_List_val@U?$pair@$$CB_K_N@std@@V?$allocator@U?$pair@$$CB_K_N@std@@@2@@std@@@std@@PAV12@@std@@YAPAV?$_List_iterator@V?$_List_val@U?$pair@$$CB_K_N@std@@V?$allocator@U?$pair@$$CB_K_N@std@@@2@@std@@@0@PAV10@00@Z 1000a330 f i SteamBase.obj
 0001:00009370       ??$_Move@PAV?$_List_iterator@V?$_List_val@U?$pair@$$CB_KPAVCCallbackBase@@@std@@V?$allocator@U?$pair@$$CB_KPAVCCallbackBase@@@std@@@2@@std@@@std@@PAV12@@std@@YAPAV?$_List_iterator@V?$_List_val@U?$pair@$$CB_KPAVCCallbackBase@@@std@@V?$allocator@U?$pair@$$CB_KPAVCCallbackBase@@@std@@@2@@std@@@0@PAV10@00U_Nonscalar_ptr_iterator_tag@0@@Z 1000a370 f i SteamBase.obj
 0001:00009370       ??$_Move@PAV?$_List_iterator@V?$_List_val@U?$pair@$$CBV?$basic_string@DU?$char_traits@D@std@@V?$allocator@D@2@@std@@P6AXH@Z@std@@V?$allocator@U?$pair@$$CBV?$basic_string@DU?$char_traits@D@std@@V?$allocator@D@2@@std@@P6AXH@Z@std@@@2@@std@@@std@@PAV12@@std@@YAPAV?$_List_iterator@V?$_List_val@U?$pair@$$CBV?$basic_string@DU?$char_traits@D@std@@V?$allocator@D@2@@std@@P6AXH@Z@std@@V?$allocator@U?$pair@$$CBV?$basic_string@DU?$char_traits@D@std@@V?$allocator@D@2@@std@@P6AXH@Z@std@@@2@@std@@@0@PAV10@00U_Nonscalar_ptr_iterator_tag@0@@Z 1000a370 f i GameInterface.obj
 0001:00009370       ??$_Move@PAV?$_List_iterator@V?$_List_val@U?$pair@$$CBV?$basic_string@DU?$char_traits@D@std@@V?$allocator@D@2@@std@@PAUVehicleDef@@@std@@V?$allocator@U?$pair@$$CBV?$basic_string@DU?$char_traits@D@std@@V?$allocator@D@2@@std@@PAUVehicleDef@@@std@@@2@@std@@@std@@PAV12@@std@@YAPAV?$_List_iterator@V?$_List_val@U?$pair@$$CBV?$basic_string@DU?$char_traits@D@std@@V?$allocator@D@2@@std@@PAUVehicleDef@@@std@@V?$allocator@U?$pair@$$CBV?$basic_string@DU?$char_traits@D@std@@V?$allocator@D@2@@std@@PAUVehicleDef@@@std@@@2@@std@@@0@PAV10@00U_Nonscalar_ptr_iterator_tag@0@@Z 1000a370 f i PatchMW2LoadVehicleDef.obj
 0001:00009370       ??$_Move@PAV?$_List_iterator@V?$_List_val@U?$pair@$$CB_K_N@std@@V?$allocator@U?$pair@$$CB_K_N@std@@@2@@std@@@std@@PAV12@@std@@YAPAV?$_List_iterator@V?$_List_val@U?$pair@$$CB_K_N@std@@V?$allocator@U?$pair@$$CB_K_N@std@@@2@@std@@@0@PAV10@00U_Nonscalar_ptr_iterator_tag@0@@Z 1000a370 f i SteamBase.obj
 0001:00009370       ??$_Move@PAV?$_List_iterator@V?$_List_val@U?$pair@$$CBK_N@std@@V?$allocator@U?$pair@$$CBK_N@std@@@2@@std@@@std@@PAV12@@std@@YAPAV?$_List_iterator@V?$_List_val@U?$pair@$$CBK_N@std@@V?$allocator@U?$pair@$$CBK_N@std@@@2@@std@@@0@PAV10@00U_Nonscalar_ptr_iterator_tag@0@@Z 1000a370 f i PatchMW2AssetRestrict.obj
 0001:00009370       ??$_Move@PAV?$_List_iterator@V?$_List_val@U?$pair@$$CBV?$basic_string@DU?$char_traits@D@std@@V?$allocator@D@2@@std@@_N@std@@V?$allocator@U?$pair@$$CBV?$basic_string@DU?$char_traits@D@std@@V?$allocator@D@2@@std@@_N@std@@@2@@std@@@std@@PAV12@@std@@YAPAV?$_List_iterator@V?$_List_val@U?$pair@$$CBV?$basic_string@DU?$char_traits@D@std@@V?$allocator@D@2@@std@@_N@std@@V?$allocator@U?$pair@$$CBV?$basic_string@DU?$char_traits@D@std@@V?$allocator@D@2@@std@@_N@std@@@2@@std@@@0@PAV10@00U_Nonscalar_ptr_iterator_tag@0@@Z 1000a370 f i PatchMW2Experiments.obj
 0001:000093b0       ??$_Fill@PAV?$_List_iterator@V?$_List_val@U?$pair@$$CB_K_N@std@@V?$allocator@U?$pair@$$CB_K_N@std@@@2@@std@@@std@@V12@@std@@YAXPAV?$_List_iterator@V?$_List_val@U?$pair@$$CB_K_N@std@@V?$allocator@U?$pair@$$CB_K_N@std@@@2@@std@@@0@0ABV10@@Z 1000a3b0 f i SteamBase.obj
 0001:000093b0       ??$_Fill@PAV?$_List_iterator@V?$_List_val@U?$pair@$$CBK_N@std@@V?$allocator@U?$pair@$$CBK_N@std@@@2@@std@@@std@@V12@@std@@YAXPAV?$_List_iterator@V?$_List_val@U?$pair@$$CBK_N@std@@V?$allocator@U?$pair@$$CBK_N@std@@@2@@std@@@0@0ABV10@@Z 1000a3b0 f i PatchMW2AssetRestrict.obj
 0001:000093b0       ??$_Fill@PAV?$_List_iterator@V?$_List_val@U?$pair@$$CBV?$basic_string@DU?$char_traits@D@std@@V?$allocator@D@2@@std@@PAUVehicleDef@@@std@@V?$allocator@U?$pair@$$CBV?$basic_string@DU?$char_traits@D@std@@V?$allocator@D@2@@std@@PAUVehicleDef@@@std@@@2@@std@@@std@@V12@@std@@YAXPAV?$_List_iterator@V?$_List_val@U?$pair@$$CBV?$basic_string@DU?$char_traits@D@std@@V?$allocator@D@2@@std@@PAUVehicleDef@@@std@@V?$allocator@U?$pair@$$CBV?$basic_string@DU?$char_traits@D@std@@V?$allocator@D@2@@std@@PAUVehicleDef@@@std@@@2@@std@@@0@0ABV10@@Z 1000a3b0 f i PatchMW2LoadVehicleDef.obj
 0001:000093b0       ??$_Fill@PAV?$_List_iterator@V?$_List_val@U?$pair@$$CBV?$basic_string@DU?$char_traits@D@std@@V?$allocator@D@2@@std@@P6AXH@Z@std@@V?$allocator@U?$pair@$$CBV?$basic_string@DU?$char_traits@D@std@@V?$allocator@D@2@@std@@P6AXH@Z@std@@@2@@std@@@std@@V12@@std@@YAXPAV?$_List_iterator@V?$_List_val@U?$pair@$$CBV?$basic_string@DU?$char_traits@D@std@@V?$allocator@D@2@@std@@P6AXH@Z@std@@V?$allocator@U?$pair@$$CBV?$basic_string@DU?$char_traits@D@std@@V?$allocator@D@2@@std@@P6AXH@Z@std@@@2@@std@@@0@0ABV10@@Z 1000a3b0 f i GameInterface.obj
 0001:000093b0       ??$_Fill@PAV?$_List_iterator@V?$_List_val@U?$pair@$$CB_KPAVCCallbackBase@@@std@@V?$allocator@U?$pair@$$CB_KPAVCCallbackBase@@@std@@@2@@std@@@std@@V12@@std@@YAXPAV?$_List_iterator@V?$_List_val@U?$pair@$$CB_KPAVCCallbackBase@@@std@@V?$allocator@U?$pair@$$CB_KPAVCCallbackBase@@@std@@@2@@std@@@0@0ABV10@@Z 1000a3b0 f i SteamBase.obj
 0001:000093b0       ??$_Fill@PAV?$_List_iterator@V?$_List_val@U?$pair@$$CBV?$basic_string@DU?$char_traits@D@std@@V?$allocator@D@2@@std@@_N@std@@V?$allocator@U?$pair@$$CBV?$basic_string@DU?$char_traits@D@std@@V?$allocator@D@2@@std@@_N@std@@@2@@std@@@std@@V12@@std@@YAXPAV?$_List_iterator@V?$_List_val@U?$pair@$$CBV?$basic_string@DU?$char_traits@D@std@@V?$allocator@D@2@@std@@_N@std@@V?$allocator@U?$pair@$$CBV?$basic_string@DU?$char_traits@D@std@@V?$allocator@D@2@@std@@_N@std@@@2@@std@@@0@0ABV10@@Z 1000a3b0 f i PatchMW2Experiments.obj
 0001:000093e0       ??$_Copy_backward@PAV?$_List_iterator@V?$_List_val@U?$pair@$$CBV?$basic_string@DU?$char_traits@D@std@@V?$allocator@D@2@@std@@PAUVehicleDef@@@std@@V?$allocator@U?$pair@$$CBV?$basic_string@DU?$char_traits@D@std@@V?$allocator@D@2@@std@@PAUVehicleDef@@@std@@@2@@std@@@std@@PAV12@@std@@YAPAV?$_List_iterator@V?$_List_val@U?$pair@$$CBV?$basic_string@DU?$char_traits@D@std@@V?$allocator@D@2@@std@@PAUVehicleDef@@@std@@V?$allocator@U?$pair@$$CBV?$basic_string@DU?$char_traits@D@std@@V?$allocator@D@2@@std@@PAUVehicleDef@@@std@@@2@@std@@@0@PAV10@00U_Nonscalar_ptr_iterator_tag@0@@Z 1000a3e0 f i PatchMW2LoadVehicleDef.obj
 0001:000093e0       ??$_Copy_backward@PAV?$_List_iterator@V?$_List_val@U?$pair@$$CBV?$basic_string@DU?$char_traits@D@std@@V?$allocator@D@2@@std@@P6AXH@Z@std@@V?$allocator@U?$pair@$$CBV?$basic_string@DU?$char_traits@D@std@@V?$allocator@D@2@@std@@P6AXH@Z@std@@@2@@std@@@std@@PAV12@@std@@YAPAV?$_List_iterator@V?$_List_val@U?$pair@$$CBV?$basic_string@DU?$char_traits@D@std@@V?$allocator@D@2@@std@@P6AXH@Z@std@@V?$allocator@U?$pair@$$CBV?$basic_string@DU?$char_traits@D@std@@V?$allocator@D@2@@std@@P6AXH@Z@std@@@2@@std@@@0@PAV10@00U_Nonscalar_ptr_iterator_tag@0@@Z 1000a3e0 f i GameInterface.obj
 0001:000093e0       ??$_Copy_backward@PAV?$_List_iterator@V?$_List_val@U?$pair@$$CB_K_N@std@@V?$allocator@U?$pair@$$CB_K_N@std@@@2@@std@@@std@@PAV12@@std@@YAPAV?$_List_iterator@V?$_List_val@U?$pair@$$CB_K_N@std@@V?$allocator@U?$pair@$$CB_K_N@std@@@2@@std@@@0@PAV10@00U_Nonscalar_ptr_iterator_tag@0@@Z 1000a3e0 f i SteamBase.obj
 0001:000093e0       ??$_Copy_backward@PAV?$_List_iterator@V?$_List_val@U?$pair@$$CBV?$basic_string@DU?$char_traits@D@std@@V?$allocator@D@2@@std@@_N@std@@V?$allocator@U?$pair@$$CBV?$basic_string@DU?$char_traits@D@std@@V?$allocator@D@2@@std@@_N@std@@@2@@std@@@std@@PAV12@@std@@YAPAV?$_List_iterator@V?$_List_val@U?$pair@$$CBV?$basic_string@DU?$char_traits@D@std@@V?$allocator@D@2@@std@@_N@std@@V?$allocator@U?$pair@$$CBV?$basic_string@DU?$char_traits@D@std@@V?$allocator@D@2@@std@@_N@std@@@2@@std@@@0@PAV10@00U_Nonscalar_ptr_iterator_tag@0@@Z 1000a3e0 f i PatchMW2Experiments.obj
 0001:000093e0       ??$_Copy_backward@PAV?$_List_iterator@V?$_List_val@U?$pair@$$CBK_N@std@@V?$allocator@U?$pair@$$CBK_N@std@@@2@@std@@@std@@PAV12@@std@@YAPAV?$_List_iterator@V?$_List_val@U?$pair@$$CBK_N@std@@V?$allocator@U?$pair@$$CBK_N@std@@@2@@std@@@0@PAV10@00U_Nonscalar_ptr_iterator_tag@0@@Z 1000a3e0 f i PatchMW2AssetRestrict.obj
 0001:000093e0       ??$_Copy_backward@PAV?$_List_iterator@V?$_List_val@U?$pair@$$CB_KPAVCCallbackBase@@@std@@V?$allocator@U?$pair@$$CB_KPAVCCallbackBase@@@std@@@2@@std@@@std@@PAV12@@std@@YAPAV?$_List_iterator@V?$_List_val@U?$pair@$$CB_KPAVCCallbackBase@@@std@@V?$allocator@U?$pair@$$CB_KPAVCCallbackBase@@@std@@@2@@std@@@0@PAV10@00U_Nonscalar_ptr_iterator_tag@0@@Z 1000a3e0 f i SteamBase.obj
 0001:00009410       ?DrawDemoWarning@@YAXXZ    1000a410 f   PatchMW2Branding.obj
 0001:00009490       ?DrawDevStuffHookStub@@YAXXZ 1000a490 f   PatchMW2Branding.obj
 0001:000094a0       ?CL_XStartPrivateMatch_f@@YAXXZ 1000a4a0 f   PatchMW2Branding.obj
 0001:000094c0       ?PatchMW2_Branding@@YAXXZ  1000a4c0 f   PatchMW2Branding.obj
 0001:00009530       ?Cmd_SetViewpos_f@@YAXPAUgentity_s@@@Z 1000a530 f   PatchMW2ClientCommands.obj
 0001:00009660       ?Cmd_SpawnModel_f@@YAXPAUgentity_s@@@Z 1000a660 f   PatchMW2ClientCommands.obj
 0001:00009770       ?Cmd_Status_f@@YAXPAUgentity_s@@@Z 1000a770 f   PatchMW2ClientCommands.obj
 0001:000097f0       ?ClientCommand_custom@@YA_NH@Z 1000a7f0 f   PatchMW2ClientCommands.obj
 0001:00009890       ?ClientCommandHookStub@@YAXXZ 1000a890 f   PatchMW2ClientCommands.obj
 0001:000098b0       ?Cmd_ShouldCommandBeForwarded@@YA_NXZ 1000a8b0 f   PatchMW2ClientCommands.obj
 0001:000098e0       ?ExecuteCommandNotifyHookStub@@YAXXZ 1000a8e0 f   PatchMW2ClientCommands.obj
 0001:000098f0       ?StatusCommandHook@@YAXHPAD@Z 1000a8f0 f   PatchMW2ClientCommands.obj
 0001:00009930       ?PatchMW2_ClientCommands@@YAXXZ 1000a930 f   PatchMW2ClientCommands.obj
 0001:00009990       ?Cmd_Argv@@YAPADH@Z        1000a990 f i PatchMW2ClientCommands.obj
 0001:000099d0       ?Con_ToggleConsole@@YAXXZ  1000a9d0 f   PatchMW2ClientConsole.obj
 0001:00009a10       ?Con_AutoCompleteList@@YAPAPBDPADPAH@Z 1000aa10 f   PatchMW2ClientConsole.obj
 0001:00009c50       ?ConDrawInput_CustomAutoComplete@@YAXXZ 1000ac50 f   PatchMW2ClientConsole.obj
 0001:00009cc0       ?DrawCmdMatchAlternativeStub@@YAXXZ 1000acc0 f   PatchMW2ClientConsole.obj
 0001:00009cd0       ?DrawDvarMatchAlternativeStub@@YAXXZ 1000acd0 f   PatchMW2ClientConsole.obj
 0001:00009cf0       ?Con_DoAutoCompleteCmd@@YAXXZ 1000acf0 f   PatchMW2ClientConsole.obj
 0001:00009da0       ?CompleteCmdMatchAlternativeStub@@YAXXZ 1000ada0 f   PatchMW2ClientConsole.obj
 0001:00009db0       ?CompleteDvarMatchAlternativeStub@@YAXXZ 1000adb0 f   PatchMW2ClientConsole.obj
 0001:00009dc0       ?PatchMW2_ClientConsole@@YAXXZ 1000adc0 f   PatchMW2ClientConsole.obj
 0001:00009ed0       ?ClientConsole_SetAutoComplete@@YAXXZ 1000aed0 f   PatchMW2ClientConsole.obj
 0001:00009ef0       ?CG_ResetFOV@@YAXXZ        1000aef0 f   PatchMW2ClientDvar.obj
 0001:00009f10       ?SetClientDvarHook@@YAXXZ  1000af10 f   PatchMW2ClientDvar.obj
 0001:00009f80       ?PatchMW2_ClientDvar@@YAXXZ 1000af80 f   PatchMW2ClientDvar.obj
 0001:00009fb0       ?FS_FOpenFileReadCurrentThread@@YAXPADPAH@Z 1000afb0 f   PatchMW2CModels.obj
 0001:0000a010       ?ReadCModelSection@@YAXHAAUCModelSectionHeader@@@Z 1000b010 f   PatchMW2CModels.obj
 0001:0000a050       ?FixupCModelSection@@YAXAAUCModelHeader@@AAUCModelSectionHeader@@PAK@Z 1000b050 f   PatchMW2CModels.obj
 0001:0000a0f0       ?Load_VertexBuffer@@YAXPAXPAPAXH@Z 1000b0f0 f   PatchMW2CModels.obj
 0001:0000a120       ?Load_IndexBuffer@@YAXPAXPAPAXH@Z 1000b120 f   PatchMW2CModels.obj
 0001:0000a1a0       ?CreateCModelBuffers@@YAXPAX@Z 1000b1a0 f   PatchMW2CModels.obj
 0001:0000a270       ?LoadCModel@@YAPADPBD@Z    1000b270 f   PatchMW2CModels.obj
 0001:0000a630       ?CModel_Test_f@@YAXXZ      1000b630 f   PatchMW2CModels.obj
 0001:0000a7f0       ?Load_XModelAssetHookFunc@@YA_NPAD@Z 1000b7f0 f   PatchMW2CModels.obj
 0001:0000a990       ?Load_XModelAssetHookStub@@YAXXZ 1000b990 f   PatchMW2CModels.obj
 0001:0000a9b0       ?GetIndexBufferHookFunc@@YAXDPAXPAPAXPAH@Z 1000b9b0 f   PatchMW2CModels.obj
 0001:0000a9e0       ?GetIndexBufferHookStub@@YAXXZ 1000b9e0 f   PatchMW2CModels.obj
 0001:0000aa00       ?GetVertexBufferHookFunc@@YAXDPAXPAPAXPAH@Z 1000ba00 f   PatchMW2CModels.obj
 0001:0000aa30       ?GetVertexBufferHookStub@@YAXXZ 1000ba30 f   PatchMW2CModels.obj
 0001:0000aa50       ?GetIndexBuffer3HookFunc@@YAPAXK@Z 1000ba50 f   PatchMW2CModels.obj
 0001:0000aa70       ?GetIndexBuffer3HookStub@@YAXXZ 1000ba70 f   PatchMW2CModels.obj
 0001:0000aa90       ?GetIndexBaseHookStub@@YAXXZ 1000ba90 f   PatchMW2CModels.obj
 0001:0000aab0       ?XModel_ListTags_f@@YAXXZ  1000bab0 f   PatchMW2CModels.obj
 0001:0000ab50       ?LogBoneIndexGet@@YAXHHPAPAUXModel@@FPAU1@@Z 1000bb50 f   PatchMW2CModels.obj
 0001:0000ac30       ?GetBoneIndexHookStub@@YAXXZ 1000bc30 f   PatchMW2CModels.obj
 0001:0000ac60       ?CL_DObjCreateHookFunc@@YAHPAUDObjModel_s@@HHHHH@Z 1000bc60 f   PatchMW2CModels.obj
 0001:0000ae70       ?UpdateDObjSetBitsHookFunc@@YAXPAK@Z 1000be70 f   PatchMW2CModels.obj
 0001:0000af00       ?UpdateDObjSetBitsHookStub@@YAXXZ 1000bf00 f   PatchMW2CModels.obj
 0001:0000af20       ?DB_RemoveXModelSurfs@@YAXPAUXModelSurfs@@@Z 1000bf20 f   PatchMW2CModels.obj
 0001:0000b140       ?PatchMW2_CModels@@YAXXZ   1000c140 f   PatchMW2CModels.obj
 0001:0000b270       ?ReleaseCModels@@YAXXZ     1000c270 f   PatchMW2CModels.obj
 0001:0000b300       ?ReloadCModel@@YAXPAXH@Z   1000c300 f   PatchMW2CModels.obj
 0001:0000b320       ?ReloadCModels@@YAXXZ      1000c320 f   PatchMW2CModels.obj
 0001:0000b410       ?begin@?$dense_hash_map@KPAXV?$hash_compare@KU?$less@K@std@@@stdext@@U?$equal_to@K@std@@V?$libc_allocator_with_realloc@U?$pair@$$CBKPAX@std@@@google@@@google@@QAE?AU?$dense_hashtable_iterator@U?$pair@$$CBKPAX@std@@KV?$hash_compare@KU?$less@K@std@@@stdext@@USelectKey@?$dense_hash_map@KPAXV?$hash_compare@KU?$less@K@std@@@stdext@@U?$equal_to@K@std@@V?$libc_allocator_with_realloc@U?$pair@$$CBKPAX@std@@@google@@@google@@USetKey@67@U?$equal_to@K@2@V?$libc_allocator_with_realloc@U?$pair@$$CBKPAX@std@@@7@@2@XZ 1000c410 f i PatchMW2CModels.obj
 0001:0000b430       ?clear@?$dense_hash_map@KPAXV?$hash_compare@KU?$less@K@std@@@stdext@@U?$equal_to@K@std@@V?$libc_allocator_with_realloc@U?$pair@$$CBKPAX@std@@@google@@@google@@QAEXXZ 1000c430 f i PatchMW2CModels.obj
 0001:0000b450       ?find@?$dense_hash_map@KPAXV?$hash_compare@KU?$less@K@std@@@stdext@@U?$equal_to@K@std@@V?$libc_allocator_with_realloc@U?$pair@$$CBKPAX@std@@@google@@@google@@QAE?AU?$dense_hashtable_iterator@U?$pair@$$CBKPAX@std@@KV?$hash_compare@KU?$less@K@std@@@stdext@@USelectKey@?$dense_hash_map@KPAXV?$hash_compare@KU?$less@K@std@@@stdext@@U?$equal_to@K@std@@V?$libc_allocator_with_realloc@U?$pair@$$CBKPAX@std@@@google@@@google@@USetKey@67@U?$equal_to@K@2@V?$libc_allocator_with_realloc@U?$pair@$$CBKPAX@std@@@7@@2@ABK@Z 1000c450 f i PatchMW2CModels.obj
 0001:0000b450       ?find@?$dense_hash_map@KPAUCModelAllocData@@V?$hash_compare@KU?$less@K@std@@@stdext@@U?$equal_to@K@std@@V?$libc_allocator_with_realloc@U?$pair@$$CBKPAUCModelAllocData@@@std@@@google@@@google@@QAE?AU?$dense_hashtable_iterator@U?$pair@$$CBKPAUCModelAllocData@@@std@@KV?$hash_compare@KU?$less@K@std@@@stdext@@USelectKey@?$dense_hash_map@KPAUCModelAllocData@@V?$hash_compare@KU?$less@K@std@@@stdext@@U?$equal_to@K@std@@V?$libc_allocator_with_realloc@U?$pair@$$CBKPAUCModelAllocData@@@std@@@google@@@google@@USetKey@67@U?$equal_to@K@2@V?$libc_allocator_with_realloc@U?$pair@$$CBKPAUCModelAllocData@@@std@@@7@@2@ABK@Z 1000c450 f i PatchMW2CModels.obj
 0001:0000b470       ??A?$dense_hash_map@KPAUCModelAllocData@@V?$hash_compare@KU?$less@K@std@@@stdext@@U?$equal_to@K@std@@V?$libc_allocator_with_realloc@U?$pair@$$CBKPAUCModelAllocData@@@std@@@google@@@google@@QAEAAPAUCModelAllocData@@ABK@Z 1000c470 f i PatchMW2CModels.obj
 0001:0000b470       ??A?$dense_hash_map@KPAXV?$hash_compare@KU?$less@K@std@@@stdext@@U?$equal_to@K@std@@V?$libc_allocator_with_realloc@U?$pair@$$CBKPAX@std@@@google@@@google@@QAEAAPAXABK@Z 1000c470 f i PatchMW2CModels.obj
 0001:0000b490       ?end@?$dense_hash_map@KPAXV?$hash_compare@KU?$less@K@std@@@stdext@@U?$equal_to@K@std@@V?$libc_allocator_with_realloc@U?$pair@$$CBKPAX@std@@@google@@@google@@QAE?AU?$dense_hashtable_iterator@U?$pair@$$CBKPAX@std@@KV?$hash_compare@KU?$less@K@std@@@stdext@@USelectKey@?$dense_hash_map@KPAXV?$hash_compare@KU?$less@K@std@@@stdext@@U?$equal_to@K@std@@V?$libc_allocator_with_realloc@U?$pair@$$CBKPAX@std@@@google@@@google@@USetKey@67@U?$equal_to@K@2@V?$libc_allocator_with_realloc@U?$pair@$$CBKPAX@std@@@7@@2@XZ 1000c490 f i PatchMW2CModels.obj
 0001:0000b490       ?end@?$dense_hash_map@KPAUCModelAllocData@@V?$hash_compare@KU?$less@K@std@@@stdext@@U?$equal_to@K@std@@V?$libc_allocator_with_realloc@U?$pair@$$CBKPAUCModelAllocData@@@std@@@google@@@google@@QAE?AU?$dense_hashtable_iterator@U?$pair@$$CBKPAUCModelAllocData@@@std@@KV?$hash_compare@KU?$less@K@std@@@stdext@@USelectKey@?$dense_hash_map@KPAUCModelAllocData@@V?$hash_compare@KU?$less@K@std@@@stdext@@U?$equal_to@K@std@@V?$libc_allocator_with_realloc@U?$pair@$$CBKPAUCModelAllocData@@@std@@@google@@@google@@USetKey@67@U?$equal_to@K@2@V?$libc_allocator_with_realloc@U?$pair@$$CBKPAUCModelAllocData@@@std@@@7@@2@XZ 1000c490 f i PatchMW2CModels.obj
 0001:0000b4b0       ?set_empty_key@?$dense_hash_map@KPAXV?$hash_compare@KU?$less@K@std@@@stdext@@U?$equal_to@K@std@@V?$libc_allocator_with_realloc@U?$pair@$$CBKPAX@std@@@google@@@google@@QAEXABK@Z 1000c4b0 f i PatchMW2CModels.obj
 0001:0000b4b0       ?set_empty_key@?$dense_hash_map@KPAUCModelAllocData@@V?$hash_compare@KU?$less@K@std@@@stdext@@U?$equal_to@K@std@@V?$libc_allocator_with_realloc@U?$pair@$$CBKPAUCModelAllocData@@@std@@@google@@@google@@QAEXABK@Z 1000c4b0 f i PatchMW2CModels.obj
 0001:0000b4e0       ?erase@?$dense_hash_map@KPAUCModelAllocData@@V?$hash_compare@KU?$less@K@std@@@stdext@@U?$equal_to@K@std@@V?$libc_allocator_with_realloc@U?$pair@$$CBKPAUCModelAllocData@@@std@@@google@@@google@@QAEXU?$dense_hashtable_iterator@U?$pair@$$CBKPAUCModelAllocData@@@std@@KV?$hash_compare@KU?$less@K@std@@@stdext@@USelectKey@?$dense_hash_map@KPAUCModelAllocData@@V?$hash_compare@KU?$less@K@std@@@stdext@@U?$equal_to@K@std@@V?$libc_allocator_with_realloc@U?$pair@$$CBKPAUCModelAllocData@@@std@@@google@@@google@@USetKey@67@U?$equal_to@K@2@V?$libc_allocator_with_realloc@U?$pair@$$CBKPAUCModelAllocData@@@std@@@7@@2@@Z 1000c4e0 f i PatchMW2CModels.obj
 0001:0000b4e0       ?erase@?$dense_hash_map@KPAXV?$hash_compare@KU?$less@K@std@@@stdext@@U?$equal_to@K@std@@V?$libc_allocator_with_realloc@U?$pair@$$CBKPAX@std@@@google@@@google@@QAEXU?$dense_hashtable_iterator@U?$pair@$$CBKPAX@std@@KV?$hash_compare@KU?$less@K@std@@@stdext@@USelectKey@?$dense_hash_map@KPAXV?$hash_compare@KU?$less@K@std@@@stdext@@U?$equal_to@K@std@@V?$libc_allocator_with_realloc@U?$pair@$$CBKPAX@std@@@google@@@google@@USetKey@67@U?$equal_to@K@2@V?$libc_allocator_with_realloc@U?$pair@$$CBKPAX@std@@@7@@2@@Z 1000c4e0 f i PatchMW2CModels.obj
 0001:0000b510       ??C?$dense_hashtable_const_iterator@U?$pair@$$CBKPAX@std@@KV?$hash_compare@KU?$less@K@std@@@stdext@@USelectKey@?$dense_hash_map@KPAXV?$hash_compare@KU?$less@K@std@@@stdext@@U?$equal_to@K@std@@V?$libc_allocator_with_realloc@U?$pair@$$CBKPAX@std@@@google@@@google@@USetKey@67@U?$equal_to@K@2@V?$libc_allocator_with_realloc@U?$pair@$$CBKPAX@std@@@7@@google@@QBEPBU?$pair@$$CBKPAX@std@@XZ 1000c510 f i PatchMW2CModels.obj
 0001:0000b510       ??C?$dense_hashtable_const_iterator@U?$pair@$$CBV?$basic_string@DU?$char_traits@D@std@@V?$allocator@D@2@@std@@G@std@@V?$basic_string@DU?$char_traits@D@std@@V?$allocator@D@2@@2@V?$hash_compare@V?$basic_string@DU?$char_traits@D@std@@V?$allocator@D@2@@std@@U?$less@V?$basic_string@DU?$char_traits@D@std@@V?$allocator@D@2@@std@@@2@@stdext@@USelectKey@?$dense_hash_map@V?$basic_string@DU?$char_traits@D@std@@V?$allocator@D@2@@std@@GV?$hash_compare@V?$basic_string@DU?$char_traits@D@std@@V?$allocator@D@2@@std@@U?$less@V?$basic_string@DU?$char_traits@D@std@@V?$allocator@D@2@@std@@@2@@stdext@@U?$equal_to@V?$basic_string@DU?$char_traits@D@std@@V?$allocator@D@2@@std@@@2@V?$libc_allocator_with_realloc@U?$pair@$$CBV?$basic_string@DU?$char_traits@D@std@@V?$allocator@D@2@@std@@G@std@@@google@@@google@@USetKey@78@U?$equal_to@V?$basic_string@DU?$char_traits@D@std@@V?$allocator@D@2@@std@@@2@V?$libc_allocator_with_realloc@U?$pair@$$CBV?$basic_string@DU?$char_traits@D@std@@V?$allocator@D@2@@std@@G@std@@@8@@google@@QBEPBU?$pair@$$CBV?$basic_string@DU?$char_traits@D@std@@V?$allocator@D@2@@std@@G@std@@XZ 1000c510 f i PatchMW2StringList.obj
 0001:0000b530       ??E?$dense_hashtable_const_iterator@U?$pair@$$CBKPAX@std@@KV?$hash_compare@KU?$less@K@std@@@stdext@@USelectKey@?$dense_hash_map@KPAXV?$hash_compare@KU?$less@K@std@@@stdext@@U?$equal_to@K@std@@V?$libc_allocator_with_realloc@U?$pair@$$CBKPAX@std@@@google@@@google@@USetKey@67@U?$equal_to@K@2@V?$libc_allocator_with_realloc@U?$pair@$$CBKPAX@std@@@7@@google@@QAE?AU01@H@Z 1000c530 f i PatchMW2CModels.obj
 0001:0000b580       ?clear@?$dense_hashtable@U?$pair@$$CBKPAX@std@@KV?$hash_compare@KU?$less@K@std@@@stdext@@USelectKey@?$dense_hash_map@KPAXV?$hash_compare@KU?$less@K@std@@@stdext@@U?$equal_to@K@std@@V?$libc_allocator_with_realloc@U?$pair@$$CBKPAX@std@@@google@@@google@@USetKey@67@U?$equal_to@K@2@V?$libc_allocator_with_realloc@U?$pair@$$CBKPAX@std@@@7@@google@@QAEXXZ 1000c580 f i PatchMW2CModels.obj
 0001:0000b5c0       ?find@?$dense_hashtable@U?$pair@$$CBKPAX@std@@KV?$hash_compare@KU?$less@K@std@@@stdext@@USelectKey@?$dense_hash_map@KPAXV?$hash_compare@KU?$less@K@std@@@stdext@@U?$equal_to@K@std@@V?$libc_allocator_with_realloc@U?$pair@$$CBKPAX@std@@@google@@@google@@USetKey@67@U?$equal_to@K@2@V?$libc_allocator_with_realloc@U?$pair@$$CBKPAX@std@@@7@@google@@QAE?AU?$dense_hashtable_iterator@U?$pair@$$CBKPAX@std@@KV?$hash_compare@KU?$less@K@std@@@stdext@@USelectKey@?$dense_hash_map@KPAXV?$hash_compare@KU?$less@K@std@@@stdext@@U?$equal_to@K@std@@V?$libc_allocator_with_realloc@U?$pair@$$CBKPAX@std@@@google@@@google@@USetKey@67@U?$equal_to@K@2@V?$libc_allocator_with_realloc@U?$pair@$$CBKPAX@std@@@7@@2@ABK@Z 1000c5c0 f i PatchMW2CModels.obj
 0001:0000b5c0       ?find@?$dense_hashtable@U?$pair@$$CBKPAUCModelAllocData@@@std@@KV?$hash_compare@KU?$less@K@std@@@stdext@@USelectKey@?$dense_hash_map@KPAUCModelAllocData@@V?$hash_compare@KU?$less@K@std@@@stdext@@U?$equal_to@K@std@@V?$libc_allocator_with_realloc@U?$pair@$$CBKPAUCModelAllocData@@@std@@@google@@@google@@USetKey@67@U?$equal_to@K@2@V?$libc_allocator_with_realloc@U?$pair@$$CBKPAUCModelAllocData@@@std@@@7@@google@@QAE?AU?$dense_hashtable_iterator@U?$pair@$$CBKPAUCModelAllocData@@@std@@KV?$hash_compare@KU?$less@K@std@@@stdext@@USelectKey@?$dense_hash_map@KPAUCModelAllocData@@V?$hash_compare@KU?$less@K@std@@@stdext@@U?$equal_to@K@std@@V?$libc_allocator_with_realloc@U?$pair@$$CBKPAUCModelAllocData@@@std@@@google@@@google@@USetKey@67@U?$equal_to@K@2@V?$libc_allocator_with_realloc@U?$pair@$$CBKPAUCModelAllocData@@@std@@@7@@2@ABK@Z 1000c5c0 f i PatchMW2CModels.obj
 0001:0000b650       ?set_empty_key@?$dense_hashtable@U?$pair@$$CBKPAUCModelAllocData@@@std@@KV?$hash_compare@KU?$less@K@std@@@stdext@@USelectKey@?$dense_hash_map@KPAUCModelAllocData@@V?$hash_compare@KU?$less@K@std@@@stdext@@U?$equal_to@K@std@@V?$libc_allocator_with_realloc@U?$pair@$$CBKPAUCModelAllocData@@@std@@@google@@@google@@USetKey@67@U?$equal_to@K@2@V?$libc_allocator_with_realloc@U?$pair@$$CBKPAUCModelAllocData@@@std@@@7@@google@@QAEXABU?$pair@$$CBKPAUCModelAllocData@@@std@@@Z 1000c650 f i PatchMW2CModels.obj
 0001:0000b650       ?set_empty_key@?$dense_hashtable@U?$pair@$$CBKPAX@std@@KV?$hash_compare@KU?$less@K@std@@@stdext@@USelectKey@?$dense_hash_map@KPAXV?$hash_compare@KU?$less@K@std@@@stdext@@U?$equal_to@K@std@@V?$libc_allocator_with_realloc@U?$pair@$$CBKPAX@std@@@google@@@google@@USetKey@67@U?$equal_to@K@2@V?$libc_allocator_with_realloc@U?$pair@$$CBKPAX@std@@@7@@google@@QAEXABU?$pair@$$CBKPAX@std@@@Z 1000c650 f i PatchMW2CModels.obj
 0001:0000b6c0       ?erase@?$dense_hashtable@U?$pair@$$CBKPAUCModelAllocData@@@std@@KV?$hash_compare@KU?$less@K@std@@@stdext@@USelectKey@?$dense_hash_map@KPAUCModelAllocData@@V?$hash_compare@KU?$less@K@std@@@stdext@@U?$equal_to@K@std@@V?$libc_allocator_with_realloc@U?$pair@$$CBKPAUCModelAllocData@@@std@@@google@@@google@@USetKey@67@U?$equal_to@K@2@V?$libc_allocator_with_realloc@U?$pair@$$CBKPAUCModelAllocData@@@std@@@7@@google@@QAEXU?$dense_hashtable_iterator@U?$pair@$$CBKPAUCModelAllocData@@@std@@KV?$hash_compare@KU?$less@K@std@@@stdext@@USelectKey@?$dense_hash_map@KPAUCModelAllocData@@V?$hash_compare@KU?$less@K@std@@@stdext@@U?$equal_to@K@std@@V?$libc_allocator_with_realloc@U?$pair@$$CBKPAUCModelAllocData@@@std@@@google@@@google@@USetKey@67@U?$equal_to@K@2@V?$libc_allocator_with_realloc@U?$pair@$$CBKPAUCModelAllocData@@@std@@@7@@2@@Z 1000c6c0 f i PatchMW2CModels.obj
 0001:0000b6c0       ?erase@?$dense_hashtable@U?$pair@$$CBKPAX@std@@KV?$hash_compare@KU?$less@K@std@@@stdext@@USelectKey@?$dense_hash_map@KPAXV?$hash_compare@KU?$less@K@std@@@stdext@@U?$equal_to@K@std@@V?$libc_allocator_with_realloc@U?$pair@$$CBKPAX@std@@@google@@@google@@USetKey@67@U?$equal_to@K@2@V?$libc_allocator_with_realloc@U?$pair@$$CBKPAX@std@@@7@@google@@QAEXU?$dense_hashtable_iterator@U?$pair@$$CBKPAX@std@@KV?$hash_compare@KU?$less@K@std@@@stdext@@USelectKey@?$dense_hash_map@KPAXV?$hash_compare@KU?$less@K@std@@@stdext@@U?$equal_to@K@std@@V?$libc_allocator_with_realloc@U?$pair@$$CBKPAX@std@@@google@@@google@@USetKey@67@U?$equal_to@K@2@V?$libc_allocator_with_realloc@U?$pair@$$CBKPAX@std@@@7@@2@@Z 1000c6c0 f i PatchMW2CModels.obj
 0001:0000b720       ??0?$pair@$$CBKPAX@std@@QAE@ABK$$QAPAX@Z 1000c720 f i PatchMW2CModels.obj
 0001:0000b720       ??0?$pair@$$CBKPAUCModelAllocData@@@std@@QAE@ABK$$QAPAUCModelAllocData@@@Z 1000c720 f i PatchMW2CModels.obj
 0001:0000b750       ??8?$_List_const_iterator@V?$_List_val@U?$pair@$$CB_K_N@std@@V?$allocator@U?$pair@$$CB_K_N@std@@@2@@std@@@std@@QBE_NABV01@@Z 1000c750 f i SteamBase.obj
 0001:0000b750       ??8?$_List_const_iterator@V?$_List_val@U?$pair@$$CBV?$basic_string@DU?$char_traits@D@std@@V?$allocator@D@2@@std@@_N@std@@V?$allocator@U?$pair@$$CBV?$basic_string@DU?$char_traits@D@std@@V?$allocator@D@2@@std@@_N@std@@@2@@std@@@std@@QBE_NABV01@@Z 1000c750 f i PatchMW2CModels.obj
 0001:0000b750       ??8?$_List_const_iterator@V?$_List_val@U?$pair@$$CBV?$basic_string@DU?$char_traits@D@std@@V?$allocator@D@2@@std@@P6AXH@Z@std@@V?$allocator@U?$pair@$$CBV?$basic_string@DU?$char_traits@D@std@@V?$allocator@D@2@@std@@P6AXH@Z@std@@@2@@std@@@std@@QBE_NABV01@@Z 1000c750 f i GameInterface.obj
 0001:0000b750       ??8?$_Tree_const_iterator@V?$_Tree_val@V?$_Tmap_traits@V?$basic_string@DU?$char_traits@D@std@@V?$allocator@D@2@@std@@HU?$less@V?$basic_string@DU?$char_traits@D@std@@V?$allocator@D@2@@std@@@2@V?$allocator@U?$pair@$$CBV?$basic_string@DU?$char_traits@D@std@@V?$allocator@D@2@@std@@H@std@@@2@$0A@@std@@@std@@@std@@QBE_NABV01@@Z 1000c750 f i PatchMW2RemoteConsoleSV.obj
 0001:0000b750       ??8?$_Tree_const_iterator@V?$_Tree_val@V?$_Tmap_traits@V?$basic_string@DU?$char_traits@D@std@@V?$allocator@D@2@@std@@Uscr_funcdef_t@@U?$less@V?$basic_string@DU?$char_traits@D@std@@V?$allocator@D@2@@std@@@2@V?$allocator@U?$pair@$$CBV?$basic_string@DU?$char_traits@D@std@@V?$allocator@D@2@@std@@Uscr_funcdef_t@@@std@@@2@$0A@@std@@@std@@@std@@QBE_NABV01@@Z 1000c750 f i Script.obj
 0001:0000b750       ??8?$_List_const_iterator@V?$_List_val@U?$pair@$$CBV?$basic_string@DU?$char_traits@D@std@@V?$allocator@D@2@@std@@PAUVehicleDef@@@std@@V?$allocator@U?$pair@$$CBV?$basic_string@DU?$char_traits@D@std@@V?$allocator@D@2@@std@@PAUVehicleDef@@@std@@@2@@std@@@std@@QBE_NABV01@@Z 1000c750 f i PatchMW2LoadVehicleDef.obj
 0001:0000b750       ??8?$_Tree_const_iterator@V?$_Tree_val@V?$_Tmap_traits@_K_JU?$less@_K@std@@V?$allocator@U?$pair@$$CB_K_J@std@@@2@$0A@@std@@@std@@@std@@QBE_NABV01@@Z 1000c750 f i PatchMW2PreAuthenticate.obj
 0001:0000b750       ??8?$_List_const_iterator@V?$_List_val@U?$pair@$$CB_KPAVCCallbackBase@@@std@@V?$allocator@U?$pair@$$CB_KPAVCCallbackBase@@@std@@@2@@std@@@std@@QBE_NABV01@@Z 1000c750 f i SteamBase.obj
 0001:0000b770       ??E?$dense_hashtable_const_iterator@U?$pair@$$CBKPAUCModelAllocData@@@std@@KV?$hash_compare@KU?$less@K@std@@@stdext@@USelectKey@?$dense_hash_map@KPAUCModelAllocData@@V?$hash_compare@KU?$less@K@std@@@stdext@@U?$equal_to@K@std@@V?$libc_allocator_with_realloc@U?$pair@$$CBKPAUCModelAllocData@@@std@@@google@@@google@@USetKey@67@U?$equal_to@K@2@V?$libc_allocator_with_realloc@U?$pair@$$CBKPAUCModelAllocData@@@std@@@7@@google@@QAEAAU01@XZ 1000c770 f i PatchMW2CModels.obj
 0001:0000b770       ??E?$dense_hashtable_const_iterator@U?$pair@$$CBKPAX@std@@KV?$hash_compare@KU?$less@K@std@@@stdext@@USelectKey@?$dense_hash_map@KPAXV?$hash_compare@KU?$less@K@std@@@stdext@@U?$equal_to@K@std@@V?$libc_allocator_with_realloc@U?$pair@$$CBKPAX@std@@@google@@@google@@USetKey@67@U?$equal_to@K@2@V?$libc_allocator_with_realloc@U?$pair@$$CBKPAX@std@@@7@@google@@QAEAAU01@XZ 1000c770 f i PatchMW2CModels.obj
 0001:0000b7a0       ?fill_range_with_empty@?$dense_hashtable@U?$pair@$$CBKPAX@std@@KV?$hash_compare@KU?$less@K@std@@@stdext@@USelectKey@?$dense_hash_map@KPAXV?$hash_compare@KU?$less@K@std@@@stdext@@U?$equal_to@K@std@@V?$libc_allocator_with_realloc@U?$pair@$$CBKPAX@std@@@google@@@google@@USetKey@67@U?$equal_to@K@2@V?$libc_allocator_with_realloc@U?$pair@$$CBKPAX@std@@@7@@google@@AAEXPAU?$pair@$$CBKPAX@std@@0@Z 1000c7a0 f i PatchMW2CModels.obj
 0001:0000b7a0       ?fill_range_with_empty@?$dense_hashtable@U?$pair@$$CBKPAUCModelAllocData@@@std@@KV?$hash_compare@KU?$less@K@std@@@stdext@@USelectKey@?$dense_hash_map@KPAUCModelAllocData@@V?$hash_compare@KU?$less@K@std@@@stdext@@U?$equal_to@K@std@@V?$libc_allocator_with_realloc@U?$pair@$$CBKPAUCModelAllocData@@@std@@@google@@@google@@USetKey@67@U?$equal_to@K@2@V?$libc_allocator_with_realloc@U?$pair@$$CBKPAUCModelAllocData@@@std@@@7@@google@@AAEXPAU?$pair@$$CBKPAUCModelAllocData@@@std@@0@Z 1000c7a0 f i PatchMW2CModels.obj
 0001:0000b7d0       ?clear_to_size@?$dense_hashtable@U?$pair@$$CBKPAUCModelAllocData@@@std@@KV?$hash_compare@KU?$less@K@std@@@stdext@@USelectKey@?$dense_hash_map@KPAUCModelAllocData@@V?$hash_compare@KU?$less@K@std@@@stdext@@U?$equal_to@K@std@@V?$libc_allocator_with_realloc@U?$pair@$$CBKPAUCModelAllocData@@@std@@@google@@@google@@USetKey@67@U?$equal_to@K@2@V?$libc_allocator_with_realloc@U?$pair@$$CBKPAUCModelAllocData@@@std@@@7@@google@@AAEXI@Z 1000c7d0 f i PatchMW2CModels.obj
 0001:0000b7d0       ?clear_to_size@?$dense_hashtable@U?$pair@$$CBKPAX@std@@KV?$hash_compare@KU?$less@K@std@@@stdext@@USelectKey@?$dense_hash_map@KPAXV?$hash_compare@KU?$less@K@std@@@stdext@@U?$equal_to@K@std@@V?$libc_allocator_with_realloc@U?$pair@$$CBKPAX@std@@@google@@@google@@USetKey@67@U?$equal_to@K@2@V?$libc_allocator_with_realloc@U?$pair@$$CBKPAX@std@@@7@@google@@AAEXI@Z 1000c7d0 f i PatchMW2CModels.obj
 0001:0000b890       ?destroy_buckets@?$dense_hashtable@U?$pair@$$CBKPAX@std@@KV?$hash_compare@KU?$less@K@std@@@stdext@@USelectKey@?$dense_hash_map@KPAXV?$hash_compare@KU?$less@K@std@@@stdext@@U?$equal_to@K@std@@V?$libc_allocator_with_realloc@U?$pair@$$CBKPAX@std@@@google@@@google@@USetKey@67@U?$equal_to@K@2@V?$libc_allocator_with_realloc@U?$pair@$$CBKPAX@std@@@7@@google@@AAEXII@Z 1000c890 f i PatchMW2CModels.obj
 0001:0000b890       ?destroy_buckets@?$dense_hashtable@U?$pair@$$CBKPAUCModelAllocData@@@std@@KV?$hash_compare@KU?$less@K@std@@@stdext@@USelectKey@?$dense_hash_map@KPAUCModelAllocData@@V?$hash_compare@KU?$less@K@std@@@stdext@@U?$equal_to@K@std@@V?$libc_allocator_with_realloc@U?$pair@$$CBKPAUCModelAllocData@@@std@@@google@@@google@@USetKey@67@U?$equal_to@K@2@V?$libc_allocator_with_realloc@U?$pair@$$CBKPAUCModelAllocData@@@std@@@7@@google@@AAEXII@Z 1000c890 f i PatchMW2CModels.obj
 0001:0000b8c0       ?find_position@?$dense_hashtable@U?$pair@$$CBKPAUCModelAllocData@@@std@@KV?$hash_compare@KU?$less@K@std@@@stdext@@USelectKey@?$dense_hash_map@KPAUCModelAllocData@@V?$hash_compare@KU?$less@K@std@@@stdext@@U?$equal_to@K@std@@V?$libc_allocator_with_realloc@U?$pair@$$CBKPAUCModelAllocData@@@std@@@google@@@google@@USetKey@67@U?$equal_to@K@2@V?$libc_allocator_with_realloc@U?$pair@$$CBKPAUCModelAllocData@@@std@@@7@@google@@ABE?AU?$pair@II@std@@ABK@Z 1000c8c0 f i PatchMW2CModels.obj
 0001:0000b8c0       ?find_position@?$dense_hashtable@U?$pair@$$CBKPAX@std@@KV?$hash_compare@KU?$less@K@std@@@stdext@@USelectKey@?$dense_hash_map@KPAXV?$hash_compare@KU?$less@K@std@@@stdext@@U?$equal_to@K@std@@V?$libc_allocator_with_realloc@U?$pair@$$CBKPAX@std@@@google@@@google@@USetKey@67@U?$equal_to@K@2@V?$libc_allocator_with_realloc@U?$pair@$$CBKPAX@std@@@7@@google@@ABE?AU?$pair@II@std@@ABK@Z 1000c8c0 f i PatchMW2CModels.obj
 0001:0000b9d0       ?allocate@?$libc_allocator_with_realloc@U?$pair@$$CBKPAX@std@@@google@@QAEPAU?$pair@$$CBKPAX@std@@IPBU34@@Z 1000c9d0 f i PatchMW2CModels.obj
 0001:0000b9d0       ?allocate@?$libc_allocator_with_realloc@U?$pair@$$CBKPAUCModelAllocData@@@std@@@google@@QAEPAU?$pair@$$CBKPAUCModelAllocData@@@std@@IPBU34@@Z 1000c9d0 f i PatchMW2CModels.obj
 0001:0000b9f0       ?set_consider_shrink@?$sh_hashtable_settings@V?$basic_string@DU?$char_traits@D@std@@V?$allocator@D@2@@std@@V?$hash_compare@V?$basic_string@DU?$char_traits@D@std@@V?$allocator@D@2@@std@@U?$less@V?$basic_string@DU?$char_traits@D@std@@V?$allocator@D@2@@std@@@2@@stdext@@I$03@@QAEX_N@Z 1000c9f0 f i PatchMW2LocalizedStrings.obj
 0001:0000b9f0       ?set_consider_shrink@?$sh_hashtable_settings@KV?$hash_compare@KU?$less@K@std@@@stdext@@I$03@@QAEX_N@Z 1000c9f0 f i PatchMW2CModels.obj
 0001:0000ba10       ?set_use_empty@?$sh_hashtable_settings@V?$basic_string@DU?$char_traits@D@std@@V?$allocator@D@2@@std@@V?$hash_compare@V?$basic_string@DU?$char_traits@D@std@@V?$allocator@D@2@@std@@U?$less@V?$basic_string@DU?$char_traits@D@std@@V?$allocator@D@2@@std@@@2@@stdext@@I$03@@QAEX_N@Z 1000ca10 f i PatchMW2LocalizedStrings.obj
 0001:0000ba10       ?set_use_empty@?$sh_hashtable_settings@KV?$hash_compare@KU?$less@K@std@@@stdext@@I$03@@QAEX_N@Z 1000ca10 f i PatchMW2CModels.obj
 0001:0000ba30       ??0?$_Pair_base@$$CBKPAUCModelAllocData@@@std@@QAE@ABK$$QAPAUCModelAllocData@@@Z 1000ca30 f i PatchMW2CModels.obj
 0001:0000ba30       ??0?$_Pair_base@$$CBKPAX@std@@QAE@ABK$$QAPAX@Z 1000ca30 f i PatchMW2CModels.obj
 0001:0000ba60       ?set_value@?$dense_hashtable@U?$pair@$$CBKPAX@std@@KV?$hash_compare@KU?$less@K@std@@@stdext@@USelectKey@?$dense_hash_map@KPAXV?$hash_compare@KU?$less@K@std@@@stdext@@U?$equal_to@K@std@@V?$libc_allocator_with_realloc@U?$pair@$$CBKPAX@std@@@google@@@google@@USetKey@67@U?$equal_to@K@2@V?$libc_allocator_with_realloc@U?$pair@$$CBKPAX@std@@@7@@google@@AAEXPAU?$pair@$$CBKPAX@std@@ABU34@@Z 1000ca60 f i PatchMW2CModels.obj
 0001:0000ba60       ?set_value@?$dense_hashtable@U?$pair@$$CBKPAUCModelAllocData@@@std@@KV?$hash_compare@KU?$less@K@std@@@stdext@@USelectKey@?$dense_hash_map@KPAUCModelAllocData@@V?$hash_compare@KU?$less@K@std@@@stdext@@U?$equal_to@K@std@@V?$libc_allocator_with_realloc@U?$pair@$$CBKPAUCModelAllocData@@@std@@@google@@@google@@USetKey@67@U?$equal_to@K@2@V?$libc_allocator_with_realloc@U?$pair@$$CBKPAUCModelAllocData@@@std@@@7@@google@@AAEXPAU?$pair@$$CBKPAUCModelAllocData@@@std@@ABU34@@Z 1000ca60 f i PatchMW2CModels.obj
 0001:0000bae0       ?set_deleted@?$dense_hashtable@U?$pair@$$CBKPAUCModelAllocData@@@std@@KV?$hash_compare@KU?$less@K@std@@@stdext@@USelectKey@?$dense_hash_map@KPAUCModelAllocData@@V?$hash_compare@KU?$less@K@std@@@stdext@@U?$equal_to@K@std@@V?$libc_allocator_with_realloc@U?$pair@$$CBKPAUCModelAllocData@@@std@@@google@@@google@@USetKey@67@U?$equal_to@K@2@V?$libc_allocator_with_realloc@U?$pair@$$CBKPAUCModelAllocData@@@std@@@7@@google@@AAE_NAAU?$dense_hashtable_iterator@U?$pair@$$CBKPAUCModelAllocData@@@std@@KV?$hash_compare@KU?$less@K@std@@@stdext@@USelectKey@?$dense_hash_map@KPAUCModelAllocData@@V?$hash_compare@KU?$less@K@std@@@stdext@@U?$equal_to@K@std@@V?$libc_allocator_with_realloc@U?$pair@$$CBKPAUCModelAllocData@@@std@@@google@@@google@@USetKey@67@U?$equal_to@K@2@V?$libc_allocator_with_realloc@U?$pair@$$CBKPAUCModelAllocData@@@std@@@7@@2@@Z 1000cae0 f i PatchMW2CModels.obj
 0001:0000bae0       ?set_deleted@?$dense_hashtable@U?$pair@$$CBKPAX@std@@KV?$hash_compare@KU?$less@K@std@@@stdext@@USelectKey@?$dense_hash_map@KPAXV?$hash_compare@KU?$less@K@std@@@stdext@@U?$equal_to@K@std@@V?$libc_allocator_with_realloc@U?$pair@$$CBKPAX@std@@@google@@@google@@USetKey@67@U?$equal_to@K@2@V?$libc_allocator_with_realloc@U?$pair@$$CBKPAX@std@@@7@@google@@AAE_NAAU?$dense_hashtable_iterator@U?$pair@$$CBKPAX@std@@KV?$hash_compare@KU?$less@K@std@@@stdext@@USelectKey@?$dense_hash_map@KPAXV?$hash_compare@KU?$less@K@std@@@stdext@@U?$equal_to@K@std@@V?$libc_allocator_with_realloc@U?$pair@$$CBKPAX@std@@@google@@@google@@USetKey@67@U?$equal_to@K@2@V?$libc_allocator_with_realloc@U?$pair@$$CBKPAX@std@@@7@@2@@Z 1000cae0 f i PatchMW2CModels.obj
 0001:0000bb30       ?size@?$dense_hashtable@U?$pair@$$CBKPAUCModelAllocData@@@std@@KV?$hash_compare@KU?$less@K@std@@@stdext@@USelectKey@?$dense_hash_map@KPAUCModelAllocData@@V?$hash_compare@KU?$less@K@std@@@stdext@@U?$equal_to@K@std@@V?$libc_allocator_with_realloc@U?$pair@$$CBKPAUCModelAllocData@@@std@@@google@@@google@@USetKey@67@U?$equal_to@K@2@V?$libc_allocator_with_realloc@U?$pair@$$CBKPAUCModelAllocData@@@std@@@7@@google@@QBEIXZ 1000cb30 f i PatchMW2CModels.obj
 0001:0000bb30       ?size@?$dense_hashtable@U?$pair@$$CBKPAX@std@@KV?$hash_compare@KU?$less@K@std@@@stdext@@USelectKey@?$dense_hash_map@KPAXV?$hash_compare@KU?$less@K@std@@@stdext@@U?$equal_to@K@std@@V?$libc_allocator_with_realloc@U?$pair@$$CBKPAX@std@@@google@@@google@@USetKey@67@U?$equal_to@K@2@V?$libc_allocator_with_realloc@U?$pair@$$CBKPAX@std@@@7@@google@@QBEIXZ 1000cb30 f i PatchMW2CModels.obj
 0001:0000bb50       ?bucket_count@?$dense_hashtable@U?$pair@$$CBKPAX@std@@KV?$hash_compare@KU?$less@K@std@@@stdext@@USelectKey@?$dense_hash_map@KPAXV?$hash_compare@KU?$less@K@std@@@stdext@@U?$equal_to@K@std@@V?$libc_allocator_with_realloc@U?$pair@$$CBKPAX@std@@@google@@@google@@USetKey@67@U?$equal_to@K@2@V?$libc_allocator_with_realloc@U?$pair@$$CBKPAX@std@@@7@@google@@QBEIXZ 1000cb50 f i PatchMW2CModels.obj
 0001:0000bb50       ?bucket_count@?$dense_hashtable@U?$pair@$$CBKPAUCModelAllocData@@@std@@KV?$hash_compare@KU?$less@K@std@@@stdext@@USelectKey@?$dense_hash_map@KPAUCModelAllocData@@V?$hash_compare@KU?$less@K@std@@@stdext@@U?$equal_to@K@std@@V?$libc_allocator_with_realloc@U?$pair@$$CBKPAUCModelAllocData@@@std@@@google@@@google@@USetKey@67@U?$equal_to@K@2@V?$libc_allocator_with_realloc@U?$pair@$$CBKPAUCModelAllocData@@@std@@@7@@google@@QBEIXZ 1000cb50 f i PatchMW2CModels.obj
 0001:0000bb70       ?_Begin@?$_Hash@V?$_Umap_traits@V?$basic_string@DU?$char_traits@D@std@@V?$allocator@D@2@@std@@P6AXH@ZV?$_Hash_compare@V?$basic_string@DU?$char_traits@D@std@@V?$allocator@D@2@@std@@V?$hash@V?$basic_string@DU?$char_traits@D@std@@V?$allocator@D@2@@std@@@2@U?$equal_to@V?$basic_string@DU?$char_traits@D@std@@V?$allocator@D@2@@std@@@2@@2@V?$allocator@U?$pair@$$CBV?$basic_string@DU?$char_traits@D@std@@V?$allocator@D@2@@std@@P6AXH@Z@std@@@2@$0A@@tr1@std@@@std@@IAE?AV?$_List_iterator@V?$_List_val@U?$pair@$$CBV?$basic_string@DU?$char_traits@D@std@@V?$allocator@D@2@@std@@P6AXH@Z@std@@V?$allocator@U?$pair@$$CBV?$basic_string@DU?$char_traits@D@std@@V?$allocator@D@2@@std@@P6AXH@Z@std@@@2@@std@@@2@I@Z 1000cb70 f i GameInterface.obj
 0001:0000bb70       ?_Begin@?$_Hash@V?$_Umap_traits@_K_NV?$_Hash_compare@_KV?$hash@_K@std@@U?$equal_to@_K@2@@std@@V?$allocator@U?$pair@$$CB_K_N@std@@@2@$0A@@tr1@std@@@std@@IAE?AV?$_List_iterator@V?$_List_val@U?$pair@$$CB_K_N@std@@V?$allocator@U?$pair@$$CB_K_N@std@@@2@@std@@@2@I@Z 1000cb70 f i SteamBase.obj
 0001:0000bb70       ?_Begin@?$_Hash@V?$_Umap_traits@V?$basic_string@DU?$char_traits@D@std@@V?$allocator@D@2@@std@@_NV?$_Hash_compare@V?$basic_string@DU?$char_traits@D@std@@V?$allocator@D@2@@std@@V?$hash@V?$basic_string@DU?$char_traits@D@std@@V?$allocator@D@2@@std@@@2@U?$equal_to@V?$basic_string@DU?$char_traits@D@std@@V?$allocator@D@2@@std@@@2@@2@V?$allocator@U?$pair@$$CBV?$basic_string@DU?$char_traits@D@std@@V?$allocator@D@2@@std@@_N@std@@@2@$0A@@tr1@std@@@std@@IAE?AV?$_List_iterator@V?$_List_val@U?$pair@$$CBV?$basic_string@DU?$char_traits@D@std@@V?$allocator@D@2@@std@@_N@std@@V?$allocator@U?$pair@$$CBV?$basic_string@DU?$char_traits@D@std@@V?$allocator@D@2@@std@@_N@std@@@2@@std@@@2@I@Z 1000cb70 f i PatchMW2CModels.obj
 0001:0000bb70       ?_Begin@?$_Hash@V?$_Umap_traits@_KPAVCCallbackBase@@V?$_Hash_compare@_KV?$hash@_K@std@@U?$equal_to@_K@2@@std@@V?$allocator@U?$pair@$$CB_KPAVCCallbackBase@@@std@@@3@$0A@@tr1@std@@@std@@IAE?AV?$_List_iterator@V?$_List_val@U?$pair@$$CB_KPAVCCallbackBase@@@std@@V?$allocator@U?$pair@$$CB_KPAVCCallbackBase@@@std@@@2@@std@@@2@I@Z 1000cb70 f i SteamBase.obj
 0001:0000bb70       ?_Begin@?$_Hash@V?$_Umap_traits@V?$basic_string@DU?$char_traits@D@std@@V?$allocator@D@2@@std@@PAUVehicleDef@@V?$_Hash_compare@V?$basic_string@DU?$char_traits@D@std@@V?$allocator@D@2@@std@@V?$hash@V?$basic_string@DU?$char_traits@D@std@@V?$allocator@D@2@@std@@@2@U?$equal_to@V?$basic_string@DU?$char_traits@D@std@@V?$allocator@D@2@@std@@@2@@2@V?$allocator@U?$pair@$$CBV?$basic_string@DU?$char_traits@D@std@@V?$allocator@D@2@@std@@PAUVehicleDef@@@std@@@2@$0A@@tr1@std@@@std@@IAE?AV?$_List_iterator@V?$_List_val@U?$pair@$$CBV?$basic_string@DU?$char_traits@D@std@@V?$allocator@D@2@@std@@PAUVehicleDef@@@std@@V?$allocator@U?$pair@$$CBV?$basic_string@DU?$char_traits@D@std@@V?$allocator@D@2@@std@@PAUVehicleDef@@@std@@@2@@std@@@2@I@Z 1000cb70 f i PatchMW2LoadVehicleDef.obj
 0001:0000bba0       ?_Hashval@?$_Hash@V?$_Umap_traits@V?$basic_string@DU?$char_traits@D@std@@V?$allocator@D@2@@std@@_NV?$_Hash_compare@V?$basic_string@DU?$char_traits@D@std@@V?$allocator@D@2@@std@@V?$hash@V?$basic_string@DU?$char_traits@D@std@@V?$allocator@D@2@@std@@@2@U?$equal_to@V?$basic_string@DU?$char_traits@D@std@@V?$allocator@D@2@@std@@@2@@2@V?$allocator@U?$pair@$$CBV?$basic_string@DU?$char_traits@D@std@@V?$allocator@D@2@@std@@_N@std@@@2@$0A@@tr1@std@@@std@@IBEIABV?$basic_string@DU?$char_traits@D@std@@V?$allocator@D@2@@2@@Z 1000cba0 f i PatchMW2CModels.obj
 0001:0000bba0       ?_Hashval@?$_Hash@V?$_Umap_traits@V?$basic_string@DU?$char_traits@D@std@@V?$allocator@D@2@@std@@P6AXH@ZV?$_Hash_compare@V?$basic_string@DU?$char_traits@D@std@@V?$allocator@D@2@@std@@V?$hash@V?$basic_string@DU?$char_traits@D@std@@V?$allocator@D@2@@std@@@2@U?$equal_to@V?$basic_string@DU?$char_traits@D@std@@V?$allocator@D@2@@std@@@2@@2@V?$allocator@U?$pair@$$CBV?$basic_string@DU?$char_traits@D@std@@V?$allocator@D@2@@std@@P6AXH@Z@std@@@2@$0A@@tr1@std@@@std@@IBEIABV?$basic_string@DU?$char_traits@D@std@@V?$allocator@D@2@@2@@Z 1000cba0 f i GameInterface.obj
 0001:0000bba0       ?_Hashval@?$_Hash@V?$_Umap_traits@V?$basic_string@DU?$char_traits@D@std@@V?$allocator@D@2@@std@@PAUVehicleDef@@V?$_Hash_compare@V?$basic_string@DU?$char_traits@D@std@@V?$allocator@D@2@@std@@V?$hash@V?$basic_string@DU?$char_traits@D@std@@V?$allocator@D@2@@std@@@2@U?$equal_to@V?$basic_string@DU?$char_traits@D@std@@V?$allocator@D@2@@std@@@2@@2@V?$allocator@U?$pair@$$CBV?$basic_string@DU?$char_traits@D@std@@V?$allocator@D@2@@std@@PAUVehicleDef@@@std@@@2@$0A@@tr1@std@@@std@@IBEIABV?$basic_string@DU?$char_traits@D@std@@V?$allocator@D@2@@2@@Z 1000cba0 f i PatchMW2LoadVehicleDef.obj
 0001:0000bbf0       ??8?$dense_hashtable_iterator@U?$pair@$$CBKPAUCModelAllocData@@@std@@KV?$hash_compare@KU?$less@K@std@@@stdext@@USelectKey@?$dense_hash_map@KPAUCModelAllocData@@V?$hash_compare@KU?$less@K@std@@@stdext@@U?$equal_to@K@std@@V?$libc_allocator_with_realloc@U?$pair@$$CBKPAUCModelAllocData@@@std@@@google@@@google@@USetKey@67@U?$equal_to@K@2@V?$libc_allocator_with_realloc@U?$pair@$$CBKPAUCModelAllocData@@@std@@@7@@google@@QBE_NABU01@@Z 1000cbf0 f i PatchMW2CModels.obj
 0001:0000bbf0       ??8?$dense_hashtable_iterator@U?$pair@$$CBKPAX@std@@KV?$hash_compare@KU?$less@K@std@@@stdext@@USelectKey@?$dense_hash_map@KPAXV?$hash_compare@KU?$less@K@std@@@stdext@@U?$equal_to@K@std@@V?$libc_allocator_with_realloc@U?$pair@$$CBKPAX@std@@@google@@@google@@USetKey@67@U?$equal_to@K@2@V?$libc_allocator_with_realloc@U?$pair@$$CBKPAX@std@@@7@@google@@QBE_NABU01@@Z 1000cbf0 f i PatchMW2CModels.obj
 0001:0000bbf0       ??8?$_Deque_unchecked_const_iterator@U?$pair@PAEPAE@std@@V?$allocator@U?$pair@PAEPAE@std@@@2@@std@@QBE_NABV01@@Z 1000cbf0 f i PatchMW2StringTable.obj
 0001:0000bc10       ?advance_past_empty_and_deleted@?$dense_hashtable_iterator@U?$pair@$$CBKPAX@std@@KV?$hash_compare@KU?$less@K@std@@@stdext@@USelectKey@?$dense_hash_map@KPAXV?$hash_compare@KU?$less@K@std@@@stdext@@U?$equal_to@K@std@@V?$libc_allocator_with_realloc@U?$pair@$$CBKPAX@std@@@google@@@google@@USetKey@67@U?$equal_to@K@2@V?$libc_allocator_with_realloc@U?$pair@$$CBKPAX@std@@@7@@google@@QAEXXZ 1000cc10 f i PatchMW2CModels.obj
 0001:0000bc10       ?advance_past_empty_and_deleted@?$dense_hashtable_iterator@U?$pair@$$CBKPAUCModelAllocData@@@std@@KV?$hash_compare@KU?$less@K@std@@@stdext@@USelectKey@?$dense_hash_map@KPAUCModelAllocData@@V?$hash_compare@KU?$less@K@std@@@stdext@@U?$equal_to@K@std@@V?$libc_allocator_with_realloc@U?$pair@$$CBKPAUCModelAllocData@@@std@@@google@@@google@@USetKey@67@U?$equal_to@K@2@V?$libc_allocator_with_realloc@U?$pair@$$CBKPAUCModelAllocData@@@std@@@7@@google@@QAEXXZ 1000cc10 f i PatchMW2CModels.obj
 0001:0000bc10       ?advance_past_empty_and_deleted@?$dense_hashtable_const_iterator@U?$pair@$$CBKPAUCModelAllocData@@@std@@KV?$hash_compare@KU?$less@K@std@@@stdext@@USelectKey@?$dense_hash_map@KPAUCModelAllocData@@V?$hash_compare@KU?$less@K@std@@@stdext@@U?$equal_to@K@std@@V?$libc_allocator_with_realloc@U?$pair@$$CBKPAUCModelAllocData@@@std@@@google@@@google@@USetKey@67@U?$equal_to@K@2@V?$libc_allocator_with_realloc@U?$pair@$$CBKPAUCModelAllocData@@@std@@@7@@google@@QAEXXZ 1000cc10 f i PatchMW2CModels.obj
 0001:0000bc10       ?advance_past_empty_and_deleted@?$dense_hashtable_const_iterator@U?$pair@$$CBKPAX@std@@KV?$hash_compare@KU?$less@K@std@@@stdext@@USelectKey@?$dense_hash_map@KPAXV?$hash_compare@KU?$less@K@std@@@stdext@@U?$equal_to@K@std@@V?$libc_allocator_with_realloc@U?$pair@$$CBKPAX@std@@@google@@@google@@USetKey@67@U?$equal_to@K@2@V?$libc_allocator_with_realloc@U?$pair@$$CBKPAX@std@@@7@@google@@QAEXXZ 1000cc10 f i PatchMW2CModels.obj
 0001:0000bc70       ??0length_error@std@@QAE@ABV01@@Z 1000cc70 f i PatchMW2CModels.obj
 0001:0000bca0       ??0logic_error@std@@QAE@ABV01@@Z 1000cca0 f i PatchMW2CModels.obj
 0001:0000bcd0       ??1logic_error@std@@UAE@XZ 1000ccd0 f i PatchMW2CModels.obj
 0001:0000bcd0       ??1runtime_error@std@@UAE@XZ 1000ccd0 f i PatchMW2StringTable.obj
 0001:0000bcf0       ??0length_error@std@@QAE@PBD@Z 1000ccf0 f i PatchMW2CModels.obj
 0001:0000bd20       ??0logic_error@std@@QAE@PBD@Z 1000cd20 f i PatchMW2CModels.obj
 0001:0000bd50       ??1system_error@std@@UAE@XZ 1000cd50 f i PatchMW2StringTable.obj
 0001:0000bd50       ??1length_error@std@@UAE@XZ 1000cd50 f i PatchMW2CModels.obj
 0001:0000bd70       ?test_deleted@?$dense_hashtable@U?$pair@$$CBKPAUCModelAllocData@@@std@@KV?$hash_compare@KU?$less@K@std@@@stdext@@USelectKey@?$dense_hash_map@KPAUCModelAllocData@@V?$hash_compare@KU?$less@K@std@@@stdext@@U?$equal_to@K@std@@V?$libc_allocator_with_realloc@U?$pair@$$CBKPAUCModelAllocData@@@std@@@google@@@google@@USetKey@67@U?$equal_to@K@2@V?$libc_allocator_with_realloc@U?$pair@$$CBKPAUCModelAllocData@@@std@@@7@@google@@QBE_NI@Z 1000cd70 f i PatchMW2CModels.obj
 0001:0000bd70       ?test_deleted@?$dense_hashtable@U?$pair@$$CBKPAX@std@@KV?$hash_compare@KU?$less@K@std@@@stdext@@USelectKey@?$dense_hash_map@KPAXV?$hash_compare@KU?$less@K@std@@@stdext@@U?$equal_to@K@std@@V?$libc_allocator_with_realloc@U?$pair@$$CBKPAX@std@@@google@@@google@@USetKey@67@U?$equal_to@K@2@V?$libc_allocator_with_realloc@U?$pair@$$CBKPAX@std@@@7@@google@@QBE_NI@Z 1000cd70 f i PatchMW2CModels.obj
 0001:0000bda0       ?test_deleted@?$dense_hashtable@U?$pair@$$CBKPAX@std@@KV?$hash_compare@KU?$less@K@std@@@stdext@@USelectKey@?$dense_hash_map@KPAXV?$hash_compare@KU?$less@K@std@@@stdext@@U?$equal_to@K@std@@V?$libc_allocator_with_realloc@U?$pair@$$CBKPAX@std@@@google@@@google@@USetKey@67@U?$equal_to@K@2@V?$libc_allocator_with_realloc@U?$pair@$$CBKPAX@std@@@7@@google@@QBE_NABU?$dense_hashtable_const_iterator@U?$pair@$$CBKPAX@std@@KV?$hash_compare@KU?$less@K@std@@@stdext@@USelectKey@?$dense_hash_map@KPAXV?$hash_compare@KU?$less@K@std@@@stdext@@U?$equal_to@K@std@@V?$libc_allocator_with_realloc@U?$pair@$$CBKPAX@std@@@google@@@google@@USetKey@67@U?$equal_to@K@2@V?$libc_allocator_with_realloc@U?$pair@$$CBKPAX@std@@@7@@2@@Z 1000cda0 f i PatchMW2CModels.obj
 0001:0000bda0       ?test_deleted@?$dense_hashtable@U?$pair@$$CBKPAUCModelAllocData@@@std@@KV?$hash_compare@KU?$less@K@std@@@stdext@@USelectKey@?$dense_hash_map@KPAUCModelAllocData@@V?$hash_compare@KU?$less@K@std@@@stdext@@U?$equal_to@K@std@@V?$libc_allocator_with_realloc@U?$pair@$$CBKPAUCModelAllocData@@@std@@@google@@@google@@USetKey@67@U?$equal_to@K@2@V?$libc_allocator_with_realloc@U?$pair@$$CBKPAUCModelAllocData@@@std@@@7@@google@@QBE_NABU?$dense_hashtable_iterator@U?$pair@$$CBKPAUCModelAllocData@@@std@@KV?$hash_compare@KU?$less@K@std@@@stdext@@USelectKey@?$dense_hash_map@KPAUCModelAllocData@@V?$hash_compare@KU?$less@K@std@@@stdext@@U?$equal_to@K@std@@V?$libc_allocator_with_realloc@U?$pair@$$CBKPAUCModelAllocData@@@std@@@google@@@google@@USetKey@67@U?$equal_to@K@2@V?$libc_allocator_with_realloc@U?$pair@$$CBKPAUCModelAllocData@@@std@@@7@@2@@Z 1000cda0 f i PatchMW2CModels.obj
 0001:0000bda0       ?test_deleted@?$dense_hashtable@U?$pair@$$CBKPAUCModelAllocData@@@std@@KV?$hash_compare@KU?$less@K@std@@@stdext@@USelectKey@?$dense_hash_map@KPAUCModelAllocData@@V?$hash_compare@KU?$less@K@std@@@stdext@@U?$equal_to@K@std@@V?$libc_allocator_with_realloc@U?$pair@$$CBKPAUCModelAllocData@@@std@@@google@@@google@@USetKey@67@U?$equal_to@K@2@V?$libc_allocator_with_realloc@U?$pair@$$CBKPAUCModelAllocData@@@std@@@7@@google@@QBE_NABU?$dense_hashtable_const_iterator@U?$pair@$$CBKPAUCModelAllocData@@@std@@KV?$hash_compare@KU?$less@K@std@@@stdext@@USelectKey@?$dense_hash_map@KPAUCModelAllocData@@V?$hash_compare@KU?$less@K@std@@@stdext@@U?$equal_to@K@std@@V?$libc_allocator_with_realloc@U?$pair@$$CBKPAUCModelAllocData@@@std@@@google@@@google@@USetKey@67@U?$equal_to@K@2@V?$libc_allocator_with_realloc@U?$pair@$$CBKPAUCModelAllocData@@@std@@@7@@2@@Z 1000cda0 f i PatchMW2CModels.obj
 0001:0000bda0       ?test_deleted@?$dense_hashtable@U?$pair@$$CBKPAX@std@@KV?$hash_compare@KU?$less@K@std@@@stdext@@USelectKey@?$dense_hash_map@KPAXV?$hash_compare@KU?$less@K@std@@@stdext@@U?$equal_to@K@std@@V?$libc_allocator_with_realloc@U?$pair@$$CBKPAX@std@@@google@@@google@@USetKey@67@U?$equal_to@K@2@V?$libc_allocator_with_realloc@U?$pair@$$CBKPAX@std@@@7@@google@@QBE_NABU?$dense_hashtable_iterator@U?$pair@$$CBKPAX@std@@KV?$hash_compare@KU?$less@K@std@@@stdext@@USelectKey@?$dense_hash_map@KPAXV?$hash_compare@KU?$less@K@std@@@stdext@@U?$equal_to@K@std@@V?$libc_allocator_with_realloc@U?$pair@$$CBKPAX@std@@@google@@@google@@USetKey@67@U?$equal_to@K@2@V?$libc_allocator_with_realloc@U?$pair@$$CBKPAX@std@@@7@@2@@Z 1000cda0 f i PatchMW2CModels.obj
 0001:0000bdd0       ?test_empty@?$dense_hashtable@U?$pair@$$CBKPAX@std@@KV?$hash_compare@KU?$less@K@std@@@stdext@@USelectKey@?$dense_hash_map@KPAXV?$hash_compare@KU?$less@K@std@@@stdext@@U?$equal_to@K@std@@V?$libc_allocator_with_realloc@U?$pair@$$CBKPAX@std@@@google@@@google@@USetKey@67@U?$equal_to@K@2@V?$libc_allocator_with_realloc@U?$pair@$$CBKPAX@std@@@7@@google@@QBE_NI@Z 1000cdd0 f i PatchMW2CModels.obj
 0001:0000bdd0       ?test_empty@?$dense_hashtable@U?$pair@$$CBKPAUCModelAllocData@@@std@@KV?$hash_compare@KU?$less@K@std@@@stdext@@USelectKey@?$dense_hash_map@KPAUCModelAllocData@@V?$hash_compare@KU?$less@K@std@@@stdext@@U?$equal_to@K@std@@V?$libc_allocator_with_realloc@U?$pair@$$CBKPAUCModelAllocData@@@std@@@google@@@google@@USetKey@67@U?$equal_to@K@2@V?$libc_allocator_with_realloc@U?$pair@$$CBKPAUCModelAllocData@@@std@@@7@@google@@QBE_NI@Z 1000cdd0 f i PatchMW2CModels.obj
 0001:0000be10       ?test_empty@?$dense_hashtable@U?$pair@$$CBKPAUCModelAllocData@@@std@@KV?$hash_compare@KU?$less@K@std@@@stdext@@USelectKey@?$dense_hash_map@KPAUCModelAllocData@@V?$hash_compare@KU?$less@K@std@@@stdext@@U?$equal_to@K@std@@V?$libc_allocator_with_realloc@U?$pair@$$CBKPAUCModelAllocData@@@std@@@google@@@google@@USetKey@67@U?$equal_to@K@2@V?$libc_allocator_with_realloc@U?$pair@$$CBKPAUCModelAllocData@@@std@@@7@@google@@QBE_NABU?$dense_hashtable_iterator@U?$pair@$$CBKPAUCModelAllocData@@@std@@KV?$hash_compare@KU?$less@K@std@@@stdext@@USelectKey@?$dense_hash_map@KPAUCModelAllocData@@V?$hash_compare@KU?$less@K@std@@@stdext@@U?$equal_to@K@std@@V?$libc_allocator_with_realloc@U?$pair@$$CBKPAUCModelAllocData@@@std@@@google@@@google@@USetKey@67@U?$equal_to@K@2@V?$libc_allocator_with_realloc@U?$pair@$$CBKPAUCModelAllocData@@@std@@@7@@2@@Z 1000ce10 f i PatchMW2CModels.obj
 0001:0000be10       ?test_empty@?$dense_hashtable@U?$pair@$$CBKPAUCModelAllocData@@@std@@KV?$hash_compare@KU?$less@K@std@@@stdext@@USelectKey@?$dense_hash_map@KPAUCModelAllocData@@V?$hash_compare@KU?$less@K@std@@@stdext@@U?$equal_to@K@std@@V?$libc_allocator_with_realloc@U?$pair@$$CBKPAUCModelAllocData@@@std@@@google@@@google@@USetKey@67@U?$equal_to@K@2@V?$libc_allocator_with_realloc@U?$pair@$$CBKPAUCModelAllocData@@@std@@@7@@google@@QBE_NABU?$dense_hashtable_const_iterator@U?$pair@$$CBKPAUCModelAllocData@@@std@@KV?$hash_compare@KU?$less@K@std@@@stdext@@USelectKey@?$dense_hash_map@KPAUCModelAllocData@@V?$hash_compare@KU?$less@K@std@@@stdext@@U?$equal_to@K@std@@V?$libc_allocator_with_realloc@U?$pair@$$CBKPAUCModelAllocData@@@std@@@google@@@google@@USetKey@67@U?$equal_to@K@2@V?$libc_allocator_with_realloc@U?$pair@$$CBKPAUCModelAllocData@@@std@@@7@@2@@Z 1000ce10 f i PatchMW2CModels.obj
 0001:0000be10       ?test_empty@?$dense_hashtable@U?$pair@$$CBKPAX@std@@KV?$hash_compare@KU?$less@K@std@@@stdext@@USelectKey@?$dense_hash_map@KPAXV?$hash_compare@KU?$less@K@std@@@stdext@@U?$equal_to@K@std@@V?$libc_allocator_with_realloc@U?$pair@$$CBKPAX@std@@@google@@@google@@USetKey@67@U?$equal_to@K@2@V?$libc_allocator_with_realloc@U?$pair@$$CBKPAX@std@@@7@@google@@QBE_NABU?$dense_hashtable_const_iterator@U?$pair@$$CBKPAX@std@@KV?$hash_compare@KU?$less@K@std@@@stdext@@USelectKey@?$dense_hash_map@KPAXV?$hash_compare@KU?$less@K@std@@@stdext@@U?$equal_to@K@std@@V?$libc_allocator_with_realloc@U?$pair@$$CBKPAX@std@@@google@@@google@@USetKey@67@U?$equal_to@K@2@V?$libc_allocator_with_realloc@U?$pair@$$CBKPAX@std@@@7@@2@@Z 1000ce10 f i PatchMW2CModels.obj
 0001:0000be10       ?test_empty@?$dense_hashtable@U?$pair@$$CBKPAX@std@@KV?$hash_compare@KU?$less@K@std@@@stdext@@USelectKey@?$dense_hash_map@KPAXV?$hash_compare@KU?$less@K@std@@@stdext@@U?$equal_to@K@std@@V?$libc_allocator_with_realloc@U?$pair@$$CBKPAX@std@@@google@@@google@@USetKey@67@U?$equal_to@K@2@V?$libc_allocator_with_realloc@U?$pair@$$CBKPAX@std@@@7@@google@@QBE_NABU?$dense_hashtable_iterator@U?$pair@$$CBKPAX@std@@KV?$hash_compare@KU?$less@K@std@@@stdext@@USelectKey@?$dense_hash_map@KPAXV?$hash_compare@KU?$less@K@std@@@stdext@@U?$equal_to@K@std@@V?$libc_allocator_with_realloc@U?$pair@$$CBKPAX@std@@@google@@@google@@USetKey@67@U?$equal_to@K@2@V?$libc_allocator_with_realloc@U?$pair@$$CBKPAX@std@@@7@@2@@Z 1000ce10 f i PatchMW2CModels.obj
 0001:0000be50       ?resize_table@?$dense_hashtable@U?$pair@$$CBKPAX@std@@KV?$hash_compare@KU?$less@K@std@@@stdext@@USelectKey@?$dense_hash_map@KPAXV?$hash_compare@KU?$less@K@std@@@stdext@@U?$equal_to@K@std@@V?$libc_allocator_with_realloc@U?$pair@$$CBKPAX@std@@@google@@@google@@USetKey@67@U?$equal_to@K@2@V?$libc_allocator_with_realloc@U?$pair@$$CBKPAX@std@@@7@@google@@AAEXIIU?$integral_constant@_N$00@2@@Z 1000ce50 f i PatchMW2CModels.obj
 0001:0000be50       ?resize_table@?$dense_hashtable@U?$pair@$$CBKPAUCModelAllocData@@@std@@KV?$hash_compare@KU?$less@K@std@@@stdext@@USelectKey@?$dense_hash_map@KPAUCModelAllocData@@V?$hash_compare@KU?$less@K@std@@@stdext@@U?$equal_to@K@std@@V?$libc_allocator_with_realloc@U?$pair@$$CBKPAUCModelAllocData@@@std@@@google@@@google@@USetKey@67@U?$equal_to@K@2@V?$libc_allocator_with_realloc@U?$pair@$$CBKPAUCModelAllocData@@@std@@@7@@google@@AAEXIIU?$integral_constant@_N$00@2@@Z 1000ce50 f i PatchMW2CModels.obj
 0001:0000be80       ?hash@?$dense_hashtable@U?$pair@$$CBKPAUCModelAllocData@@@std@@KV?$hash_compare@KU?$less@K@std@@@stdext@@USelectKey@?$dense_hash_map@KPAUCModelAllocData@@V?$hash_compare@KU?$less@K@std@@@stdext@@U?$equal_to@K@std@@V?$libc_allocator_with_realloc@U?$pair@$$CBKPAUCModelAllocData@@@std@@@google@@@google@@USetKey@67@U?$equal_to@K@2@V?$libc_allocator_with_realloc@U?$pair@$$CBKPAUCModelAllocData@@@std@@@7@@google@@ABEIABK@Z 1000ce80 f i PatchMW2CModels.obj
 0001:0000be80       ?hash@?$dense_hashtable@U?$pair@$$CBKPAX@std@@KV?$hash_compare@KU?$less@K@std@@@stdext@@USelectKey@?$dense_hash_map@KPAXV?$hash_compare@KU?$less@K@std@@@stdext@@U?$equal_to@K@std@@V?$libc_allocator_with_realloc@U?$pair@$$CBKPAX@std@@@google@@@google@@USetKey@67@U?$equal_to@K@2@V?$libc_allocator_with_realloc@U?$pair@$$CBKPAX@std@@@7@@google@@ABEIABK@Z 1000ce80 f i PatchMW2CModels.obj
 0001:0000bea0       ?equals@?$dense_hashtable@U?$pair@$$CBKPAUCModelAllocData@@@std@@KV?$hash_compare@KU?$less@K@std@@@stdext@@USelectKey@?$dense_hash_map@KPAUCModelAllocData@@V?$hash_compare@KU?$less@K@std@@@stdext@@U?$equal_to@K@std@@V?$libc_allocator_with_realloc@U?$pair@$$CBKPAUCModelAllocData@@@std@@@google@@@google@@USetKey@67@U?$equal_to@K@2@V?$libc_allocator_with_realloc@U?$pair@$$CBKPAUCModelAllocData@@@std@@@7@@google@@ABE_NABK0@Z 1000cea0 f i PatchMW2CModels.obj
 0001:0000bea0       ?equals@?$dense_hashtable@U?$pair@$$CBKPAX@std@@KV?$hash_compare@KU?$less@K@std@@@stdext@@USelectKey@?$dense_hash_map@KPAXV?$hash_compare@KU?$less@K@std@@@stdext@@U?$equal_to@K@std@@V?$libc_allocator_with_realloc@U?$pair@$$CBKPAX@std@@@google@@@google@@USetKey@67@U?$equal_to@K@2@V?$libc_allocator_with_realloc@U?$pair@$$CBKPAX@std@@@7@@google@@ABE_NABK0@Z 1000cea0 f i PatchMW2CModels.obj
 0001:0000bec0       ?enlarge_factor@?$sh_hashtable_settings@KV?$hash_compare@KU?$less@K@std@@@stdext@@I$03@@QBEMXZ 1000cec0 f i PatchMW2CModels.obj
 0001:0000bec0       ?enlarge_factor@?$sh_hashtable_settings@V?$basic_string@DU?$char_traits@D@std@@V?$allocator@D@2@@std@@V?$hash_compare@V?$basic_string@DU?$char_traits@D@std@@V?$allocator@D@2@@std@@U?$less@V?$basic_string@DU?$char_traits@D@std@@V?$allocator@D@2@@std@@@2@@stdext@@I$03@@QBEMXZ 1000cec0 f i PatchMW2LocalizedStrings.obj
 0001:0000bee0       ?set_enlarge_threshold@?$sh_hashtable_settings@V?$basic_string@DU?$char_traits@D@std@@V?$allocator@D@2@@std@@V?$hash_compare@V?$basic_string@DU?$char_traits@D@std@@V?$allocator@D@2@@std@@U?$less@V?$basic_string@DU?$char_traits@D@std@@V?$allocator@D@2@@std@@@2@@stdext@@I$03@@QAEXI@Z 1000cee0 f i PatchMW2LocalizedStrings.obj
 0001:0000bee0       ?set_enlarge_threshold@?$sh_hashtable_settings@KV?$hash_compare@KU?$less@K@std@@@stdext@@I$03@@QAEXI@Z 1000cee0 f i PatchMW2CModels.obj
 0001:0000bf00       ?enlarge_size@?$sh_hashtable_settings@KV?$hash_compare@KU?$less@K@std@@@stdext@@I$03@@QBEII@Z 1000cf00 f i PatchMW2CModels.obj
 0001:0000bf00       ?enlarge_size@?$sh_hashtable_settings@V?$basic_string@DU?$char_traits@D@std@@V?$allocator@D@2@@std@@V?$hash_compare@V?$basic_string@DU?$char_traits@D@std@@V?$allocator@D@2@@std@@U?$less@V?$basic_string@DU?$char_traits@D@std@@V?$allocator@D@2@@std@@@2@@stdext@@I$03@@QBEII@Z 1000cf00 f i PatchMW2LocalizedStrings.obj
 0001:0000bf40       ??0?$_Pair_base@PAEPAE@std@@QAE@ABU01@@Z 1000cf40 f i PatchMW2StringTable.obj
 0001:0000bf40       ??0?$_Pair_base@$$CBKPAX@std@@QAE@ABU01@@Z 1000cf40 f i PatchMW2CModels.obj
 0001:0000bf40       ??0?$_Pair_base@$$CBKPAUCModelAllocData@@@std@@QAE@ABU01@@Z 1000cf40 f i PatchMW2CModels.obj
 0001:0000bf70       ?set_key@?$dense_hashtable@U?$pair@$$CBKPAX@std@@KV?$hash_compare@KU?$less@K@std@@@stdext@@USelectKey@?$dense_hash_map@KPAXV?$hash_compare@KU?$less@K@std@@@stdext@@U?$equal_to@K@std@@V?$libc_allocator_with_realloc@U?$pair@$$CBKPAX@std@@@google@@@google@@USetKey@67@U?$equal_to@K@2@V?$libc_allocator_with_realloc@U?$pair@$$CBKPAX@std@@@7@@google@@ABEXPAU?$pair@$$CBKPAX@std@@ABK@Z 1000cf70 f i PatchMW2CModels.obj
 0001:0000bf70       ?set_key@?$dense_hashtable@U?$pair@$$CBKPAUCModelAllocData@@@std@@KV?$hash_compare@KU?$less@K@std@@@stdext@@USelectKey@?$dense_hash_map@KPAUCModelAllocData@@V?$hash_compare@KU?$less@K@std@@@stdext@@U?$equal_to@K@std@@V?$libc_allocator_with_realloc@U?$pair@$$CBKPAUCModelAllocData@@@std@@@google@@@google@@USetKey@67@U?$equal_to@K@2@V?$libc_allocator_with_realloc@U?$pair@$$CBKPAUCModelAllocData@@@std@@@7@@google@@ABEXPAU?$pair@$$CBKPAUCModelAllocData@@@std@@ABK@Z 1000cf70 f i PatchMW2CModels.obj
 0001:0000bf90       ?test_deleted_key@?$dense_hashtable@U?$pair@$$CBKPAX@std@@KV?$hash_compare@KU?$less@K@std@@@stdext@@USelectKey@?$dense_hash_map@KPAXV?$hash_compare@KU?$less@K@std@@@stdext@@U?$equal_to@K@std@@V?$libc_allocator_with_realloc@U?$pair@$$CBKPAX@std@@@google@@@google@@USetKey@67@U?$equal_to@K@2@V?$libc_allocator_with_realloc@U?$pair@$$CBKPAX@std@@@7@@google@@ABE_NABK@Z 1000cf90 f i PatchMW2CModels.obj
 0001:0000bf90       ?test_deleted_key@?$dense_hashtable@U?$pair@$$CBKPAUCModelAllocData@@@std@@KV?$hash_compare@KU?$less@K@std@@@stdext@@USelectKey@?$dense_hash_map@KPAUCModelAllocData@@V?$hash_compare@KU?$less@K@std@@@stdext@@U?$equal_to@K@std@@V?$libc_allocator_with_realloc@U?$pair@$$CBKPAUCModelAllocData@@@std@@@google@@@google@@USetKey@67@U?$equal_to@K@2@V?$libc_allocator_with_realloc@U?$pair@$$CBKPAUCModelAllocData@@@std@@@7@@google@@ABE_NABK@Z 1000cf90 f i PatchMW2CModels.obj
 0001:0000bfe0       ?hash@?$sh_hashtable_settings@KV?$hash_compare@KU?$less@K@std@@@stdext@@I$03@@QBEIABK@Z 1000cfe0 f i PatchMW2CModels.obj
 0001:0000c000       ?equals@KeyInfo@?$dense_hashtable@U?$pair@$$CBKPAUCModelAllocData@@@std@@KV?$hash_compare@KU?$less@K@std@@@stdext@@USelectKey@?$dense_hash_map@KPAUCModelAllocData@@V?$hash_compare@KU?$less@K@std@@@stdext@@U?$equal_to@K@std@@V?$libc_allocator_with_realloc@U?$pair@$$CBKPAUCModelAllocData@@@std@@@google@@@google@@USetKey@67@U?$equal_to@K@2@V?$libc_allocator_with_realloc@U?$pair@$$CBKPAUCModelAllocData@@@std@@@7@@google@@QBE_NABK0@Z 1000d000 f i PatchMW2CModels.obj
 0001:0000c000       ?equals@KeyInfo@?$dense_hashtable@U?$pair@$$CBKPAX@std@@KV?$hash_compare@KU?$less@K@std@@@stdext@@USelectKey@?$dense_hash_map@KPAXV?$hash_compare@KU?$less@K@std@@@stdext@@U?$equal_to@K@std@@V?$libc_allocator_with_realloc@U?$pair@$$CBKPAX@std@@@google@@@google@@USetKey@67@U?$equal_to@K@2@V?$libc_allocator_with_realloc@U?$pair@$$CBKPAX@std@@@7@@google@@QBE_NABK0@Z 1000d000 f i PatchMW2CModels.obj
 0001:0000c020       ?realloc_or_die@?$alloc_impl@V?$libc_allocator_with_realloc@U?$pair@$$CBKPAUCModelAllocData@@@std@@@google@@@?$dense_hashtable@U?$pair@$$CBKPAUCModelAllocData@@@std@@KV?$hash_compare@KU?$less@K@std@@@stdext@@USelectKey@?$dense_hash_map@KPAUCModelAllocData@@V?$hash_compare@KU?$less@K@std@@@stdext@@U?$equal_to@K@std@@V?$libc_allocator_with_realloc@U?$pair@$$CBKPAUCModelAllocData@@@std@@@google@@@google@@USetKey@67@U?$equal_to@K@2@V?$libc_allocator_with_realloc@U?$pair@$$CBKPAUCModelAllocData@@@std@@@7@@google@@QAEPAU?$pair@$$CBKPAUCModelAllocData@@@std@@PAU45@I@Z 1000d020 f i PatchMW2CModels.obj
 0001:0000c020       ?realloc_or_die@?$alloc_impl@V?$libc_allocator_with_realloc@U?$pair@$$CBKPAX@std@@@google@@@?$dense_hashtable@U?$pair@$$CBKPAX@std@@KV?$hash_compare@KU?$less@K@std@@@stdext@@USelectKey@?$dense_hash_map@KPAXV?$hash_compare@KU?$less@K@std@@@stdext@@U?$equal_to@K@std@@V?$libc_allocator_with_realloc@U?$pair@$$CBKPAX@std@@@google@@@google@@USetKey@67@U?$equal_to@K@2@V?$libc_allocator_with_realloc@U?$pair@$$CBKPAX@std@@@7@@google@@QAEPAU?$pair@$$CBKPAX@std@@PAU45@I@Z 1000d020 f i PatchMW2CModels.obj
 0001:0000c070       ?set_key@KeyInfo@?$dense_hashtable@U?$pair@$$CBKPAX@std@@KV?$hash_compare@KU?$less@K@std@@@stdext@@USelectKey@?$dense_hash_map@KPAXV?$hash_compare@KU?$less@K@std@@@stdext@@U?$equal_to@K@std@@V?$libc_allocator_with_realloc@U?$pair@$$CBKPAX@std@@@google@@@google@@USetKey@67@U?$equal_to@K@2@V?$libc_allocator_with_realloc@U?$pair@$$CBKPAX@std@@@7@@google@@QBEXPAU?$pair@$$CBKPAX@std@@ABK@Z 1000d070 f i PatchMW2CModels.obj
 0001:0000c070       ?set_key@KeyInfo@?$dense_hashtable@U?$pair@$$CBKPAUCModelAllocData@@@std@@KV?$hash_compare@KU?$less@K@std@@@stdext@@USelectKey@?$dense_hash_map@KPAUCModelAllocData@@V?$hash_compare@KU?$less@K@std@@@stdext@@U?$equal_to@K@std@@V?$libc_allocator_with_realloc@U?$pair@$$CBKPAUCModelAllocData@@@std@@@google@@@google@@USetKey@67@U?$equal_to@K@2@V?$libc_allocator_with_realloc@U?$pair@$$CBKPAUCModelAllocData@@@std@@@7@@google@@QBEXPAU?$pair@$$CBKPAUCModelAllocData@@@std@@ABK@Z 1000d070 f i PatchMW2CModels.obj
 0001:0000c090       ??A?$vector@V?$_List_iterator@V?$_List_val@U?$pair@$$CB_K_N@std@@V?$allocator@U?$pair@$$CB_K_N@std@@@2@@std@@@std@@V?$allocator@V?$_List_iterator@V?$_List_val@U?$pair@$$CB_K_N@std@@V?$allocator@U?$pair@$$CB_K_N@std@@@2@@std@@@std@@@2@@std@@QAEAAV?$_List_iterator@V?$_List_val@U?$pair@$$CB_K_N@std@@V?$allocator@U?$pair@$$CB_K_N@std@@@2@@std@@@1@I@Z 1000d090 f i SteamBase.obj
 0001:0000c090       ??A?$vector@V?$_List_iterator@V?$_List_val@U?$pair@$$CB_KPAVCCallbackBase@@@std@@V?$allocator@U?$pair@$$CB_KPAVCCallbackBase@@@std@@@2@@std@@@std@@V?$allocator@V?$_List_iterator@V?$_List_val@U?$pair@$$CB_KPAVCCallbackBase@@@std@@V?$allocator@U?$pair@$$CB_KPAVCCallbackBase@@@std@@@2@@std@@@std@@@2@@std@@QAEAAV?$_List_iterator@V?$_List_val@U?$pair@$$CB_KPAVCCallbackBase@@@std@@V?$allocator@U?$pair@$$CB_KPAVCCallbackBase@@@std@@@2@@std@@@1@I@Z 1000d090 f i SteamBase.obj
 0001:0000c090       ??A?$vector@V?$_List_iterator@V?$_List_val@U?$pair@$$CBV?$basic_string@DU?$char_traits@D@std@@V?$allocator@D@2@@std@@PAUVehicleDef@@@std@@V?$allocator@U?$pair@$$CBV?$basic_string@DU?$char_traits@D@std@@V?$allocator@D@2@@std@@PAUVehicleDef@@@std@@@2@@std@@@std@@V?$allocator@V?$_List_iterator@V?$_List_val@U?$pair@$$CBV?$basic_string@DU?$char_traits@D@std@@V?$allocator@D@2@@std@@PAUVehicleDef@@@std@@V?$allocator@U?$pair@$$CBV?$basic_string@DU?$char_traits@D@std@@V?$allocator@D@2@@std@@PAUVehicleDef@@@std@@@2@@std@@@std@@@2@@std@@QAEAAV?$_List_iterator@V?$_List_val@U?$pair@$$CBV?$basic_string@DU?$char_traits@D@std@@V?$allocator@D@2@@std@@PAUVehicleDef@@@std@@V?$allocator@U?$pair@$$CBV?$basic_string@DU?$char_traits@D@std@@V?$allocator@D@2@@std@@PAUVehicleDef@@@std@@@2@@std@@@1@I@Z 1000d090 f i PatchMW2LoadVehicleDef.obj
 0001:0000c090       ??A?$vector@V?$_List_iterator@V?$_List_val@U?$pair@$$CBV?$basic_string@DU?$char_traits@D@std@@V?$allocator@D@2@@std@@P6AXH@Z@std@@V?$allocator@U?$pair@$$CBV?$basic_string@DU?$char_traits@D@std@@V?$allocator@D@2@@std@@P6AXH@Z@std@@@2@@std@@@std@@V?$allocator@V?$_List_iterator@V?$_List_val@U?$pair@$$CBV?$basic_string@DU?$char_traits@D@std@@V?$allocator@D@2@@std@@P6AXH@Z@std@@V?$allocator@U?$pair@$$CBV?$basic_string@DU?$char_traits@D@std@@V?$allocator@D@2@@std@@P6AXH@Z@std@@@2@@std@@@std@@@2@@std@@QAEAAV?$_List_iterator@V?$_List_val@U?$pair@$$CBV?$basic_string@DU?$char_traits@D@std@@V?$allocator@D@2@@std@@P6AXH@Z@std@@V?$allocator@U?$pair@$$CBV?$basic_string@DU?$char_traits@D@std@@V?$allocator@D@2@@std@@P6AXH@Z@std@@@2@@std@@@1@I@Z 1000d090 f i GameInterface.obj
 0001:0000c090       ??A?$vector@HV?$allocator@H@std@@@std@@QAEAAHI@Z 1000d090 f i Script.obj
 0001:0000c090       ??A?$vector@PAUmenuDef_t@@V?$allocator@PAUmenuDef_t@@@std@@@std@@QAEAAPAUmenuDef_t@@I@Z 1000d090 f i PatchMW2UILoading.obj
 0001:0000c090       ??A?$vector@V?$_List_iterator@V?$_List_val@U?$pair@$$CBV?$basic_string@DU?$char_traits@D@std@@V?$allocator@D@2@@std@@_N@std@@V?$allocator@U?$pair@$$CBV?$basic_string@DU?$char_traits@D@std@@V?$allocator@D@2@@std@@_N@std@@@2@@std@@@std@@V?$allocator@V?$_List_iterator@V?$_List_val@U?$pair@$$CBV?$basic_string@DU?$char_traits@D@std@@V?$allocator@D@2@@std@@_N@std@@V?$allocator@U?$pair@$$CBV?$basic_string@DU?$char_traits@D@std@@V?$allocator@D@2@@std@@_N@std@@@2@@std@@@std@@@2@@std@@QAEAAV?$_List_iterator@V?$_List_val@U?$pair@$$CBV?$basic_string@DU?$char_traits@D@std@@V?$allocator@D@2@@std@@_N@std@@V?$allocator@U?$pair@$$CBV?$basic_string@DU?$char_traits@D@std@@V?$allocator@D@2@@std@@_N@std@@@2@@std@@@1@I@Z 1000d090 f i PatchMW2CModels.obj
 0001:0000c0b0       ?reallocate@?$libc_allocator_with_realloc@U?$pair@$$CBKPAUCModelAllocData@@@std@@@google@@QAEPAU?$pair@$$CBKPAUCModelAllocData@@@std@@PAU34@I@Z 1000d0b0 f i PatchMW2CModels.obj
 0001:0000c0b0       ?reallocate@?$libc_allocator_with_realloc@U?$pair@$$CBKPAX@std@@@google@@QAEPAU?$pair@$$CBKPAX@std@@PAU34@I@Z 1000d0b0 f i PatchMW2CModels.obj
 0001:0000c0d0       ??RSelectKey@?$dense_hash_map@KPAUCModelAllocData@@V?$hash_compare@KU?$less@K@std@@@stdext@@U?$equal_to@K@std@@V?$libc_allocator_with_realloc@U?$pair@$$CBKPAUCModelAllocData@@@std@@@google@@@google@@QBEABKABU?$pair@$$CBKPAUCModelAllocData@@@std@@@Z 1000d0d0 f i PatchMW2CModels.obj
 0001:0000c0d0       ??RSelectKey@?$dense_hash_map@V?$basic_string@DU?$char_traits@D@std@@V?$allocator@D@2@@std@@PAUMaterial@@V?$hash_compare@V?$basic_string@DU?$char_traits@D@std@@V?$allocator@D@2@@std@@U?$less@V?$basic_string@DU?$char_traits@D@std@@V?$allocator@D@2@@std@@@2@@stdext@@U?$equal_to@V?$basic_string@DU?$char_traits@D@std@@V?$allocator@D@2@@std@@@2@V?$libc_allocator_with_realloc@U?$pair@$$CBV?$basic_string@DU?$char_traits@D@std@@V?$allocator@D@2@@std@@PAUMaterial@@@std@@@google@@@google@@QBEABV?$basic_string@DU?$char_traits@D@std@@V?$allocator@D@2@@std@@ABU?$pair@$$CBV?$basic_string@DU?$char_traits@D@std@@V?$allocator@D@2@@std@@PAUMaterial@@@4@@Z 1000d0d0 f i PatchMW2Materialism.obj
 0001:0000c0d0       ??RSelectKey@?$dense_hash_map@V?$basic_string@DU?$char_traits@D@std@@V?$allocator@D@2@@std@@PAUXModel@@V?$hash_compare@V?$basic_string@DU?$char_traits@D@std@@V?$allocator@D@2@@std@@U?$less@V?$basic_string@DU?$char_traits@D@std@@V?$allocator@D@2@@std@@@2@@stdext@@U?$equal_to@V?$basic_string@DU?$char_traits@D@std@@V?$allocator@D@2@@std@@@2@V?$libc_allocator_with_realloc@U?$pair@$$CBV?$basic_string@DU?$char_traits@D@std@@V?$allocator@D@2@@std@@PAUXModel@@@std@@@google@@@google@@QBEABV?$basic_string@DU?$char_traits@D@std@@V?$allocator@D@2@@std@@ABU?$pair@$$CBV?$basic_string@DU?$char_traits@D@std@@V?$allocator@D@2@@std@@PAUXModel@@@4@@Z 1000d0d0 f i PatchMW2WeaponCamos.obj
 0001:0000c0d0       ??RSelectKey@?$dense_hash_map@KPAXV?$hash_compare@KU?$less@K@std@@@stdext@@U?$equal_to@K@std@@V?$libc_allocator_with_realloc@U?$pair@$$CBKPAX@std@@@google@@@google@@QBEABKABU?$pair@$$CBKPAX@std@@@Z 1000d0d0 f i PatchMW2CModels.obj
 0001:0000c0d0       ??RSelectKey@?$dense_hash_map@V?$basic_string@DU?$char_traits@D@std@@V?$allocator@D@2@@std@@GV?$hash_compare@V?$basic_string@DU?$char_traits@D@std@@V?$allocator@D@2@@std@@U?$less@V?$basic_string@DU?$char_traits@D@std@@V?$allocator@D@2@@std@@@2@@stdext@@U?$equal_to@V?$basic_string@DU?$char_traits@D@std@@V?$allocator@D@2@@std@@@2@V?$libc_allocator_with_realloc@U?$pair@$$CBV?$basic_string@DU?$char_traits@D@std@@V?$allocator@D@2@@std@@G@std@@@google@@@google@@QBEABV?$basic_string@DU?$char_traits@D@std@@V?$allocator@D@2@@std@@ABU?$pair@$$CBV?$basic_string@DU?$char_traits@D@std@@V?$allocator@D@2@@std@@G@4@@Z 1000d0d0 f i PatchMW2StringList.obj
 0001:0000c0d0       ??RSelectKey@?$dense_hash_map@V?$basic_string@DU?$char_traits@D@std@@V?$allocator@D@2@@std@@PAUstringTable_s@@V?$hash_compare@V?$basic_string@DU?$char_traits@D@std@@V?$allocator@D@2@@std@@U?$less@V?$basic_string@DU?$char_traits@D@std@@V?$allocator@D@2@@std@@@2@@stdext@@U?$equal_to@V?$basic_string@DU?$char_traits@D@std@@V?$allocator@D@2@@std@@@2@V?$libc_allocator_with_realloc@U?$pair@$$CBV?$basic_string@DU?$char_traits@D@std@@V?$allocator@D@2@@std@@PAUstringTable_s@@@std@@@google@@@google@@QBEABV?$basic_string@DU?$char_traits@D@std@@V?$allocator@D@2@@std@@ABU?$pair@$$CBV?$basic_string@DU?$char_traits@D@std@@V?$allocator@D@2@@std@@PAUstringTable_s@@@4@@Z 1000d0d0 f i PatchMW2StringTable.obj
 0001:0000c0d0       ??RSelectKey@?$dense_hash_map@V?$basic_string@DU?$char_traits@D@std@@V?$allocator@D@2@@std@@V12@V?$hash_compare@V?$basic_string@DU?$char_traits@D@std@@V?$allocator@D@2@@std@@U?$less@V?$basic_string@DU?$char_traits@D@std@@V?$allocator@D@2@@std@@@2@@stdext@@U?$equal_to@V?$basic_string@DU?$char_traits@D@std@@V?$allocator@D@2@@std@@@2@V?$libc_allocator_with_realloc@U?$pair@$$CBV?$basic_string@DU?$char_traits@D@std@@V?$allocator@D@2@@std@@V12@@std@@@google@@@google@@QBEABV?$basic_string@DU?$char_traits@D@std@@V?$allocator@D@2@@std@@ABU?$pair@$$CBV?$basic_string@DU?$char_traits@D@std@@V?$allocator@D@2@@std@@V12@@4@@Z 1000d0d0 f i PatchMW2LocalizedStrings.obj
 0001:0000c0e0       ??R?$hash_compare@KU?$less@K@std@@@stdext@@QBEIABK@Z 1000d0e0 f i PatchMW2CModels.obj
 0001:0000c150       ??RSetKey@?$dense_hash_map@KPAXV?$hash_compare@KU?$less@K@std@@@stdext@@U?$equal_to@K@std@@V?$libc_allocator_with_realloc@U?$pair@$$CBKPAX@std@@@google@@@google@@QBEXPAU?$pair@$$CBKPAX@std@@ABK@Z 1000d150 f i PatchMW2CModels.obj
 0001:0000c150       ??RSetKey@?$dense_hash_map@KPAUCModelAllocData@@V?$hash_compare@KU?$less@K@std@@@stdext@@U?$equal_to@K@std@@V?$libc_allocator_with_realloc@U?$pair@$$CBKPAUCModelAllocData@@@std@@@google@@@google@@QBEXPAU?$pair@$$CBKPAUCModelAllocData@@@std@@ABK@Z 1000d150 f i PatchMW2CModels.obj
 0001:0000c180       ??R?$equal_to@K@std@@QBE_NABK0@Z 1000d180 f i PatchMW2CModels.obj
 0001:0000c1a0       ??$find_or_insert@UDefaultValue@?$dense_hash_map@KPAUCModelAllocData@@V?$hash_compare@KU?$less@K@std@@@stdext@@U?$equal_to@K@std@@V?$libc_allocator_with_realloc@U?$pair@$$CBKPAUCModelAllocData@@@std@@@google@@@google@@@?$dense_hashtable@U?$pair@$$CBKPAUCModelAllocData@@@std@@KV?$hash_compare@KU?$less@K@std@@@stdext@@USelectKey@?$dense_hash_map@KPAUCModelAllocData@@V?$hash_compare@KU?$less@K@std@@@stdext@@U?$equal_to@K@std@@V?$libc_allocator_with_realloc@U?$pair@$$CBKPAUCModelAllocData@@@std@@@google@@@google@@USetKey@67@U?$equal_to@K@2@V?$libc_allocator_with_realloc@U?$pair@$$CBKPAUCModelAllocData@@@std@@@7@@google@@QAEAAU?$pair@$$CBKPAUCModelAllocData@@@std@@ABK@Z 1000d1a0 f i PatchMW2CModels.obj
 0001:0000c1a0       ??$find_or_insert@UDefaultValue@?$dense_hash_map@KPAXV?$hash_compare@KU?$less@K@std@@@stdext@@U?$equal_to@K@std@@V?$libc_allocator_with_realloc@U?$pair@$$CBKPAX@std@@@google@@@google@@@?$dense_hashtable@U?$pair@$$CBKPAX@std@@KV?$hash_compare@KU?$less@K@std@@@stdext@@USelectKey@?$dense_hash_map@KPAXV?$hash_compare@KU?$less@K@std@@@stdext@@U?$equal_to@K@std@@V?$libc_allocator_with_realloc@U?$pair@$$CBKPAX@std@@@google@@@google@@USetKey@67@U?$equal_to@K@2@V?$libc_allocator_with_realloc@U?$pair@$$CBKPAX@std@@@7@@google@@QAEAAU?$pair@$$CBKPAX@std@@ABK@Z 1000d1a0 f i PatchMW2CModels.obj
 0001:0000c240       ??$uninitialized_fill@PAU?$pair@$$CBKPAUCModelAllocData@@@std@@U12@@std@@YAXPAU?$pair@$$CBKPAUCModelAllocData@@@0@0ABU10@@Z 1000d240 f i PatchMW2CModels.obj
 0001:0000c240       ??$uninitialized_fill@PAU?$pair@$$CBKPAX@std@@U12@@std@@YAXPAU?$pair@$$CBKPAX@0@0ABU10@@Z 1000d240 f i PatchMW2CModels.obj
 0001:0000c280       ??$?0AAIABI@?$pair@II@std@@QAE@AAIABI@Z 1000d280 f i PatchMW2CModels.obj
 0001:0000c280       ??$?0ABIAAI@?$pair@II@std@@QAE@ABIAAI@Z 1000d280 f i PatchMW2CModels.obj
 0001:0000c280       ??$?0AAKPAUCModelAllocData@@@?$pair@KPAUCModelAllocData@@@std@@QAE@AAK$$QAPAUCModelAllocData@@@Z 1000d280 f i PatchMW2CModels.obj
 0001:0000c280       ??$?0AAKPAX@?$pair@KPAX@std@@QAE@AAK$$QAPAX@Z 1000d280 f i PatchMW2CModels.obj
 0001:0000c2c0       ??$hash_value@K@stdext@@YAIABK@Z 1000d2c0 f i PatchMW2CModels.obj
 0001:0000c2d0       ?resize_delta@?$dense_hashtable@U?$pair@$$CBKPAX@std@@KV?$hash_compare@KU?$less@K@std@@@stdext@@USelectKey@?$dense_hash_map@KPAXV?$hash_compare@KU?$less@K@std@@@stdext@@U?$equal_to@K@std@@V?$libc_allocator_with_realloc@U?$pair@$$CBKPAX@std@@@google@@@google@@USetKey@67@U?$equal_to@K@2@V?$libc_allocator_with_realloc@U?$pair@$$CBKPAX@std@@@7@@google@@AAE_NI@Z 1000d2d0 f i PatchMW2CModels.obj
 0001:0000c2d0       ?resize_delta@?$dense_hashtable@U?$pair@$$CBKPAUCModelAllocData@@@std@@KV?$hash_compare@KU?$less@K@std@@@stdext@@USelectKey@?$dense_hash_map@KPAUCModelAllocData@@V?$hash_compare@KU?$less@K@std@@@stdext@@U?$equal_to@K@std@@V?$libc_allocator_with_realloc@U?$pair@$$CBKPAUCModelAllocData@@@std@@@google@@@google@@USetKey@67@U?$equal_to@K@2@V?$libc_allocator_with_realloc@U?$pair@$$CBKPAUCModelAllocData@@@std@@@7@@google@@AAE_NI@Z 1000d2d0 f i PatchMW2CModels.obj
 0001:0000c450       ?insert_at@?$dense_hashtable@U?$pair@$$CBKPAX@std@@KV?$hash_compare@KU?$less@K@std@@@stdext@@USelectKey@?$dense_hash_map@KPAXV?$hash_compare@KU?$less@K@std@@@stdext@@U?$equal_to@K@std@@V?$libc_allocator_with_realloc@U?$pair@$$CBKPAX@std@@@google@@@google@@USetKey@67@U?$equal_to@K@2@V?$libc_allocator_with_realloc@U?$pair@$$CBKPAX@std@@@7@@google@@AAE?AU?$dense_hashtable_iterator@U?$pair@$$CBKPAX@std@@KV?$hash_compare@KU?$less@K@std@@@stdext@@USelectKey@?$dense_hash_map@KPAXV?$hash_compare@KU?$less@K@std@@@stdext@@U?$equal_to@K@std@@V?$libc_allocator_with_realloc@U?$pair@$$CBKPAX@std@@@google@@@google@@USetKey@67@U?$equal_to@K@2@V?$libc_allocator_with_realloc@U?$pair@$$CBKPAX@std@@@7@@2@ABU?$pair@$$CBKPAX@std@@I@Z 1000d450 f i PatchMW2CModels.obj
 0001:0000c450       ?insert_at@?$dense_hashtable@U?$pair@$$CBKPAUCModelAllocData@@@std@@KV?$hash_compare@KU?$less@K@std@@@stdext@@USelectKey@?$dense_hash_map@KPAUCModelAllocData@@V?$hash_compare@KU?$less@K@std@@@stdext@@U?$equal_to@K@std@@V?$libc_allocator_with_realloc@U?$pair@$$CBKPAUCModelAllocData@@@std@@@google@@@google@@USetKey@67@U?$equal_to@K@2@V?$libc_allocator_with_realloc@U?$pair@$$CBKPAUCModelAllocData@@@std@@@7@@google@@AAE?AU?$dense_hashtable_iterator@U?$pair@$$CBKPAUCModelAllocData@@@std@@KV?$hash_compare@KU?$less@K@std@@@stdext@@USelectKey@?$dense_hash_map@KPAUCModelAllocData@@V?$hash_compare@KU?$less@K@std@@@stdext@@U?$equal_to@K@std@@V?$libc_allocator_with_realloc@U?$pair@$$CBKPAUCModelAllocData@@@std@@@google@@@google@@USetKey@67@U?$equal_to@K@2@V?$libc_allocator_with_realloc@U?$pair@$$CBKPAUCModelAllocData@@@std@@@7@@2@ABU?$pair@$$CBKPAUCModelAllocData@@@std@@I@Z 1000d450 f i PatchMW2CModels.obj
 0001:0000c550       ?insert_noresize@?$dense_hashtable@U?$pair@$$CBKPAUCModelAllocData@@@std@@KV?$hash_compare@KU?$less@K@std@@@stdext@@USelectKey@?$dense_hash_map@KPAUCModelAllocData@@V?$hash_compare@KU?$less@K@std@@@stdext@@U?$equal_to@K@std@@V?$libc_allocator_with_realloc@U?$pair@$$CBKPAUCModelAllocData@@@std@@@google@@@google@@USetKey@67@U?$equal_to@K@2@V?$libc_allocator_with_realloc@U?$pair@$$CBKPAUCModelAllocData@@@std@@@7@@google@@AAE?AU?$pair@U?$dense_hashtable_iterator@U?$pair@$$CBKPAUCModelAllocData@@@std@@KV?$hash_compare@KU?$less@K@std@@@stdext@@USelectKey@?$dense_hash_map@KPAUCModelAllocData@@V?$hash_compare@KU?$less@K@std@@@stdext@@U?$equal_to@K@std@@V?$libc_allocator_with_realloc@U?$pair@$$CBKPAUCModelAllocData@@@std@@@google@@@google@@USetKey@67@U?$equal_to@K@2@V?$libc_allocator_with_realloc@U?$pair@$$CBKPAUCModelAllocData@@@std@@@7@@google@@_N@std@@ABU?$pair@$$CBKPAUCModelAllocData@@@4@@Z 1000d550 f i PatchMW2CModels.obj
 0001:0000c550       ?insert_noresize@?$dense_hashtable@U?$pair@$$CBKPAX@std@@KV?$hash_compare@KU?$less@K@std@@@stdext@@USelectKey@?$dense_hash_map@KPAXV?$hash_compare@KU?$less@K@std@@@stdext@@U?$equal_to@K@std@@V?$libc_allocator_with_realloc@U?$pair@$$CBKPAX@std@@@google@@@google@@USetKey@67@U?$equal_to@K@2@V?$libc_allocator_with_realloc@U?$pair@$$CBKPAX@std@@@7@@google@@AAE?AU?$pair@U?$dense_hashtable_iterator@U?$pair@$$CBKPAX@std@@KV?$hash_compare@KU?$less@K@std@@@stdext@@USelectKey@?$dense_hash_map@KPAXV?$hash_compare@KU?$less@K@std@@@stdext@@U?$equal_to@K@std@@V?$libc_allocator_with_realloc@U?$pair@$$CBKPAX@std@@@google@@@google@@USetKey@67@U?$equal_to@K@2@V?$libc_allocator_with_realloc@U?$pair@$$CBKPAX@std@@@7@@google@@_N@std@@ABU?$pair@$$CBKPAX@4@@Z 1000d550 f i PatchMW2CModels.obj
 0001:0000c5f0       ??1?$dense_hashtable@U?$pair@$$CBKPAUCModelAllocData@@@std@@KV?$hash_compare@KU?$less@K@std@@@stdext@@USelectKey@?$dense_hash_map@KPAUCModelAllocData@@V?$hash_compare@KU?$less@K@std@@@stdext@@U?$equal_to@K@std@@V?$libc_allocator_with_realloc@U?$pair@$$CBKPAUCModelAllocData@@@std@@@google@@@google@@USetKey@67@U?$equal_to@K@2@V?$libc_allocator_with_realloc@U?$pair@$$CBKPAUCModelAllocData@@@std@@@7@@google@@QAE@XZ 1000d5f0 f i PatchMW2CModels.obj
 0001:0000c5f0       ??1?$dense_hashtable@U?$pair@$$CBKPAX@std@@KV?$hash_compare@KU?$less@K@std@@@stdext@@USelectKey@?$dense_hash_map@KPAXV?$hash_compare@KU?$less@K@std@@@stdext@@U?$equal_to@K@std@@V?$libc_allocator_with_realloc@U?$pair@$$CBKPAX@std@@@google@@@google@@USetKey@67@U?$equal_to@K@2@V?$libc_allocator_with_realloc@U?$pair@$$CBKPAX@std@@@7@@google@@QAE@XZ 1000d5f0 f i PatchMW2CModels.obj
 0001:0000c670       ??1?$_Deque_iterator@U?$pair@PAEPAE@std@@V?$allocator@U?$pair@PAEPAE@std@@@2@@std@@QAE@XZ 1000d670 f i PatchMW2StringTable.obj
 0001:0000c670       ??1?$_Deque_iterator@Udownload_s@@V?$allocator@Udownload_s@@@std@@@std@@QAE@XZ 1000d670 f i PatchMW2DownloadCL.obj
 0001:0000c670       ??1ValInfo@?$dense_hashtable@U?$pair@$$CBKPAX@std@@KV?$hash_compare@KU?$less@K@std@@@stdext@@USelectKey@?$dense_hash_map@KPAXV?$hash_compare@KU?$less@K@std@@@stdext@@U?$equal_to@K@std@@V?$libc_allocator_with_realloc@U?$pair@$$CBKPAX@std@@@google@@@google@@USetKey@67@U?$equal_to@K@2@V?$libc_allocator_with_realloc@U?$pair@$$CBKPAX@std@@@7@@google@@QAE@XZ 1000d670 f i PatchMW2CModels.obj
 0001:0000c670       ??1ValInfo@?$dense_hashtable@U?$pair@$$CBKPAUCModelAllocData@@@std@@KV?$hash_compare@KU?$less@K@std@@@stdext@@USelectKey@?$dense_hash_map@KPAUCModelAllocData@@V?$hash_compare@KU?$less@K@std@@@stdext@@U?$equal_to@K@std@@V?$libc_allocator_with_realloc@U?$pair@$$CBKPAUCModelAllocData@@@std@@@google@@@google@@USetKey@67@U?$equal_to@K@2@V?$libc_allocator_with_realloc@U?$pair@$$CBKPAUCModelAllocData@@@std@@@7@@google@@QAE@XZ 1000d670 f i PatchMW2CModels.obj
 0001:0000c690       ??RDefaultValue@?$dense_hash_map@KPAXV?$hash_compare@KU?$less@K@std@@@stdext@@U?$equal_to@K@std@@V?$libc_allocator_with_realloc@U?$pair@$$CBKPAX@std@@@google@@@google@@QAE?AU?$pair@$$CBKPAX@std@@ABK@Z 1000d690 f i PatchMW2CModels.obj
 0001:0000c690       ??RDefaultValue@?$dense_hash_map@KPAUCModelAllocData@@V?$hash_compare@KU?$less@K@std@@@stdext@@U?$equal_to@K@std@@V?$libc_allocator_with_realloc@U?$pair@$$CBKPAUCModelAllocData@@@std@@@google@@@google@@QAE?AU?$pair@$$CBKPAUCModelAllocData@@@std@@ABK@Z 1000d690 f i PatchMW2CModels.obj
 0001:0000c6d0       ?clear_deleted@?$dense_hashtable@U?$pair@$$CBKPAUCModelAllocData@@@std@@KV?$hash_compare@KU?$less@K@std@@@stdext@@USelectKey@?$dense_hash_map@KPAUCModelAllocData@@V?$hash_compare@KU?$less@K@std@@@stdext@@U?$equal_to@K@std@@V?$libc_allocator_with_realloc@U?$pair@$$CBKPAUCModelAllocData@@@std@@@google@@@google@@USetKey@67@U?$equal_to@K@2@V?$libc_allocator_with_realloc@U?$pair@$$CBKPAUCModelAllocData@@@std@@@7@@google@@AAE_NAAU?$dense_hashtable_const_iterator@U?$pair@$$CBKPAUCModelAllocData@@@std@@KV?$hash_compare@KU?$less@K@std@@@stdext@@USelectKey@?$dense_hash_map@KPAUCModelAllocData@@V?$hash_compare@KU?$less@K@std@@@stdext@@U?$equal_to@K@std@@V?$libc_allocator_with_realloc@U?$pair@$$CBKPAUCModelAllocData@@@std@@@google@@@google@@USetKey@67@U?$equal_to@K@2@V?$libc_allocator_with_realloc@U?$pair@$$CBKPAUCModelAllocData@@@std@@@7@@2@@Z 1000d6d0 f i PatchMW2CModels.obj
 0001:0000c6d0       ?clear_deleted@?$dense_hashtable@U?$pair@$$CBKPAX@std@@KV?$hash_compare@KU?$less@K@std@@@stdext@@USelectKey@?$dense_hash_map@KPAXV?$hash_compare@KU?$less@K@std@@@stdext@@U?$equal_to@K@std@@V?$libc_allocator_with_realloc@U?$pair@$$CBKPAX@std@@@google@@@google@@USetKey@67@U?$equal_to@K@2@V?$libc_allocator_with_realloc@U?$pair@$$CBKPAX@std@@@7@@google@@AAE_NAAU?$dense_hashtable_const_iterator@U?$pair@$$CBKPAX@std@@KV?$hash_compare@KU?$less@K@std@@@stdext@@USelectKey@?$dense_hash_map@KPAXV?$hash_compare@KU?$less@K@std@@@stdext@@U?$equal_to@K@std@@V?$libc_allocator_with_realloc@U?$pair@$$CBKPAX@std@@@google@@@google@@USetKey@67@U?$equal_to@K@2@V?$libc_allocator_with_realloc@U?$pair@$$CBKPAX@std@@@7@@2@@Z 1000d6d0 f i PatchMW2CModels.obj
 0001:0000c6f0       ?maybe_shrink@?$dense_hashtable@U?$pair@$$CBKPAUCModelAllocData@@@std@@KV?$hash_compare@KU?$less@K@std@@@stdext@@USelectKey@?$dense_hash_map@KPAUCModelAllocData@@V?$hash_compare@KU?$less@K@std@@@stdext@@U?$equal_to@K@std@@V?$libc_allocator_with_realloc@U?$pair@$$CBKPAUCModelAllocData@@@std@@@google@@@google@@USetKey@67@U?$equal_to@K@2@V?$libc_allocator_with_realloc@U?$pair@$$CBKPAUCModelAllocData@@@std@@@7@@google@@AAE_NXZ 1000d6f0 f i PatchMW2CModels.obj
 0001:0000c6f0       ?maybe_shrink@?$dense_hashtable@U?$pair@$$CBKPAX@std@@KV?$hash_compare@KU?$less@K@std@@@stdext@@USelectKey@?$dense_hash_map@KPAXV?$hash_compare@KU?$less@K@std@@@stdext@@U?$equal_to@K@std@@V?$libc_allocator_with_realloc@U?$pair@$$CBKPAX@std@@@google@@@google@@USetKey@67@U?$equal_to@K@2@V?$libc_allocator_with_realloc@U?$pair@$$CBKPAX@std@@@7@@google@@AAE_NXZ 1000d6f0 f i PatchMW2CModels.obj
 0001:0000c800       ??0?$dense_hashtable@U?$pair@$$CBKPAX@std@@KV?$hash_compare@KU?$less@K@std@@@stdext@@USelectKey@?$dense_hash_map@KPAXV?$hash_compare@KU?$less@K@std@@@stdext@@U?$equal_to@K@std@@V?$libc_allocator_with_realloc@U?$pair@$$CBKPAX@std@@@google@@@google@@USetKey@67@U?$equal_to@K@2@V?$libc_allocator_with_realloc@U?$pair@$$CBKPAX@std@@@7@@google@@QAE@ABV01@I@Z 1000d800 f i PatchMW2CModels.obj
 0001:0000c800       ??0?$dense_hashtable@U?$pair@$$CBKPAUCModelAllocData@@@std@@KV?$hash_compare@KU?$less@K@std@@@stdext@@USelectKey@?$dense_hash_map@KPAUCModelAllocData@@V?$hash_compare@KU?$less@K@std@@@stdext@@U?$equal_to@K@std@@V?$libc_allocator_with_realloc@U?$pair@$$CBKPAUCModelAllocData@@@std@@@google@@@google@@USetKey@67@U?$equal_to@K@2@V?$libc_allocator_with_realloc@U?$pair@$$CBKPAUCModelAllocData@@@std@@@7@@google@@QAE@ABV01@I@Z 1000d800 f i PatchMW2CModels.obj
 0001:0000c900       ?swap@?$dense_hashtable@U?$pair@$$CBKPAUCModelAllocData@@@std@@KV?$hash_compare@KU?$less@K@std@@@stdext@@USelectKey@?$dense_hash_map@KPAUCModelAllocData@@V?$hash_compare@KU?$less@K@std@@@stdext@@U?$equal_to@K@std@@V?$libc_allocator_with_realloc@U?$pair@$$CBKPAUCModelAllocData@@@std@@@google@@@google@@USetKey@67@U?$equal_to@K@2@V?$libc_allocator_with_realloc@U?$pair@$$CBKPAUCModelAllocData@@@std@@@7@@google@@QAEXAAV12@@Z 1000d900 f i PatchMW2CModels.obj
 0001:0000c900       ?swap@?$dense_hashtable@U?$pair@$$CBKPAX@std@@KV?$hash_compare@KU?$less@K@std@@@stdext@@USelectKey@?$dense_hash_map@KPAXV?$hash_compare@KU?$less@K@std@@@stdext@@U?$equal_to@K@std@@V?$libc_allocator_with_realloc@U?$pair@$$CBKPAX@std@@@google@@@google@@USetKey@67@U?$equal_to@K@2@V?$libc_allocator_with_realloc@U?$pair@$$CBKPAX@std@@@7@@google@@QAEXAAV12@@Z 1000d900 f i PatchMW2CModels.obj
 0001:0000ca00       ?max_size@?$dense_hashtable@U?$pair@$$CBKPAX@std@@KV?$hash_compare@KU?$less@K@std@@@stdext@@USelectKey@?$dense_hash_map@KPAXV?$hash_compare@KU?$less@K@std@@@stdext@@U?$equal_to@K@std@@V?$libc_allocator_with_realloc@U?$pair@$$CBKPAX@std@@@google@@@google@@USetKey@67@U?$equal_to@K@2@V?$libc_allocator_with_realloc@U?$pair@$$CBKPAX@std@@@7@@google@@QBEIXZ 1000da00 f i PatchMW2CModels.obj
 0001:0000ca00       ?max_size@?$dense_hashtable@U?$pair@$$CBKPAUCModelAllocData@@@std@@KV?$hash_compare@KU?$less@K@std@@@stdext@@USelectKey@?$dense_hash_map@KPAUCModelAllocData@@V?$hash_compare@KU?$less@K@std@@@stdext@@U?$equal_to@K@std@@V?$libc_allocator_with_realloc@U?$pair@$$CBKPAUCModelAllocData@@@std@@@google@@@google@@USetKey@67@U?$equal_to@K@2@V?$libc_allocator_with_realloc@U?$pair@$$CBKPAUCModelAllocData@@@std@@@7@@google@@QBEIXZ 1000da00 f i PatchMW2CModels.obj
 0001:0000ca20       ??0?$pair@$$CBKPAX@std@@QAE@XZ 1000da20 f i PatchMW2CModels.obj
 0001:0000ca20       ??0?$pair@$$CBKPAUCModelAllocData@@@std@@QAE@XZ 1000da20 f i PatchMW2CModels.obj
 0001:0000ca40       ??0?$dense_hashtable_const_iterator@U?$pair@$$CBKPAUCModelAllocData@@@std@@KV?$hash_compare@KU?$less@K@std@@@stdext@@USelectKey@?$dense_hash_map@KPAUCModelAllocData@@V?$hash_compare@KU?$less@K@std@@@stdext@@U?$equal_to@K@std@@V?$libc_allocator_with_realloc@U?$pair@$$CBKPAUCModelAllocData@@@std@@@google@@@google@@USetKey@67@U?$equal_to@K@2@V?$libc_allocator_with_realloc@U?$pair@$$CBKPAUCModelAllocData@@@std@@@7@@google@@QAE@PBV?$dense_hashtable@U?$pair@$$CBKPAUCModelAllocData@@@std@@KV?$hash_compare@KU?$less@K@std@@@stdext@@USelectKey@?$dense_hash_map@KPAUCModelAllocData@@V?$hash_compare@KU?$less@K@std@@@stdext@@U?$equal_to@K@std@@V?$libc_allocator_with_realloc@U?$pair@$$CBKPAUCModelAllocData@@@std@@@google@@@google@@USetKey@67@U?$equal_to@K@2@V?$libc_allocator_with_realloc@U?$pair@$$CBKPAUCModelAllocData@@@std@@@7@@1@PBU?$pair@$$CBKPAUCModelAllocData@@@std@@1_N@Z 1000da40 f i PatchMW2CModels.obj
 0001:0000ca40       ??0?$dense_hashtable_iterator@U?$pair@$$CBKPAX@std@@KV?$hash_compare@KU?$less@K@std@@@stdext@@USelectKey@?$dense_hash_map@KPAXV?$hash_compare@KU?$less@K@std@@@stdext@@U?$equal_to@K@std@@V?$libc_allocator_with_realloc@U?$pair@$$CBKPAX@std@@@google@@@google@@USetKey@67@U?$equal_to@K@2@V?$libc_allocator_with_realloc@U?$pair@$$CBKPAX@std@@@7@@google@@QAE@PBV?$dense_hashtable@U?$pair@$$CBKPAX@std@@KV?$hash_compare@KU?$less@K@std@@@stdext@@USelectKey@?$dense_hash_map@KPAXV?$hash_compare@KU?$less@K@std@@@stdext@@U?$equal_to@K@std@@V?$libc_allocator_with_realloc@U?$pair@$$CBKPAX@std@@@google@@@google@@USetKey@67@U?$equal_to@K@2@V?$libc_allocator_with_realloc@U?$pair@$$CBKPAX@std@@@7@@1@PAU?$pair@$$CBKPAX@std@@1_N@Z 1000da40 f i PatchMW2CModels.obj
 0001:0000ca40       ??0?$dense_hashtable_const_iterator@U?$pair@$$CBKPAX@std@@KV?$hash_compare@KU?$less@K@std@@@stdext@@USelectKey@?$dense_hash_map@KPAXV?$hash_compare@KU?$less@K@std@@@stdext@@U?$equal_to@K@std@@V?$libc_allocator_with_realloc@U?$pair@$$CBKPAX@std@@@google@@@google@@USetKey@67@U?$equal_to@K@2@V?$libc_allocator_with_realloc@U?$pair@$$CBKPAX@std@@@7@@google@@QAE@PBV?$dense_hashtable@U?$pair@$$CBKPAX@std@@KV?$hash_compare@KU?$less@K@std@@@stdext@@USelectKey@?$dense_hash_map@KPAXV?$hash_compare@KU?$less@K@std@@@stdext@@U?$equal_to@K@std@@V?$libc_allocator_with_realloc@U?$pair@$$CBKPAX@std@@@google@@@google@@USetKey@67@U?$equal_to@K@2@V?$libc_allocator_with_realloc@U?$pair@$$CBKPAX@std@@@7@@1@PBU?$pair@$$CBKPAX@std@@1_N@Z 1000da40 f i PatchMW2CModels.obj
 0001:0000ca40       ??0?$dense_hashtable_iterator@U?$pair@$$CBKPAUCModelAllocData@@@std@@KV?$hash_compare@KU?$less@K@std@@@stdext@@USelectKey@?$dense_hash_map@KPAUCModelAllocData@@V?$hash_compare@KU?$less@K@std@@@stdext@@U?$equal_to@K@std@@V?$libc_allocator_with_realloc@U?$pair@$$CBKPAUCModelAllocData@@@std@@@google@@@google@@USetKey@67@U?$equal_to@K@2@V?$libc_allocator_with_realloc@U?$pair@$$CBKPAUCModelAllocData@@@std@@@7@@google@@QAE@PBV?$dense_hashtable@U?$pair@$$CBKPAUCModelAllocData@@@std@@KV?$hash_compare@KU?$less@K@std@@@stdext@@USelectKey@?$dense_hash_map@KPAUCModelAllocData@@V?$hash_compare@KU?$less@K@std@@@stdext@@U?$equal_to@K@std@@V?$libc_allocator_with_realloc@U?$pair@$$CBKPAUCModelAllocData@@@std@@@google@@@google@@USetKey@67@U?$equal_to@K@2@V?$libc_allocator_with_realloc@U?$pair@$$CBKPAUCModelAllocData@@@std@@@7@@1@PAU?$pair@$$CBKPAUCModelAllocData@@@std@@1_N@Z 1000da40 f i PatchMW2CModels.obj
 0001:0000ca80       ?copy_from@?$dense_hashtable@U?$pair@$$CBKPAUCModelAllocData@@@std@@KV?$hash_compare@KU?$less@K@std@@@stdext@@USelectKey@?$dense_hash_map@KPAUCModelAllocData@@V?$hash_compare@KU?$less@K@std@@@stdext@@U?$equal_to@K@std@@V?$libc_allocator_with_realloc@U?$pair@$$CBKPAUCModelAllocData@@@std@@@google@@@google@@USetKey@67@U?$equal_to@K@2@V?$libc_allocator_with_realloc@U?$pair@$$CBKPAUCModelAllocData@@@std@@@7@@google@@AAEXABV12@I@Z 1000da80 f i PatchMW2CModels.obj
 0001:0000ca80       ?copy_from@?$dense_hashtable@U?$pair@$$CBKPAX@std@@KV?$hash_compare@KU?$less@K@std@@@stdext@@USelectKey@?$dense_hash_map@KPAXV?$hash_compare@KU?$less@K@std@@@stdext@@U?$equal_to@K@std@@V?$libc_allocator_with_realloc@U?$pair@$$CBKPAX@std@@@google@@@google@@USetKey@67@U?$equal_to@K@2@V?$libc_allocator_with_realloc@U?$pair@$$CBKPAX@std@@@7@@google@@AAEXABV12@I@Z 1000da80 f i PatchMW2CModels.obj
 0001:0000cb80       ?shrink_factor@?$sh_hashtable_settings@V?$basic_string@DU?$char_traits@D@std@@V?$allocator@D@2@@std@@V?$hash_compare@V?$basic_string@DU?$char_traits@D@std@@V?$allocator@D@2@@std@@U?$less@V?$basic_string@DU?$char_traits@D@std@@V?$allocator@D@2@@std@@@2@@stdext@@I$03@@QBEMXZ 1000db80 f i PatchMW2LocalizedStrings.obj
 0001:0000cb80       ?shrink_factor@?$sh_hashtable_settings@KV?$hash_compare@KU?$less@K@std@@@stdext@@I$03@@QBEMXZ 1000db80 f i PatchMW2CModels.obj
 0001:0000cba0       ?use_empty@?$sh_hashtable_settings@KV?$hash_compare@KU?$less@K@std@@@stdext@@I$03@@QBE_NXZ 1000dba0 f i PatchMW2CModels.obj
 0001:0000cba0       ?use_empty@?$sh_hashtable_settings@V?$basic_string@DU?$char_traits@D@std@@V?$allocator@D@2@@std@@V?$hash_compare@V?$basic_string@DU?$char_traits@D@std@@V?$allocator@D@2@@std@@U?$less@V?$basic_string@DU?$char_traits@D@std@@V?$allocator@D@2@@std@@@2@@stdext@@I$03@@QBE_NXZ 1000dba0 f i PatchMW2LocalizedStrings.obj
 0001:0000cbc0       ?max_size@?$libc_allocator_with_realloc@U?$pair@$$CBKPAX@std@@@google@@QBEIXZ 1000dbc0 f i PatchMW2CModels.obj
 0001:0000cbc0       ?max_size@?$libc_allocator_with_realloc@U?$pair@$$CBKPAUCModelAllocData@@@std@@@google@@QBEIXZ 1000dbc0 f i PatchMW2CModels.obj
 0001:0000cbd0       ??0ValInfo@?$dense_hashtable@U?$pair@$$CBKPAUCModelAllocData@@@std@@KV?$hash_compare@KU?$less@K@std@@@stdext@@USelectKey@?$dense_hash_map@KPAUCModelAllocData@@V?$hash_compare@KU?$less@K@std@@@stdext@@U?$equal_to@K@std@@V?$libc_allocator_with_realloc@U?$pair@$$CBKPAUCModelAllocData@@@std@@@google@@@google@@USetKey@67@U?$equal_to@K@2@V?$libc_allocator_with_realloc@U?$pair@$$CBKPAUCModelAllocData@@@std@@@7@@google@@QAE@ABV012@@Z 1000dbd0 f i PatchMW2CModels.obj
 0001:0000cbd0       ??0ValInfo@?$dense_hashtable@U?$pair@$$CBKPAX@std@@KV?$hash_compare@KU?$less@K@std@@@stdext@@USelectKey@?$dense_hash_map@KPAXV?$hash_compare@KU?$less@K@std@@@stdext@@U?$equal_to@K@std@@V?$libc_allocator_with_realloc@U?$pair@$$CBKPAX@std@@@google@@@google@@USetKey@67@U?$equal_to@K@2@V?$libc_allocator_with_realloc@U?$pair@$$CBKPAX@std@@@7@@google@@QAE@ABV012@@Z 1000dbd0 f i PatchMW2CModels.obj
 0001:0000cc30       ?begin@?$dense_hashtable@U?$pair@$$CBKPAX@std@@KV?$hash_compare@KU?$less@K@std@@@stdext@@USelectKey@?$dense_hash_map@KPAXV?$hash_compare@KU?$less@K@std@@@stdext@@U?$equal_to@K@std@@V?$libc_allocator_with_realloc@U?$pair@$$CBKPAX@std@@@google@@@google@@USetKey@67@U?$equal_to@K@2@V?$libc_allocator_with_realloc@U?$pair@$$CBKPAX@std@@@7@@google@@QAE?AU?$dense_hashtable_iterator@U?$pair@$$CBKPAX@std@@KV?$hash_compare@KU?$less@K@std@@@stdext@@USelectKey@?$dense_hash_map@KPAXV?$hash_compare@KU?$less@K@std@@@stdext@@U?$equal_to@K@std@@V?$libc_allocator_with_realloc@U?$pair@$$CBKPAX@std@@@google@@@google@@USetKey@67@U?$equal_to@K@2@V?$libc_allocator_with_realloc@U?$pair@$$CBKPAX@std@@@7@@2@XZ 1000dc30 f i PatchMW2CModels.obj
 0001:0000cc30       ?begin@?$dense_hashtable@U?$pair@$$CBKPAX@std@@KV?$hash_compare@KU?$less@K@std@@@stdext@@USelectKey@?$dense_hash_map@KPAXV?$hash_compare@KU?$less@K@std@@@stdext@@U?$equal_to@K@std@@V?$libc_allocator_with_realloc@U?$pair@$$CBKPAX@std@@@google@@@google@@USetKey@67@U?$equal_to@K@2@V?$libc_allocator_with_realloc@U?$pair@$$CBKPAX@std@@@7@@google@@QBE?AU?$dense_hashtable_const_iterator@U?$pair@$$CBKPAX@std@@KV?$hash_compare@KU?$less@K@std@@@stdext@@USelectKey@?$dense_hash_map@KPAXV?$hash_compare@KU?$less@K@std@@@stdext@@U?$equal_to@K@std@@V?$libc_allocator_with_realloc@U?$pair@$$CBKPAX@std@@@google@@@google@@USetKey@67@U?$equal_to@K@2@V?$libc_allocator_with_realloc@U?$pair@$$CBKPAX@std@@@7@@2@XZ 1000dc30 f i PatchMW2CModels.obj
 0001:0000cc30       ?begin@?$dense_hashtable@U?$pair@$$CBKPAUCModelAllocData@@@std@@KV?$hash_compare@KU?$less@K@std@@@stdext@@USelectKey@?$dense_hash_map@KPAUCModelAllocData@@V?$hash_compare@KU?$less@K@std@@@stdext@@U?$equal_to@K@std@@V?$libc_allocator_with_realloc@U?$pair@$$CBKPAUCModelAllocData@@@std@@@google@@@google@@USetKey@67@U?$equal_to@K@2@V?$libc_allocator_with_realloc@U?$pair@$$CBKPAUCModelAllocData@@@std@@@7@@google@@QBE?AU?$dense_hashtable_const_iterator@U?$pair@$$CBKPAUCModelAllocData@@@std@@KV?$hash_compare@KU?$less@K@std@@@stdext@@USelectKey@?$dense_hash_map@KPAUCModelAllocData@@V?$hash_compare@KU?$less@K@std@@@stdext@@U?$equal_to@K@std@@V?$libc_allocator_with_realloc@U?$pair@$$CBKPAUCModelAllocData@@@std@@@google@@@google@@USetKey@67@U?$equal_to@K@2@V?$libc_allocator_with_realloc@U?$pair@$$CBKPAUCModelAllocData@@@std@@@7@@2@XZ 1000dc30 f i PatchMW2CModels.obj
 0001:0000cc70       ?end@?$dense_hashtable@U?$pair@$$CBKPAUCModelAllocData@@@std@@KV?$hash_compare@KU?$less@K@std@@@stdext@@USelectKey@?$dense_hash_map@KPAUCModelAllocData@@V?$hash_compare@KU?$less@K@std@@@stdext@@U?$equal_to@K@std@@V?$libc_allocator_with_realloc@U?$pair@$$CBKPAUCModelAllocData@@@std@@@google@@@google@@USetKey@67@U?$equal_to@K@2@V?$libc_allocator_with_realloc@U?$pair@$$CBKPAUCModelAllocData@@@std@@@7@@google@@QAE?AU?$dense_hashtable_iterator@U?$pair@$$CBKPAUCModelAllocData@@@std@@KV?$hash_compare@KU?$less@K@std@@@stdext@@USelectKey@?$dense_hash_map@KPAUCModelAllocData@@V?$hash_compare@KU?$less@K@std@@@stdext@@U?$equal_to@K@std@@V?$libc_allocator_with_realloc@U?$pair@$$CBKPAUCModelAllocData@@@std@@@google@@@google@@USetKey@67@U?$equal_to@K@2@V?$libc_allocator_with_realloc@U?$pair@$$CBKPAUCModelAllocData@@@std@@@7@@2@XZ 1000dc70 f i PatchMW2CModels.obj
 0001:0000cc70       ?end@?$dense_hashtable@U?$pair@$$CBKPAUCModelAllocData@@@std@@KV?$hash_compare@KU?$less@K@std@@@stdext@@USelectKey@?$dense_hash_map@KPAUCModelAllocData@@V?$hash_compare@KU?$less@K@std@@@stdext@@U?$equal_to@K@std@@V?$libc_allocator_with_realloc@U?$pair@$$CBKPAUCModelAllocData@@@std@@@google@@@google@@USetKey@67@U?$equal_to@K@2@V?$libc_allocator_with_realloc@U?$pair@$$CBKPAUCModelAllocData@@@std@@@7@@google@@QBE?AU?$dense_hashtable_const_iterator@U?$pair@$$CBKPAUCModelAllocData@@@std@@KV?$hash_compare@KU?$less@K@std@@@stdext@@USelectKey@?$dense_hash_map@KPAUCModelAllocData@@V?$hash_compare@KU?$less@K@std@@@stdext@@U?$equal_to@K@std@@V?$libc_allocator_with_realloc@U?$pair@$$CBKPAUCModelAllocData@@@std@@@google@@@google@@USetKey@67@U?$equal_to@K@2@V?$libc_allocator_with_realloc@U?$pair@$$CBKPAUCModelAllocData@@@std@@@7@@2@XZ 1000dc70 f i PatchMW2CModels.obj
 0001:0000cc70       ?end@?$dense_hashtable@U?$pair@$$CBKPAX@std@@KV?$hash_compare@KU?$less@K@std@@@stdext@@USelectKey@?$dense_hash_map@KPAXV?$hash_compare@KU?$less@K@std@@@stdext@@U?$equal_to@K@std@@V?$libc_allocator_with_realloc@U?$pair@$$CBKPAX@std@@@google@@@google@@USetKey@67@U?$equal_to@K@2@V?$libc_allocator_with_realloc@U?$pair@$$CBKPAX@std@@@7@@google@@QAE?AU?$dense_hashtable_iterator@U?$pair@$$CBKPAX@std@@KV?$hash_compare@KU?$less@K@std@@@stdext@@USelectKey@?$dense_hash_map@KPAXV?$hash_compare@KU?$less@K@std@@@stdext@@U?$equal_to@K@std@@V?$libc_allocator_with_realloc@U?$pair@$$CBKPAX@std@@@google@@@google@@USetKey@67@U?$equal_to@K@2@V?$libc_allocator_with_realloc@U?$pair@$$CBKPAX@std@@@7@@2@XZ 1000dc70 f i PatchMW2CModels.obj
 0001:0000cc70       ?end@?$dense_hashtable@U?$pair@$$CBKPAX@std@@KV?$hash_compare@KU?$less@K@std@@@stdext@@USelectKey@?$dense_hash_map@KPAXV?$hash_compare@KU?$less@K@std@@@stdext@@U?$equal_to@K@std@@V?$libc_allocator_with_realloc@U?$pair@$$CBKPAX@std@@@google@@@google@@USetKey@67@U?$equal_to@K@2@V?$libc_allocator_with_realloc@U?$pair@$$CBKPAX@std@@@7@@google@@QBE?AU?$dense_hashtable_const_iterator@U?$pair@$$CBKPAX@std@@KV?$hash_compare@KU?$less@K@std@@@stdext@@USelectKey@?$dense_hash_map@KPAXV?$hash_compare@KU?$less@K@std@@@stdext@@U?$equal_to@K@std@@V?$libc_allocator_with_realloc@U?$pair@$$CBKPAX@std@@@google@@@google@@USetKey@67@U?$equal_to@K@2@V?$libc_allocator_with_realloc@U?$pair@$$CBKPAX@std@@@7@@2@XZ 1000dc70 f i PatchMW2CModels.obj
 0001:0000ccb0       ??$_Uninit_fill@PAU?$pair@$$CBKPAX@std@@U12@@std@@YAXPAU?$pair@$$CBKPAX@0@0ABU10@U_Nonscalar_ptr_iterator_tag@0@@Z 1000dcb0 f i PatchMW2CModels.obj
 0001:0000ccb0       ??$_Uninit_fill@PAU?$pair@$$CBKPAUCModelAllocData@@@std@@U12@@std@@YAXPAU?$pair@$$CBKPAUCModelAllocData@@@0@0ABU10@U_Nonscalar_ptr_iterator_tag@0@@Z 1000dcb0 f i PatchMW2CModels.obj
 0001:0000cd60       ??$make_pair@KPAX@std@@YA?AU?$pair@KPAX@0@ABK$$QAPAX@Z 1000dd60 f i PatchMW2CModels.obj
 0001:0000cd60       ??$make_pair@KPAUCModelAllocData@@@std@@YA?AU?$pair@KPAUCModelAllocData@@@0@ABK$$QAPAUCModelAllocData@@@Z 1000dd60 f i PatchMW2CModels.obj
 0001:0000cd90       ??$?0KPAUCModelAllocData@@@?$pair@$$CBKPAUCModelAllocData@@@std@@QAE@$$QAU?$pair@KPAUCModelAllocData@@@1@@Z 1000dd90 f i PatchMW2CModels.obj
 0001:0000cd90       ??$?0KPAX@?$pair@$$CBKPAX@std@@QAE@$$QAU?$pair@KPAX@1@@Z 1000dd90 f i PatchMW2CModels.obj
 0001:0000cdd0       ??$swap@VKeyInfo@?$dense_hashtable@U?$pair@$$CBKPAUCModelAllocData@@@std@@KV?$hash_compare@KU?$less@K@std@@@stdext@@USelectKey@?$dense_hash_map@KPAUCModelAllocData@@V?$hash_compare@KU?$less@K@std@@@stdext@@U?$equal_to@K@std@@V?$libc_allocator_with_realloc@U?$pair@$$CBKPAUCModelAllocData@@@std@@@google@@@google@@USetKey@67@U?$equal_to@K@2@V?$libc_allocator_with_realloc@U?$pair@$$CBKPAUCModelAllocData@@@std@@@7@@google@@@std@@YAXAAVKeyInfo@?$dense_hashtable@U?$pair@$$CBKPAUCModelAllocData@@@std@@KV?$hash_compare@KU?$less@K@std@@@stdext@@USelectKey@?$dense_hash_map@KPAUCModelAllocData@@V?$hash_compare@KU?$less@K@std@@@stdext@@U?$equal_to@K@std@@V?$libc_allocator_with_realloc@U?$pair@$$CBKPAUCModelAllocData@@@std@@@google@@@google@@USetKey@67@U?$equal_to@K@2@V?$libc_allocator_with_realloc@U?$pair@$$CBKPAUCModelAllocData@@@std@@@7@@google@@0@Z 1000ddd0 f i PatchMW2CModels.obj
 0001:0000cdd0       ??$swap@VKeyInfo@?$dense_hashtable@U?$pair@$$CBKPAX@std@@KV?$hash_compare@KU?$less@K@std@@@stdext@@USelectKey@?$dense_hash_map@KPAXV?$hash_compare@KU?$less@K@std@@@stdext@@U?$equal_to@K@std@@V?$libc_allocator_with_realloc@U?$pair@$$CBKPAX@std@@@google@@@google@@USetKey@67@U?$equal_to@K@2@V?$libc_allocator_with_realloc@U?$pair@$$CBKPAX@std@@@7@@google@@@std@@YAXAAVKeyInfo@?$dense_hashtable@U?$pair@$$CBKPAX@std@@KV?$hash_compare@KU?$less@K@std@@@stdext@@USelectKey@?$dense_hash_map@KPAXV?$hash_compare@KU?$less@K@std@@@stdext@@U?$equal_to@K@std@@V?$libc_allocator_with_realloc@U?$pair@$$CBKPAX@std@@@google@@@google@@USetKey@67@U?$equal_to@K@2@V?$libc_allocator_with_realloc@U?$pair@$$CBKPAX@std@@@7@@google@@0@Z 1000ddd0 f i PatchMW2CModels.obj
 0001:0000ce30       ??$_Construct@U?$pair@PAEPAE@std@@ABU12@@std@@YAXPAU?$pair@PAEPAE@0@ABU10@@Z 1000de30 f i PatchMW2StringTable.obj
 0001:0000ce30       ??$_Construct@U?$pair@$$CBKPAX@std@@ABU12@@std@@YAXPAU?$pair@$$CBKPAX@0@ABU10@@Z 1000de30 f i PatchMW2CModels.obj
 0001:0000ce30       ??$_Construct@U?$pair@$$CBKPAUCModelAllocData@@@std@@ABU12@@std@@YAXPAU?$pair@$$CBKPAUCModelAllocData@@@0@ABU10@@Z 1000de30 f i PatchMW2CModels.obj
 0001:0000ceb0       ??$_Destroy_range@V?$allocator@PAUMaterial@@@std@@@std@@YAXPAPAUMaterial@@0AAV?$allocator@PAUMaterial@@@0@U_Scalar_ptr_iterator_tag@0@@Z 1000deb0 f i PatchMW2WeaponCamos.obj
 0001:0000ceb0       ??$_Destroy@PAU?$pair@PAEPAE@std@@@std@@YAXPAPAU?$pair@PAEPAE@0@@Z 1000deb0 f i PatchMW2StringTable.obj
 0001:0000ceb0       ??$_Destroy_range@V?$allocator@PAVCCallbackBase@@@std@@@std@@YAXPAPAVCCallbackBase@@0AAV?$allocator@PAVCCallbackBase@@@0@U_Scalar_ptr_iterator_tag@0@@Z 1000deb0 f i SteamBase.obj
 0001:0000ceb0       ??$_Destroy@U_Node@?$_List_nod@U?$pair@$$CB_K_N@std@@V?$allocator@U?$pair@$$CB_K_N@std@@@2@@std@@@std@@YAXPAU_Node@?$_List_nod@U?$pair@$$CB_K_N@std@@V?$allocator@U?$pair@$$CB_K_N@std@@@2@@0@@Z 1000deb0 f i SteamBase.obj
 0001:0000ceb0       ??$_Destroy@U_Container_proxy@std@@@std@@YAXPAU_Container_proxy@0@@Z 1000deb0 f i PatchMW2DownloadCL.obj
 0001:0000ceb0       ??$_Destroy_range@V?$allocator@PAUmenuDef_t@@@std@@@std@@YAXPAPAUmenuDef_t@@0AAV?$allocator@PAUmenuDef_t@@@0@U_Scalar_ptr_iterator_tag@0@@Z 1000deb0 f i PatchMW2UILoading.obj
 0001:0000ceb0       ??$_Destroy@V?$_List_iterator@V?$_List_val@U?$pair@$$CB_K_N@std@@V?$allocator@U?$pair@$$CB_K_N@std@@@2@@std@@@std@@@std@@YAXPAV?$_List_iterator@V?$_List_val@U?$pair@$$CB_K_N@std@@V?$allocator@U?$pair@$$CB_K_N@std@@@2@@std@@@0@@Z 1000deb0 f i SteamBase.obj
 0001:0000ceb0       ??$_Destroy@UUIClickHandler_t@@@std@@YAXPAUUIClickHandler_t@@@Z 1000deb0 f i PatchMW2UIScripts.obj
 0001:0000ceb0       ??$_Destroy@V?$_List_iterator@V?$_List_val@U?$pair@$$CBK_N@std@@V?$allocator@U?$pair@$$CBK_N@std@@@2@@std@@@std@@@std@@YAXPAV?$_List_iterator@V?$_List_val@U?$pair@$$CBK_N@std@@V?$allocator@U?$pair@$$CBK_N@std@@@2@@std@@@0@@Z 1000deb0 f i PatchMW2AssetRestrict.obj
 0001:0000ceb0       ??$_Destroy@V?$_List_iterator@V?$_List_val@U?$pair@$$CBV?$basic_string@DU?$char_traits@D@std@@V?$allocator@D@2@@std@@_N@std@@V?$allocator@U?$pair@$$CBV?$basic_string@DU?$char_traits@D@std@@V?$allocator@D@2@@std@@_N@std@@@2@@std@@@std@@@std@@YAXPAV?$_List_iterator@V?$_List_val@U?$pair@$$CBV?$basic_string@DU?$char_traits@D@std@@V?$allocator@D@2@@std@@_N@std@@V?$allocator@U?$pair@$$CBV?$basic_string@DU?$char_traits@D@std@@V?$allocator@D@2@@std@@_N@std@@@2@@std@@@0@@Z 1000deb0 f i PatchMW2Experiments.obj
 0001:0000ceb0       ??$_Destroy@U?$pair@$$CB_K_J@std@@@std@@YAXPAU?$pair@$$CB_K_J@0@@Z 1000deb0 f i PatchMW2PreAuthenticate.obj
 0001:0000ceb0       ??$_Destroy_range@V?$allocator@H@std@@@std@@YAXPAH0AAV?$allocator@H@0@U_Scalar_ptr_iterator_tag@0@@Z 1000deb0 f i Script.obj
 0001:0000ceb0       ??$_Destroy@U?$pair@$$CBKPAUCModelAllocData@@@std@@@std@@YAXPAU?$pair@$$CBKPAUCModelAllocData@@@0@@Z 1000deb0 f i PatchMW2CModels.obj
 0001:0000ceb0       ??$_Destroy@Unetadr_t@@@std@@YAXPAUnetadr_t@@@Z 1000deb0 f i PatchMW2Redirect.obj
 0001:0000ceb0       ??$_Destroy@USteamAPIResult_s@@@std@@YAXPAUSteamAPIResult_s@@@Z 1000deb0 f i SteamBase.obj
 0001:0000ceb0       ??$_Destroy@PAV?$deque@U?$pair@PAEPAE@std@@V?$allocator@U?$pair@PAEPAE@std@@@2@@std@@@std@@YAXPAPAV?$deque@U?$pair@PAEPAE@std@@V?$allocator@U?$pair@PAEPAE@std@@@2@@0@@Z 1000deb0 f i PatchMW2StringTable.obj
 0001:0000ceb0       ??$_Destroy@Udownload_s@@@std@@YAXPAUdownload_s@@@Z 1000deb0 f i PatchMW2DownloadCL.obj
 0001:0000ceb0       ??$_Destroy_range@V?$allocator@PAUdownload_s@@@std@@@std@@YAXPAPAUdownload_s@@0AAV?$allocator@PAUdownload_s@@@0@U_Scalar_ptr_iterator_tag@0@@Z 1000deb0 f i PatchMW2DownloadCL.obj
 0001:0000ceb0       ??$_Destroy@V?$_List_iterator@V?$_List_val@U?$pair@$$CBV?$basic_string@DU?$char_traits@D@std@@V?$allocator@D@2@@std@@P6AXH@Z@std@@V?$allocator@U?$pair@$$CBV?$basic_string@DU?$char_traits@D@std@@V?$allocator@D@2@@std@@P6AXH@Z@std@@@2@@std@@@std@@@std@@YAXPAV?$_List_iterator@V?$_List_val@U?$pair@$$CBV?$basic_string@DU?$char_traits@D@std@@V?$allocator@D@2@@std@@P6AXH@Z@std@@V?$allocator@U?$pair@$$CBV?$basic_string@DU?$char_traits@D@std@@V?$allocator@D@2@@std@@P6AXH@Z@std@@@2@@std@@@0@@Z 1000deb0 f i GameInterface.obj
 0001:0000ceb0       ??$_Destroy@U_Node@?$_List_nod@U?$pair@$$CBK_N@std@@V?$allocator@U?$pair@$$CBK_N@std@@@2@@std@@@std@@YAXPAU_Node@?$_List_nod@U?$pair@$$CBK_N@std@@V?$allocator@U?$pair@$$CBK_N@std@@@2@@0@@Z 1000deb0 f i PatchMW2AssetRestrict.obj
 0001:0000ceb0       ??$_Destroy@V?$_List_iterator@V?$_List_val@U?$pair@$$CBV?$basic_string@DU?$char_traits@D@std@@V?$allocator@D@2@@std@@PAUVehicleDef@@@std@@V?$allocator@U?$pair@$$CBV?$basic_string@DU?$char_traits@D@std@@V?$allocator@D@2@@std@@PAUVehicleDef@@@std@@@2@@std@@@std@@@std@@YAXPAV?$_List_iterator@V?$_List_val@U?$pair@$$CBV?$basic_string@DU?$char_traits@D@std@@V?$allocator@D@2@@std@@PAUVehicleDef@@@std@@V?$allocator@U?$pair@$$CBV?$basic_string@DU?$char_traits@D@std@@V?$allocator@D@2@@std@@PAUVehicleDef@@@std@@@2@@std@@@0@@Z 1000deb0 f i PatchMW2LoadVehicleDef.obj
 0001:0000ceb0       ??$_Destroy@UServerStorageEntry@@@std@@YAXPAUServerStorageEntry@@@Z 1000deb0 f i ServerStorage.obj
 0001:0000ceb0       ??$_Destroy@Ugscr_file_t@@@std@@YAXPAUgscr_file_t@@@Z 1000deb0 f i Script.obj
 0001:0000ceb0       ??$_Destroy_range@V?$allocator@PAV?$deque@U?$pair@PAEPAE@std@@V?$allocator@U?$pair@PAEPAE@std@@@2@@std@@@std@@@std@@YAXPAPAV?$deque@U?$pair@PAEPAE@std@@V?$allocator@U?$pair@PAEPAE@std@@@2@@0@0AAV?$allocator@PAV?$deque@U?$pair@PAEPAE@std@@V?$allocator@U?$pair@PAEPAE@std@@@2@@std@@@0@U_Scalar_ptr_iterator_tag@0@@Z 1000deb0 f i PatchMW2StringTable.obj
 0001:0000ceb0       ??$_Destroy@UUIScript_t@@@std@@YAXPAUUIScript_t@@@Z 1000deb0 f i PatchMW2UIScripts.obj
 0001:0000ceb0       ??$_Destroy@V?$_List_iterator@V?$_List_val@U?$pair@$$CB_KPAVCCallbackBase@@@std@@V?$allocator@U?$pair@$$CB_KPAVCCallbackBase@@@std@@@2@@std@@@std@@@std@@YAXPAV?$_List_iterator@V?$_List_val@U?$pair@$$CB_KPAVCCallbackBase@@@std@@V?$allocator@U?$pair@$$CB_KPAVCCallbackBase@@@std@@@2@@std@@@0@@Z 1000deb0 f i SteamBase.obj
 0001:0000ceb0       ??$_Destroy@U_Node@?$_List_nod@U?$pair@$$CB_KPAVCCallbackBase@@@std@@V?$allocator@U?$pair@$$CB_KPAVCCallbackBase@@@std@@@2@@std@@@std@@YAXPAU_Node@?$_List_nod@U?$pair@$$CB_KPAVCCallbackBase@@@std@@V?$allocator@U?$pair@$$CB_KPAVCCallbackBase@@@std@@@2@@0@@Z 1000deb0 f i SteamBase.obj
 0001:0000ceb0       ??$_Destroy_range@V?$allocator@PAUchallengeState_t@@@std@@@std@@YAXPAPAUchallengeState_t@@0AAV?$allocator@PAUchallengeState_t@@@0@U_Scalar_ptr_iterator_tag@0@@Z 1000deb0 f i PatchMW2PreAuthenticate.obj
 0001:0000ceb0       ??$_Destroy@U?$pair@$$CBKPAX@std@@@std@@YAXPAU?$pair@$$CBKPAX@0@@Z 1000deb0 f i PatchMW2CModels.obj
 0001:0000ceb0       ??3@YAXPAX0@Z              1000deb0 f i GameInterface.obj
 0001:0000ceb0       ??$_Destroy@U?$pair@PAEPAE@std@@@std@@YAXPAU?$pair@PAEPAE@0@@Z 1000deb0 f i PatchMW2StringTable.obj
 0001:0000ceb0       ??$_Destroy@PAUdownload_s@@@std@@YAXPAPAUdownload_s@@@Z 1000deb0 f i PatchMW2DownloadCL.obj
 0001:0000ceb0       ??$_Destroy@UUIFeeder_t@@@std@@YAXPAUUIFeeder_t@@@Z 1000deb0 f i PatchMW2ModList.obj
 0001:0000ceb0       ??$_Destroy@USteamInterface2_s@@@std@@YAXPAUSteamInterface2_s@@@Z 1000deb0 f i SteamBase.obj
 0001:0000ceb0       ??$_Destroy_range@V?$allocator@PAU?$pair@PAEPAE@std@@@std@@@std@@YAXPAPAU?$pair@PAEPAE@0@0AAV?$allocator@PAU?$pair@PAEPAE@std@@@0@U_Scalar_ptr_iterator_tag@0@@Z 1000deb0 f i PatchMW2StringTable.obj
 0001:0000cec0       ??$?0AAKPAX@?$_Pair_base@KPAX@std@@QAE@AAK$$QAPAX@Z 1000dec0 f i PatchMW2CModels.obj
 0001:0000cec0       ??$?0AAIABI@?$_Pair_base@II@std@@QAE@AAIABI@Z 1000dec0 f i PatchMW2CModels.obj
 0001:0000cec0       ??$?0KPAX@?$_Pair_base@$$CBKPAX@std@@QAE@$$QAK$$QAPAX@Z 1000dec0 f i PatchMW2CModels.obj
 0001:0000cec0       ??$?0ABIAAI@?$_Pair_base@II@std@@QAE@ABIAAI@Z 1000dec0 f i PatchMW2CModels.obj
 0001:0000cec0       ??$?0KPAUCModelAllocData@@@?$_Pair_base@$$CBKPAUCModelAllocData@@@std@@QAE@$$QAK$$QAPAUCModelAllocData@@@Z 1000dec0 f i PatchMW2CModels.obj
 0001:0000cec0       ??$?0AAKPAUCModelAllocData@@@?$_Pair_base@KPAUCModelAllocData@@@std@@QAE@AAK$$QAPAUCModelAllocData@@@Z 1000dec0 f i PatchMW2CModels.obj
 0001:0000cf00       ??0KeyInfo@?$dense_hashtable@U?$pair@$$CBKPAX@std@@KV?$hash_compare@KU?$less@K@std@@@stdext@@USelectKey@?$dense_hash_map@KPAXV?$hash_compare@KU?$less@K@std@@@stdext@@U?$equal_to@K@std@@V?$libc_allocator_with_realloc@U?$pair@$$CBKPAX@std@@@google@@@google@@USetKey@67@U?$equal_to@K@2@V?$libc_allocator_with_realloc@U?$pair@$$CBKPAX@std@@@7@@google@@QAE@ABUSelectKey@?$dense_hash_map@KPAXV?$hash_compare@KU?$less@K@std@@@stdext@@U?$equal_to@K@std@@V?$libc_allocator_with_realloc@U?$pair@$$CBKPAX@std@@@google@@@2@ABUSetKey@42@ABU?$equal_to@K@std@@@Z 1000df00 f i PatchMW2CModels.obj
 0001:0000cf00       ?setbuf@?$basic_streambuf@DU?$char_traits@D@std@@@std@@MAEPAV12@PAD_J@Z 1000df00 f i PatchMW2StringTable.obj
 0001:0000cf00       ??0KeyInfo@?$dense_hashtable@U?$pair@$$CBKPAUCModelAllocData@@@std@@KV?$hash_compare@KU?$less@K@std@@@stdext@@USelectKey@?$dense_hash_map@KPAUCModelAllocData@@V?$hash_compare@KU?$less@K@std@@@stdext@@U?$equal_to@K@std@@V?$libc_allocator_with_realloc@U?$pair@$$CBKPAUCModelAllocData@@@std@@@google@@@google@@USetKey@67@U?$equal_to@K@2@V?$libc_allocator_with_realloc@U?$pair@$$CBKPAUCModelAllocData@@@std@@@7@@google@@QAE@ABUSelectKey@?$dense_hash_map@KPAUCModelAllocData@@V?$hash_compare@KU?$less@K@std@@@stdext@@U?$equal_to@K@std@@V?$libc_allocator_with_realloc@U?$pair@$$CBKPAUCModelAllocData@@@std@@@google@@@2@ABUSetKey@42@ABU?$equal_to@K@std@@@Z 1000df00 f i PatchMW2CModels.obj
 0001:0000cf10       ??0ValInfo@?$dense_hashtable@U?$pair@$$CBKPAX@std@@KV?$hash_compare@KU?$less@K@std@@@stdext@@USelectKey@?$dense_hash_map@KPAXV?$hash_compare@KU?$less@K@std@@@stdext@@U?$equal_to@K@std@@V?$libc_allocator_with_realloc@U?$pair@$$CBKPAX@std@@@google@@@google@@USetKey@67@U?$equal_to@K@2@V?$libc_allocator_with_realloc@U?$pair@$$CBKPAX@std@@@7@@google@@QAE@ABV?$alloc_impl@V?$libc_allocator_with_realloc@U?$pair@$$CBKPAX@std@@@google@@@12@@Z 1000df10 f i PatchMW2CModels.obj
 0001:0000cf10       ??0ValInfo@?$dense_hashtable@U?$pair@$$CBKPAUCModelAllocData@@@std@@KV?$hash_compare@KU?$less@K@std@@@stdext@@USelectKey@?$dense_hash_map@KPAUCModelAllocData@@V?$hash_compare@KU?$less@K@std@@@stdext@@U?$equal_to@K@std@@V?$libc_allocator_with_realloc@U?$pair@$$CBKPAUCModelAllocData@@@std@@@google@@@google@@USetKey@67@U?$equal_to@K@2@V?$libc_allocator_with_realloc@U?$pair@$$CBKPAUCModelAllocData@@@std@@@7@@google@@QAE@ABV?$alloc_impl@V?$libc_allocator_with_realloc@U?$pair@$$CBKPAUCModelAllocData@@@std@@@google@@@12@@Z 1000df10 f i PatchMW2CModels.obj
 0001:0000cf70       ??0?$sh_hashtable_settings@KV?$hash_compare@KU?$less@K@std@@@stdext@@I$03@@QAE@ABV?$hash_compare@KU?$less@K@std@@@stdext@@MM@Z 1000df70 f i PatchMW2CModels.obj
 0001:0000cf70       ??0?$sh_hashtable_settings@V?$basic_string@DU?$char_traits@D@std@@V?$allocator@D@2@@std@@V?$hash_compare@V?$basic_string@DU?$char_traits@D@std@@V?$allocator@D@2@@std@@U?$less@V?$basic_string@DU?$char_traits@D@std@@V?$allocator@D@2@@std@@@2@@stdext@@I$03@@QAE@ABV?$hash_compare@V?$basic_string@DU?$char_traits@D@std@@V?$allocator@D@2@@std@@U?$less@V?$basic_string@DU?$char_traits@D@std@@V?$allocator@D@2@@std@@@2@@stdext@@MM@Z 1000df70 f i PatchMW2LocalizedStrings.obj
 0001:0000cfe0       ?set_enlarge_factor@?$sh_hashtable_settings@V?$basic_string@DU?$char_traits@D@std@@V?$allocator@D@2@@std@@V?$hash_compare@V?$basic_string@DU?$char_traits@D@std@@V?$allocator@D@2@@std@@U?$less@V?$basic_string@DU?$char_traits@D@std@@V?$allocator@D@2@@std@@@2@@stdext@@I$03@@QAEXM@Z 1000dfe0 f i PatchMW2LocalizedStrings.obj
 0001:0000cfe0       ?set_enlarge_factor@?$sh_hashtable_settings@KV?$hash_compare@KU?$less@K@std@@@stdext@@I$03@@QAEXM@Z 1000dfe0 f i PatchMW2CModels.obj
 0001:0000d000       ?set_shrink_factor@?$sh_hashtable_settings@KV?$hash_compare@KU?$less@K@std@@@stdext@@I$03@@QAEXM@Z 1000e000 f i PatchMW2CModels.obj
 0001:0000d000       ?set_shrink_factor@?$sh_hashtable_settings@V?$basic_string@DU?$char_traits@D@std@@V?$allocator@D@2@@std@@V?$hash_compare@V?$basic_string@DU?$char_traits@D@std@@V?$allocator@D@2@@std@@U?$less@V?$basic_string@DU?$char_traits@D@std@@V?$allocator@D@2@@std@@@2@@stdext@@I$03@@QAEXM@Z 1000e000 f i PatchMW2LocalizedStrings.obj
 0001:0000d020       ??0?$dense_hash_map@KPAUCModelAllocData@@V?$hash_compare@KU?$less@K@std@@@stdext@@U?$equal_to@K@std@@V?$libc_allocator_with_realloc@U?$pair@$$CBKPAUCModelAllocData@@@std@@@google@@@google@@QAE@IABV?$hash_compare@KU?$less@K@std@@@stdext@@ABU?$equal_to@K@std@@ABV?$libc_allocator_with_realloc@U?$pair@$$CBKPAUCModelAllocData@@@std@@@1@@Z 1000e020 f i PatchMW2CModels.obj
 0001:0000d020       ??0?$dense_hash_map@KPAXV?$hash_compare@KU?$less@K@std@@@stdext@@U?$equal_to@K@std@@V?$libc_allocator_with_realloc@U?$pair@$$CBKPAX@std@@@google@@@google@@QAE@IABV?$hash_compare@KU?$less@K@std@@@stdext@@ABU?$equal_to@K@std@@ABV?$libc_allocator_with_realloc@U?$pair@$$CBKPAX@std@@@1@@Z 1000e020 f i PatchMW2CModels.obj
 0001:0000d060       ??0?$dense_hashtable@U?$pair@$$CBKPAUCModelAllocData@@@std@@KV?$hash_compare@KU?$less@K@std@@@stdext@@USelectKey@?$dense_hash_map@KPAUCModelAllocData@@V?$hash_compare@KU?$less@K@std@@@stdext@@U?$equal_to@K@std@@V?$libc_allocator_with_realloc@U?$pair@$$CBKPAUCModelAllocData@@@std@@@google@@@google@@USetKey@67@U?$equal_to@K@2@V?$libc_allocator_with_realloc@U?$pair@$$CBKPAUCModelAllocData@@@std@@@7@@google@@QAE@IABV?$hash_compare@KU?$less@K@std@@@stdext@@ABU?$equal_to@K@std@@ABUSelectKey@?$dense_hash_map@KPAUCModelAllocData@@V?$hash_compare@KU?$less@K@std@@@stdext@@U?$equal_to@K@std@@V?$libc_allocator_with_realloc@U?$pair@$$CBKPAUCModelAllocData@@@std@@@google@@@1@ABUSetKey@71@ABV?$libc_allocator_with_realloc@U?$pair@$$CBKPAUCModelAllocData@@@std@@@1@@Z 1000e060 f i PatchMW2CModels.obj
 0001:0000d060       ??0?$dense_hashtable@U?$pair@$$CBKPAX@std@@KV?$hash_compare@KU?$less@K@std@@@stdext@@USelectKey@?$dense_hash_map@KPAXV?$hash_compare@KU?$less@K@std@@@stdext@@U?$equal_to@K@std@@V?$libc_allocator_with_realloc@U?$pair@$$CBKPAX@std@@@google@@@google@@USetKey@67@U?$equal_to@K@2@V?$libc_allocator_with_realloc@U?$pair@$$CBKPAX@std@@@7@@google@@QAE@IABV?$hash_compare@KU?$less@K@std@@@stdext@@ABU?$equal_to@K@std@@ABUSelectKey@?$dense_hash_map@KPAXV?$hash_compare@KU?$less@K@std@@@stdext@@U?$equal_to@K@std@@V?$libc_allocator_with_realloc@U?$pair@$$CBKPAX@std@@@google@@@1@ABUSetKey@71@ABV?$libc_allocator_with_realloc@U?$pair@$$CBKPAX@std@@@1@@Z 1000e060 f i PatchMW2CModels.obj
 0001:0000d150       ??1?$dense_hash_map@KPAXV?$hash_compare@KU?$less@K@std@@@stdext@@U?$equal_to@K@std@@V?$libc_allocator_with_realloc@U?$pair@$$CBKPAX@std@@@google@@@google@@QAE@XZ 1000e150 f i PatchMW2CModels.obj
 0001:0000d150       ??1?$dense_hash_map@KPAUCModelAllocData@@V?$hash_compare@KU?$less@K@std@@@stdext@@U?$equal_to@K@std@@V?$libc_allocator_with_realloc@U?$pair@$$CBKPAUCModelAllocData@@@std@@@google@@@google@@QAE@XZ 1000e150 f i PatchMW2CModels.obj
 0001:0000d170       ?DoWinMainInit@@YAXXZ      1000e170 f   PatchMW2Console.obj
 0001:0000d180       ?RefreshOutput@@YAXXZ      1000e180 f   PatchMW2Console.obj
 0001:0000d1d0       ?ScrollOutput@@YAXH@Z      1000e1d0 f   PatchMW2Console.obj
 0001:0000d250       ?Sys_CreateConsole@@YAXXZ  1000e250 f   PatchMW2Console.obj
 0001:0000d3c0       ?Sys_DestroyConsole@@YAXXZ 1000e3c0 f   PatchMW2Console.obj
 0001:0000d400       ?Sys_Print@@YAXPBD@Z       1000e400 f   PatchMW2Console.obj
 0001:0000d500       ?Sys_Error@@YAXPBDZZ       1000e500 f   PatchMW2Console.obj
 0001:0000d590       ?ShowConsolePrompt@@YAXXZ  1000e590 f   PatchMW2Console.obj
 0001:0000d5d0       ?UpdateConsoleStatus@@YAXXZ 1000e5d0 f   PatchMW2Console.obj
 0001:0000d6c0       ?Sys_ConsoleInput@@YAPBDXZ 1000e6c0 f   PatchMW2Console.obj
 0001:0000da40       ?PatchMW2_Console@@YAXXZ   1000ea40 f   PatchMW2Console.obj
 0001:0000db00       ?StripColors@@YAXPBDPADH@Z 1000eb00 f   PatchMW2ConsoleTitle.obj
 0001:0000dba0       ?SetWindowTitle@@YAXXZ     1000eba0 f   PatchMW2ConsoleTitle.obj
 0001:0000dd20       ?StringCbCopyA@@YGJPADIPBD@Z 1000ed20 f i PatchMW2ConsoleTitle.obj
 0001:0000dd70       ?InitDedicatedFastFiles@@YAXXZ 1000ed70 f   PatchMW2Dedicated.obj
 0001:0000dde0       ?InitDedicatedVars@@YAXXZ  1000ede0 f   PatchMW2Dedicated.obj
 0001:0000e160       ?InitLogFilter@@YAXXZ      1000f160 f   PatchMW2Dedicated.obj
 0001:0000e1b0       ?DedicatedInitHookStub@@YAXXZ 1000f1b0 f   PatchMW2Dedicated.obj
 0001:0000e1d0       ?G_MeSay@@YAXPAUgentity_s@@PBD1@Z 1000f1d0 f   PatchMW2Dedicated.obj
 0001:0000e2b0       ?Scriptability_OnSay@@YA_NHPADPAPADH@Z 1000f2b0 f   PatchMW2Dedicated.obj
 0001:0000e2e0       ?GSayPreHookFunc@@YAXXZ    1000f2e0 f   PatchMW2Dedicated.obj
 0001:0000e4b0       ?GSayPostHook1Func@@YAXXZ  1000f4b0 f   PatchMW2Dedicated.obj
 0001:0000e4d0       ?GSayPostHook2Func@@YAXXZ  1000f4d0 f   PatchMW2Dedicated.obj
 0001:0000e4f0       ?OnClientDisconnectHookFunc@@YAXPAUclient_s@@@Z 1000f4f0 f   PatchMW2Dedicated.obj
 0001:0000e530       ?OnClientDisconnectHookStub@@YAXXZ 1000f530 f   PatchMW2Dedicated.obj
 0001:0000e550       ?G_RunFrameHookFunc@@YAXXZ 1000f550 f   PatchMW2Dedicated.obj
 0001:0000e560       ?G_RunFrameHookStub@@YAXXZ 1000f560 f   PatchMW2Dedicated.obj
 0001:0000e570       ?PushAutoCommands@@YAXXZ   1000f570 f   PatchMW2Dedicated.obj
 0001:0000e610       ?DoPostInitStub@@YAXXZ     1000f610 f   PatchMW2Dedicated.obj
 0001:0000e630       ?CLICommandHook2Stub@@YAXXZ 1000f630 f   PatchMW2Dedicated.obj
 0001:0000e640       ?DoSteamCheckWrap@@YAXXZ   1000f640 f   PatchMW2Dedicated.obj
 0001:0000e650       ?DoSteamCheckStub@@YAXXZ   1000f650 f   PatchMW2Dedicated.obj
 0001:0000e660       ?Hook_SV_Heartbeat_f@@YAXXZ 1000f660 f   PatchMW2Dedicated.obj
 0001:0000e670       ?HeartbeatHookFrameStub@@YAXXZ 1000f670 f   PatchMW2Dedicated.obj
 0001:0000e680       ?KillServerHookStub@@YAXXZ 1000f680 f   PatchMW2Dedicated.obj
 0001:0000e690       ?StopServerHookStub@@YAXXZ 1000f690 f   PatchMW2Dedicated.obj
 0001:0000e6a0       ?CheckPrivateSlotHookFunc@@YAHPAX_J@Z 1000f6a0 f   PatchMW2Dedicated.obj
 0001:0000e750       ?CheckPrivateSlotHookStub@@YAXXZ 1000f750 f   PatchMW2Dedicated.obj
 0001:0000e760       ?PatchMW2_SayCommands@@YAXXZ 1000f760 f   PatchMW2Dedicated.obj
 0001:0000e7d0       ?PatchMW2_Dedicated@@YAXXZ 1000f7d0 f   PatchMW2Dedicated.obj
 0001:0000eb00       ?G_SayTo@@YAXHPAX0HKPBD1@Z 1000fb00 f   PatchMW2Dedicated.obj
 0001:0000eb30       ?G_SayToClient@@YAXHKPBD0@Z 1000fb30 f   PatchMW2Dedicated.obj
 0001:0000eb90       ?G_SayToAll@@YAXKPBD0@Z    1000fb90 f   PatchMW2Dedicated.obj
 0001:0000ec10       ?Cmd_GetStringSV@@YAXHPADI@Z 1000fc10 f   PatchMW2Dedicated.obj
 0001:0000ecb0       ?SV_ConSay_f@@YAXXZ        1000fcb0 f   PatchMW2Dedicated.obj
 0001:0000ed80       ?SV_ConSayRaw_f@@YAXXZ     1000fd80 f   PatchMW2Dedicated.obj
 0001:0000edf0       ?SV_ConTell_f@@YAXXZ       1000fdf0 f   PatchMW2Dedicated.obj
 0001:0000eef0       ?SV_ConTellRaw_f@@YAXXZ    1000fef0 f   PatchMW2Dedicated.obj
 0001:0000ef90       ?SV_ExecuteLastMap@@YAXXZ  1000ff90 f   PatchMW2Dedicated.obj
 0001:0000efe0       ?Party_ChooseNextPlaylistEntry@@YAXH@Z 1000ffe0 f   PatchMW2Dedicated.obj
 0001:0000f000       ?SV_MapRotateUsingPlaylists@@YAXXZ 10010000 f   PatchMW2Dedicated.obj
 0001:0000f070       ?SV_MapRotate_f@@YAXXZ     10010070 f   PatchMW2Dedicated.obj
 0001:0000f380       ?Dvar_SetS_f@@YAXXZ        10010380 f   PatchMW2Dedicated.obj
 0001:0000f400       ?SV_Exclamation_f@@YAXXZ   10010400 f   PatchMW2Dedicated.obj
 0001:0000f4e0       ?SV_MasterHeartbeat@@YAXXZ 100104e0 f   PatchMW2Dedicated.obj
 0001:0000f720       ?SV_Heartbeat_f@@YAXXZ     10010720 f   PatchMW2Dedicated.obj
 0001:0000f740       ?SV_MasterHeartbeat_OnKill@@YAXXZ 10010740 f   PatchMW2Dedicated.obj
 0001:0000f770       ?FrameEpilogueFunc@@YAXXZ  10010770 f   PatchMW2Dedicated.obj
 0001:0000f780       ?PacketEventHookFunc@@YAXXZ 10010780 f   PatchMW2Dedicated.obj
 0001:0000f790       ?PatchMW2_OneThread@@YAXXZ 10010790 f   PatchMW2Dedicated.obj
 0001:0000f840       ?Com_SaveDediConfig_Each@@YAXPAUdvar_t@@PAX@Z 10010840 f   PatchMW2DediConfig.obj
 0001:0000f890       ?Com_SaveDediConfig@@YAXXZ 10010890 f   PatchMW2DediConfig.obj
 0001:0000f8f0       ?Com_WriteDediConfig@@YAXXZ 100108f0 f   PatchMW2DediConfig.obj
 0001:0000f950       ?InitializeDediConfig@@YAXXZ 10010950 f   PatchMW2DediConfig.obj
 0001:0000fd00       ?ApplySlowMotionHookStub@@YAXH@Z 10010d00 f   PatchMW2DediSlowmotion.obj
 0001:0000fd30       ?SetSlowMotionHookFunc@@YAXXZ 10010d30 f   PatchMW2DediSlowmotion.obj
 0001:0000fe30       ?PatchMW2_DediSlowmotion@@YAXXZ 10010e30 f   PatchMW2DediSlowmotion.obj
 0001:0000fe80       ?_divideStuff@@YAHH@Z      10010e80 f   PatchMW2FrameRateSV.obj
 0001:0000fe90       ?G_AntiLagGetSnapStub@@YAXXZ 10010e90 f   PatchMW2FrameRateSV.obj
 0001:0000feb0       ?_getCachedSnapStub@@YAXXZ 10010eb0 f   PatchMW2FrameRateSV.obj
 0001:0000fed0       ?VM_ExecuteWaitIntFunc@@YAHH@Z 10010ed0 f   PatchMW2FrameRateSV.obj
 0001:0000fee0       ?VM_ExecuteWaitIntStub@@YAXXZ 10010ee0 f   PatchMW2FrameRateSV.obj
 0001:0000ff00       ?PatchFrameRate@@YAXD@Z    10010f00 f   PatchMW2FrameRateSV.obj
 0001:0000fff0       ?PatchMW2_FrameRate@@YAXXZ 10010ff0 f   PatchMW2FrameRateSV.obj
 0001:00010000       ?NET_Sleep@@YAXH@Z         10011000 f   PatchMW2FrameTime.obj
 0001:00010170       ?Com_TimeVal@@YAHH@Z       10011170 f   PatchMW2FrameTime.obj
 0001:000101b0       ?Com_FrameWait@@YAIH@Z     100111b0 f   PatchMW2FrameTime.obj
 0001:00010280       ?Com_FrameWaitHookStub@@YAXXZ 10011280 f   PatchMW2FrameTime.obj
 0001:000102a0       ?SV_FrameWaitFunc@@YAXXZ   100112a0 f   PatchMW2FrameTime.obj
 0001:000102d0       ?SV_FrameWaitHookStub@@YAXXZ 100112d0 f   PatchMW2FrameTime.obj
 0001:000102e0       ?PatchMW2_FrameTime@@YAXXZ 100112e0 f   PatchMW2FrameTime.obj
 0001:00010320       ?crc24@@YAIPAEI@Z          10011320 f   PatchMW2Packet.obj
 0001:000103a0       ?IP6Hash_IsIP6@@YA_NPAE@Z  100113a0 f   PatchMW2Packet.obj
 0001:000103c0       ?IP6Hash_Find@@YAIPAE@Z    100113c0 f   PatchMW2Packet.obj
 0001:00010450       ?IP6Hash_Add@@YAIPAE@Z     10011450 f   PatchMW2Packet.obj
 0001:00010540       ?IP6Hash_6to4@@YAIPAE@Z    10011540 f   PatchMW2Packet.obj
 0001:00010580       ?IP6Hash_4to6@@YAPAEI@Z    10011580 f   PatchMW2Packet.obj
 0001:00010600       ?NET_ErrorString@@YAPADXZ  10011600 f   PatchMW2Packet.obj
 0001:00010630       ?Sys_StringToAdr@@YAHPBDPAUnetadr_t@@@Z 10011630 f   PatchMW2Packet.obj
 0001:00010870       ?NET_StringToAdr_c@@YA_NPBDPAUnetadr_t@@@Z 10011870 f   PatchMW2Packet.obj
 0001:000109f0       ?NET_CompareBaseAdrSigned_c@@YA_NPAUnetadr_t@@0@Z 100119f0 f   PatchMW2Packet.obj
 0001:00010a50       ?NET_CompareAdrSigned_c@@YA_NPAUnetadr_t@@0@Z 10011a50 f   PatchMW2Packet.obj
 0001:00010aa0       ?NET_AdrToString_c@@YAPBDUnetadr_t@@@Z 10011aa0 f   PatchMW2Packet.obj
 0001:00010c30       ?Sys_GetPacket_c@@YAHPAUnetadr_t@@PAUmsg_t@@@Z 10011c30 f   PatchMW2Packet.obj
 0001:000110b0       ?Sys_SendPacket_c@@YAXHPBDUnetadr_t@@@Z 100120b0 f   PatchMW2Packet.obj
 0001:000111e0       ?PatchMW2_Packet@@YAXXZ    100121e0 f   PatchMW2Packet.obj
 0001:00011210       _gai_strerrorA             10012210 f i PatchMW2Packet.obj
 0001:00011250       ?strchr@@YAPADPADH@Z       10012250 f i PatchMW2Packet.obj
 0001:00011270       ?find@?$basic_string@DU?$char_traits@D@std@@V?$allocator@D@2@@std@@QBEIPBDI@Z 10012270 f i PatchMW2Packet.obj
 0001:000112a0       ?find@?$basic_string@DU?$char_traits@D@std@@V?$allocator@D@2@@std@@QBEIPBDII@Z 100122a0 f i PatchMW2Packet.obj
 0001:00011380       ?find@?$char_traits@D@std@@SAPBDPBDIABD@Z 10012380 f i PatchMW2Packet.obj
 0001:000113a0       ??$find@V?$_Vector_iterator@V?$_Vector_val@V?$basic_string@DU?$char_traits@D@std@@V?$allocator@D@2@@std@@V?$allocator@V?$basic_string@DU?$char_traits@D@std@@V?$allocator@D@2@@std@@@2@@std@@@std@@V?$basic_string@DU?$char_traits@D@std@@V?$allocator@D@2@@2@@std@@YA?AV?$_Vector_iterator@V?$_Vector_val@V?$basic_string@DU?$char_traits@D@std@@V?$allocator@D@2@@std@@V?$allocator@V?$basic_string@DU?$char_traits@D@std@@V?$allocator@D@2@@std@@@2@@std@@@0@V10@0ABV?$basic_string@DU?$char_traits@D@std@@V?$allocator@D@2@@0@@Z 100123a0 f i PatchMW2Packet.obj
 0001:000113f0       ??$transform@V?$_String_iterator@DU?$char_traits@D@std@@V?$allocator@D@2@@std@@V12@P6AHH@Z@std@@YA?AV?$_String_iterator@DU?$char_traits@D@std@@V?$allocator@D@2@@0@V10@00P6AHH@Z@Z 100123f0 f i PatchMW2Packet.obj
 0001:00011450       ??$?8DU?$char_traits@D@std@@V?$allocator@D@1@@std@@YA_NABV?$basic_string@DU?$char_traits@D@std@@V?$allocator@D@2@@0@PBD@Z 10012450 f i PatchMW2Packet.obj
 0001:00011470       ??$?9DU?$char_traits@D@std@@V?$allocator@D@1@@std@@YA_NABV?$basic_string@DU?$char_traits@D@std@@V?$allocator@D@2@@0@PBD@Z 10012470 f i PatchMW2Packet.obj
 0001:00011490       ??$_Find@PAV?$basic_string@DU?$char_traits@D@std@@V?$allocator@D@2@@std@@V12@@std@@YAPAV?$basic_string@DU?$char_traits@D@std@@V?$allocator@D@2@@0@PAV10@0ABV10@@Z 10012490 f i PatchMW2Packet.obj
 0001:000114d0       ??$_Rechecked@V?$_Vector_val@V?$basic_string@DU?$char_traits@D@std@@V?$allocator@D@2@@std@@V?$allocator@V?$basic_string@DU?$char_traits@D@std@@V?$allocator@D@2@@std@@@2@@std@@@std@@YAAAV?$_Vector_iterator@V?$_Vector_val@V?$basic_string@DU?$char_traits@D@std@@V?$allocator@D@2@@std@@V?$allocator@V?$basic_string@DU?$char_traits@D@std@@V?$allocator@D@2@@std@@@2@@std@@@0@AAV10@PAV?$basic_string@DU?$char_traits@D@std@@V?$allocator@D@2@@0@@Z 100124d0 f i PatchMW2Packet.obj
 0001:000114f0       ??$_Unchecked@DU?$char_traits@D@std@@V?$allocator@D@2@@std@@YAPADV?$_String_iterator@DU?$char_traits@D@std@@V?$allocator@D@2@@0@@Z 100124f0 f i PatchMW2Packet.obj
 0001:000114f0       ??$_Unchecked@V?$_Vector_val@V?$basic_string@DU?$char_traits@D@std@@V?$allocator@D@2@@std@@V?$allocator@V?$basic_string@DU?$char_traits@D@std@@V?$allocator@D@2@@std@@@2@@std@@@std@@YAPAV?$basic_string@DU?$char_traits@D@std@@V?$allocator@D@2@@0@V?$_Vector_iterator@V?$_Vector_val@V?$basic_string@DU?$char_traits@D@std@@V?$allocator@D@2@@std@@V?$allocator@V?$basic_string@DU?$char_traits@D@std@@V?$allocator@D@2@@std@@@2@@std@@@0@@Z 100124f0 f i PatchMW2Packet.obj
 0001:00011500       ??$_Transform@PADV?$_String_iterator@DU?$char_traits@D@std@@V?$allocator@D@2@@std@@P6AHH@Z@std@@YA?AV?$_String_iterator@DU?$char_traits@D@std@@V?$allocator@D@2@@0@PAD0V10@P6AHH@Z@Z 10012500 f i PatchMW2Packet.obj
 0001:00011550       ??E?$_String_iterator@DU?$char_traits@D@std@@V?$allocator@D@2@@std@@QAEAAV01@XZ 10012550 f i PatchMW2Packet.obj
 0001:00011570       ??E?$_String_const_iterator@DU?$char_traits@D@std@@V?$allocator@D@2@@std@@QAEAAV01@XZ 10012570 f i PatchMW2Packet.obj
 0001:00011590       ?compare@?$basic_string@DU?$char_traits@D@std@@V?$allocator@D@2@@std@@QBEHPBD@Z 10012590 f i PatchMW2Packet.obj
 0001:000115c0       ?end@?$basic_string@DU?$char_traits@D@std@@V?$allocator@D@2@@std@@QAE?AV?$_String_iterator@DU?$char_traits@D@std@@V?$allocator@D@2@@2@XZ 100125c0 f i PatchMW2Packet.obj
 0001:000115f0       ?begin@?$basic_string@DU?$char_traits@D@std@@V?$allocator@D@2@@std@@QAE?AV?$_String_iterator@DU?$char_traits@D@std@@V?$allocator@D@2@@2@XZ 100125f0 f i PatchMW2Packet.obj
 0001:00011620       ??0?$_String_iterator@DU?$char_traits@D@std@@V?$allocator@D@2@@std@@QAE@PADPBU_Container_base0@1@@Z 10012620 f i PatchMW2Packet.obj
 0001:00011640       ??0?$_String_const_iterator@DU?$char_traits@D@std@@V?$allocator@D@2@@std@@QAE@PBDPBU_Container_base0@1@@Z 10012640 f i PatchMW2Packet.obj
 0001:00011670       ?SV_Demo_WriteDemoMessage@@YAXW4DemoMessageType@@PAXI@Z 10012670 f   PatchMW2RecordingSV.obj
 0001:00011750       ?SV_Demo_StartRecording@@YAXXZ 10012750 f   PatchMW2RecordingSV.obj
 0001:00011780       ?SV_Demo_StopRecording@@YAXXZ 10012780 f   PatchMW2RecordingSV.obj
 0001:000117c0       ?Scr_IsDemoRecording@@YAXH@Z 100127c0 f   PatchMW2RecordingSV.obj
 0001:000117e0       ?Scr_StartDemoRecording@@YAXH@Z 100127e0 f   PatchMW2RecordingSV.obj
 0001:00011820       ?Scr_StopDemoRecording@@YAXH@Z 10012820 f   PatchMW2RecordingSV.obj
 0001:00011850       ?Scr_AddDemoBookmark@@YAXH@Z 10012850 f   PatchMW2RecordingSV.obj
 0001:00011860       ?SV_AddDemoClient@@YA_NXZ  10012860 f   PatchMW2RecordingSV.obj
 0001:00011ae0       ?SV_RemoveDemoClient@@YAXXZ 10012ae0 f   PatchMW2RecordingSV.obj
 0001:00011b10       ?SV_SendMessageToClientHookFunc@@YAXPAUmsg_t@@PAUclient_s@@@Z 10012b10 f   PatchMW2RecordingSV.obj
 0001:00011b40       ?SV_SendMessageToClientHookStub@@YAXXZ 10012b40 f   PatchMW2RecordingSV.obj
 0001:00011b60       ?PatchMW2_RecordingSV@@YAXXZ 10012b60 f   PatchMW2RecordingSV.obj
 0001:00011bd0       ?GamestateWriteHookFunc@@YAXPAUmsg_t@@D@Z 10012bd0 f   PatchMW2DemoRecording.obj
 0001:00011c00       ?GamestateWriteHookStub@@YAXXZ 10012c00 f   PatchMW2DemoRecording.obj
 0001:00011c10       ?BaselineStoreHookFunc@@YAXXZ 10012c10 f   PatchMW2DemoRecording.obj
 0001:00011c60       ?WriteBaseline@@YAXXZ      10012c60 f   PatchMW2DemoRecording.obj
 0001:00011db0       ?BaselineToFileFunc@@YAXXZ 10012db0 f   PatchMW2DemoRecording.obj
 0001:00011dd0       ?RecordGamestateFunc@@YAXXZ 10012dd0 f   PatchMW2DemoRecording.obj
 0001:00011e10       ?UISetActiveMenuHookStub@@YAXXZ 10012e10 f   PatchMW2DemoRecording.obj
 0001:00011e30       ?CL_AdjustTimeDeltaHookStub@@YAXXZ 10012e30 f   PatchMW2DemoRecording.obj
 0001:00011e50       ?ServerTimedOutHookStub@@YAXXZ 10012e50 f   PatchMW2DemoRecording.obj
 0001:00011e70       ?PatchMW2_DemoRecording@@YAXXZ 10012e70 f   PatchMW2DemoRecording.obj
 0001:00011fa0       ?FS_SV_FileExists@@YA_NPBD@Z 10012fa0 f   PatchMW2DownloadCL.obj
 0001:00012030       ?FS_FilenameCompare@@YAHPBD0@Z 10013030 f   PatchMW2DownloadCL.obj
 0001:000120d0       ?FS_iwIwd@@YA_NPAD0@Z      100130d0 f   PatchMW2DownloadCL.obj
 0001:00012130       ?FS_CompareWithServerFiles@@YAHPADH_N@Z 10013130 f   PatchMW2DownloadCL.obj
 0001:000123f0       ?DL_ProgressString@@YAPBDXZ 100133f0 f   PatchMW2DownloadCL.obj
 0001:00012460       ?CL_StartDownloads@@YAXH@Z 10013460 f   PatchMW2DownloadCL.obj
 0001:00012490       ?CL_InitDownloads@@YAXH@Z  10013490 f   PatchMW2DownloadCL.obj
 0001:00012540       ?FS_SearchPaths_f@@YAXXZ   10013540 f   PatchMW2DownloadCL.obj
 0001:000125c0       ?CL_InitDownloadQueue@@YAXXZ 100135c0 f   PatchMW2DownloadCL.obj
 0001:00012670       ?CL_QueueDownload@@YAXPBD0H@Z 10013670 f   PatchMW2DownloadCL.obj
 0001:000126f0       ?DL_Initialize@@YAXXZ      100136f0 f   PatchMW2DownloadCL.obj
 0001:00012720       ?DL_Shutdown@@YAXXZ        10013720 f   PatchMW2DownloadCL.obj
 0001:00012740       ?DL_DequeueDownload@@YAXXZ 10013740 f   PatchMW2DownloadCL.obj
 0001:000127a0       ?DL_WriteToFile@@YAIPAXIIPAU_iobuf@@@Z 100137a0 f   PatchMW2DownloadCL.obj
 0001:00012820       ?DL_ProcessDownload@@YAXXZ 10013820 f   PatchMW2DownloadCL.obj
 0001:00012b40       ?DL_Process@@YAXXZ         10013b40 f   PatchMW2DownloadCL.obj
 0001:00012bd0       ?CL_ParseDownload@@YAXHPAUmsg_t@@@Z 10013bd0 f   PatchMW2DownloadCL.obj
 0001:00012d60       ?CL_ParseServerMessageHookStub@@YAXXZ 10013d60 f   PatchMW2DownloadCL.obj
 0001:00012d90       ?GetFS_Game@@YAXXZ         10013d90 f   PatchMW2DownloadCL.obj
 0001:00012dc0       ?clParseGamestateHookStub@@YAXXZ 10013dc0 f   PatchMW2DownloadCL.obj
 0001:00012de0       ?NUI_Frame@@YAXXZ          10013de0 f   PatchMW2DownloadCL.obj
 0001:00012e00       ?CL_FrameHookStub@@YAXXZ   10013e00 f   PatchMW2DownloadCL.obj
 0001:00012e20       ?DisplayConnectionStatusHookStub@@YAXXZ 10013e20 f   PatchMW2DownloadCL.obj
 0001:00012e40       ?PatchMW2_DownloadClient@@YAXXZ 10013e40 f   PatchMW2DownloadCL.obj
 0001:00013150       ?strstr@@YAPADPADPBD@Z     10014150 f i PatchMW2DownloadCL.obj
 0001:00013170       ??1?$queue@Udownload_s@@V?$deque@Udownload_s@@V?$allocator@Udownload_s@@@std@@@std@@@std@@QAE@XZ 10014170 f i PatchMW2DownloadCL.obj
 0001:00013190       ?NextSiblingElement@TiXmlNode@@QAEPAVTiXmlElement@@XZ 10014190 f i PatchMW2DownloadCL.obj
 0001:000131b0       ?FirstChildElement@TiXmlNode@@QAEPAVTiXmlElement@@PBD@Z 100141b0 f i PatchMW2DownloadCL.obj
 0001:000131d0       ??1TiXmlDocument@@UAE@XZ   100141d0 f i PatchMW2DownloadCL.obj
 0001:00013230       ??1TiXmlString@@QAE@XZ     10014230 f i PatchMW2DownloadCL.obj
 0001:00013250       ?quit@TiXmlString@@AAEXXZ  10014250 f i PatchMW2DownloadCL.obj
 0001:00013280       ?ToUnknown@TiXmlNode@@UAEPAVTiXmlUnknown@@XZ 10014280 f i PatchMW2DownloadCL.obj
 0001:00013280       ?ToComment@TiXmlNode@@UAEPAVTiXmlComment@@XZ 10014280 f i PatchMW2DownloadCL.obj
 0001:00013280       ?ToDeclaration@TiXmlNode@@UBEPBVTiXmlDeclaration@@XZ 10014280 f i PatchMW2DownloadCL.obj
 0001:00013280       ?ToText@TiXmlNode@@UBEPBVTiXmlText@@XZ 10014280 f i PatchMW2DownloadCL.obj
 0001:00013280       ?ToElement@TiXmlNode@@UAEPAVTiXmlElement@@XZ 10014280 f i PatchMW2DownloadCL.obj
 0001:00013280       ?ToComment@TiXmlNode@@UBEPBVTiXmlComment@@XZ 10014280 f i PatchMW2DownloadCL.obj
 0001:00013280       ?ToUnknown@TiXmlNode@@UBEPBVTiXmlUnknown@@XZ 10014280 f i PatchMW2DownloadCL.obj
 0001:00013280       ?sync@?$basic_streambuf@DU?$char_traits@D@std@@@std@@MAEHXZ 10014280 f i PatchMW2StringTable.obj
 0001:00013280       ?ToElement@TiXmlNode@@UBEPBVTiXmlElement@@XZ 10014280 f i PatchMW2DownloadCL.obj
 0001:00013280       ?ToText@TiXmlNode@@UAEPAVTiXmlText@@XZ 10014280 f i PatchMW2DownloadCL.obj
 0001:00013280       ?ToDeclaration@TiXmlNode@@UAEPAVTiXmlDeclaration@@XZ 10014280 f i PatchMW2DownloadCL.obj
 0001:00013290       ??_GTiXmlDocument@@UAEPAXI@Z 10014290 f i PatchMW2DownloadCL.obj
 0001:00013290       ??_ETiXmlDocument@@UAEPAXI@Z 10014290 f i PatchMW2DownloadCL.obj
 0001:000132c0       ?Element@TiXmlHandle@@QBEPAVTiXmlElement@@XZ 100142c0 f i PatchMW2DownloadCL.obj
 0001:000132e0       ?ToElement@TiXmlHandle@@QBEPAVTiXmlElement@@XZ 100142e0 f i PatchMW2DownloadCL.obj
 0001:00013330       ??0?$queue@Udownload_s@@V?$deque@Udownload_s@@V?$allocator@Udownload_s@@@std@@@std@@@std@@QAE@XZ 10014330 f i PatchMW2DownloadCL.obj
 0001:00013350       ?size@?$queue@Udownload_s@@V?$deque@Udownload_s@@V?$allocator@Udownload_s@@@std@@@std@@@std@@QBEIXZ 10014350 f i PatchMW2DownloadCL.obj
 0001:00013350       ?row_count@token_grid@strtk@@QBEIXZ 10014350 f i PatchMW2StringTable.obj
 0001:00013370       ?front@?$queue@Udownload_s@@V?$deque@Udownload_s@@V?$allocator@Udownload_s@@@std@@@std@@@std@@QAEAAUdownload_s@@XZ 10014370 f i PatchMW2DownloadCL.obj
 0001:00013390       ?push@?$queue@Udownload_s@@V?$deque@Udownload_s@@V?$allocator@Udownload_s@@@std@@@std@@@std@@QAEXABUdownload_s@@@Z 10014390 f i PatchMW2DownloadCL.obj
 0001:000133b0       ?pop@?$queue@Udownload_s@@V?$deque@Udownload_s@@V?$allocator@Udownload_s@@@std@@@std@@@std@@QAEXXZ 100143b0 f i PatchMW2DownloadCL.obj
 0001:000133d0       ??1?$deque@Udownload_s@@V?$allocator@Udownload_s@@@std@@@std@@QAE@XZ 100143d0 f i PatchMW2DownloadCL.obj
 0001:00013420       ?front@?$deque@Udownload_s@@V?$allocator@Udownload_s@@@std@@@std@@QAEAAUdownload_s@@XZ 10014420 f i PatchMW2DownloadCL.obj
 0001:00013490       ?pop_front@?$deque@Udownload_s@@V?$allocator@Udownload_s@@@std@@@std@@QAEXXZ 10014490 f i PatchMW2DownloadCL.obj
 0001:00013540       ?push_back@?$deque@Udownload_s@@V?$allocator@Udownload_s@@@std@@@std@@QAEXABUdownload_s@@@Z 10014540 f i PatchMW2DownloadCL.obj
 0001:00013630       ?_Tidy@?$deque@Udownload_s@@V?$allocator@Udownload_s@@@std@@@std@@IAEXXZ 10014630 f i PatchMW2DownloadCL.obj
 0001:000136f0       ??1?$_Deque_val@Udownload_s@@V?$allocator@Udownload_s@@@std@@@std@@QAE@XZ 100146f0 f i PatchMW2DownloadCL.obj
 0001:000136f0       ??1?$_Deque_val@V?$deque@U?$pair@PAEPAE@std@@V?$allocator@U?$pair@PAEPAE@std@@@2@@std@@V?$allocator@V?$deque@U?$pair@PAEPAE@std@@V?$allocator@U?$pair@PAEPAE@std@@@2@@std@@@2@@std@@QAE@XZ 100146f0 f i PatchMW2StringTable.obj
 0001:000136f0       ??1?$_Deque_val@U?$pair@PAEPAE@std@@V?$allocator@U?$pair@PAEPAE@std@@@2@@std@@QAE@XZ 100146f0 f i PatchMW2StringTable.obj
 0001:00013780       ?empty@?$deque@V?$deque@U?$pair@PAEPAE@std@@V?$allocator@U?$pair@PAEPAE@std@@@2@@std@@V?$allocator@V?$deque@U?$pair@PAEPAE@std@@V?$allocator@U?$pair@PAEPAE@std@@@2@@std@@@2@@std@@QBE_NXZ 10014780 f i PatchMW2StringTable.obj
 0001:00013780       ?empty@?$deque@U?$pair@PAEPAE@std@@V?$allocator@U?$pair@PAEPAE@std@@@2@@std@@QBE_NXZ 10014780 f i PatchMW2StringTable.obj
 0001:00013780       ?empty@?$deque@Udownload_s@@V?$allocator@Udownload_s@@@std@@@std@@QBE_NXZ 10014780 f i PatchMW2DownloadCL.obj
 0001:000137a0       ?pop_back@?$deque@Udownload_s@@V?$allocator@Udownload_s@@@std@@@std@@QAEXXZ 100147a0 f i PatchMW2DownloadCL.obj
 0001:00013850       ?_Growmap@?$deque@Udownload_s@@V?$allocator@Udownload_s@@@std@@@std@@IAEXI@Z 10014850 f i PatchMW2DownloadCL.obj
 0001:00013a60       ??0?$_Pair_base@$$CBKPAUCModelAllocData@@@std@@QAE@XZ 10014a60 f i PatchMW2CModels.obj
 0001:00013a60       ??0_Container_proxy@std@@QAE@XZ 10014a60 f i PatchMW2DownloadCL.obj
 0001:00013a60       ??0?$_Pair_base@$$CBKPAX@std@@QAE@XZ 10014a60 f i PatchMW2CModels.obj
 0001:00013a60       ??0_Iterator_base12@std@@QAE@XZ 10014a60 f i PatchMW2DownloadCL.obj
 0001:00013a90       ?allocate@?$allocator@Udownload_s@@@std@@QAEPAUdownload_s@@I@Z 10014a90 f i PatchMW2DownloadCL.obj
 0001:00013ab0       ??D?$_Deque_iterator@Udownload_s@@V?$allocator@Udownload_s@@@std@@@std@@QBEAAUdownload_s@@XZ 10014ab0 f i PatchMW2DownloadCL.obj
 0001:00013ad0       ?max_size@?$deque@Udownload_s@@V?$allocator@Udownload_s@@@std@@@std@@QBEIXZ 10014ad0 f i PatchMW2DownloadCL.obj
 0001:00013af0       ??0?$_Deque_iterator@Udownload_s@@V?$allocator@Udownload_s@@@std@@@std@@QAE@IPBU_Container_base12@1@@Z 10014af0 f i PatchMW2DownloadCL.obj
 0001:00013af0       ??0?$_Deque_iterator@U?$pair@PAEPAE@std@@V?$allocator@U?$pair@PAEPAE@std@@@2@@std@@QAE@IPBU_Container_base12@1@@Z 10014af0 f i PatchMW2StringTable.obj
 0001:00013b10       ??D?$_Deque_const_iterator@Udownload_s@@V?$allocator@Udownload_s@@@std@@@std@@QBEABUdownload_s@@XZ 10014b10 f i PatchMW2DownloadCL.obj
 0001:00013b70       ?_Getcont@_Iterator_base12@std@@QBEPBU_Container_base12@2@XZ 10014b70 f i PatchMW2DownloadCL.obj
 0001:00013ba0       ?max_size@?$allocator@Udownload_s@@@std@@QBEIXZ 10014ba0 f i PatchMW2DownloadCL.obj
 0001:00013bd0       ??0?$_Deque_const_iterator@V?$deque@U?$pair@PAEPAE@std@@V?$allocator@U?$pair@PAEPAE@std@@@2@@std@@V?$allocator@V?$deque@U?$pair@PAEPAE@std@@V?$allocator@U?$pair@PAEPAE@std@@@2@@std@@@2@@std@@QAE@IPBU_Container_base12@1@@Z 10014bd0 f i PatchMW2StringTable.obj
 0001:00013bd0       ??0?$_Deque_const_iterator@Udownload_s@@V?$allocator@Udownload_s@@@std@@@std@@QAE@IPBU_Container_base12@1@@Z 10014bd0 f i PatchMW2DownloadCL.obj
 0001:00013bd0       ??0?$_Deque_const_iterator@U?$pair@PAEPAE@std@@V?$allocator@U?$pair@PAEPAE@std@@@2@@std@@QAE@IPBU_Container_base12@1@@Z 10014bd0 f i PatchMW2StringTable.obj
 0001:00013c30       ?_Adopt@_Iterator_base12@std@@QAEXPBU_Container_base12@2@@Z 10014c30 f i PatchMW2DownloadCL.obj
 0001:00013c60       ??$swap@Udownload_s@@V?$deque@Udownload_s@@V?$allocator@Udownload_s@@@std@@@std@@@std@@YAXAAV?$queue@Udownload_s@@V?$deque@Udownload_s@@V?$allocator@Udownload_s@@@std@@@std@@@0@0@Z 10014c60 f i PatchMW2DownloadCL.obj
 0001:00013c80       ??$_Cons_val@V?$allocator@Udownload_s@@@std@@Udownload_s@@ABU3@@std@@YAXAAV?$allocator@Udownload_s@@@0@PAUdownload_s@@ABU2@@Z 10014c80 f i PatchMW2DownloadCL.obj
 0001:00013ca0       ??$_Destroy_range@V?$allocator@PAUchallengeState_t@@@std@@@std@@YAXPAPAUchallengeState_t@@0AAV?$allocator@PAUchallengeState_t@@@0@@Z 10014ca0 f i PatchMW2PreAuthenticate.obj
 0001:00013ca0       ??$_Destroy_range@V?$allocator@PAUMaterial@@@std@@@std@@YAXPAPAUMaterial@@0AAV?$allocator@PAUMaterial@@@0@@Z 10014ca0 f i PatchMW2WeaponCamos.obj
 0001:00013ca0       ??$_Destroy_range@V?$allocator@PAVCCallbackBase@@@std@@@std@@YAXPAPAVCCallbackBase@@0AAV?$allocator@PAVCCallbackBase@@@0@@Z 10014ca0 f i SteamBase.obj
 0001:00013ca0       ??$_Destroy_range@V?$allocator@H@std@@@std@@YAXPAH0AAV?$allocator@H@0@@Z 10014ca0 f i Script.obj
 0001:00013ca0       ??$_Destroy_range@V?$allocator@PAV?$deque@U?$pair@PAEPAE@std@@V?$allocator@U?$pair@PAEPAE@std@@@2@@std@@@std@@@std@@YAXPAPAV?$deque@U?$pair@PAEPAE@std@@V?$allocator@U?$pair@PAEPAE@std@@@2@@0@0AAV?$allocator@PAV?$deque@U?$pair@PAEPAE@std@@V?$allocator@U?$pair@PAEPAE@std@@@2@@std@@@0@@Z 10014ca0 f i PatchMW2StringTable.obj
 0001:00013ca0       ??$_Destroy_range@V?$allocator@PAU?$pair@PAEPAE@std@@@std@@@std@@YAXPAPAU?$pair@PAEPAE@0@0AAV?$allocator@PAU?$pair@PAEPAE@std@@@0@@Z 10014ca0 f i PatchMW2StringTable.obj
 0001:00013ca0       ??$_Destroy_range@V?$allocator@PAUmenuDef_t@@@std@@@std@@YAXPAPAUmenuDef_t@@0AAV?$allocator@PAUmenuDef_t@@@0@@Z 10014ca0 f i PatchMW2UILoading.obj
 0001:00013ca0       ??$_Destroy_range@V?$allocator@PAUdownload_s@@@std@@@std@@YAXPAPAUdownload_s@@0AAV?$allocator@PAUdownload_s@@@0@@Z 10014ca0 f i PatchMW2DownloadCL.obj
 0001:00013ce0       ??$_Allocate@Udownload_s@@@std@@YAPAUdownload_s@@IPAU1@@Z 10014ce0 f i PatchMW2DownloadCL.obj
 0001:00013d40       ?swap@?$queue@Udownload_s@@V?$deque@Udownload_s@@V?$allocator@Udownload_s@@@std@@@std@@@std@@QAEXAAV12@@Z 10014d40 f i PatchMW2DownloadCL.obj
 0001:00013d60       ?construct@?$allocator@Udownload_s@@@std@@QAEXPAUdownload_s@@ABU3@@Z 10014d60 f i PatchMW2DownloadCL.obj
 0001:00013d80       ?swap@?$deque@Udownload_s@@V?$allocator@Udownload_s@@@std@@@std@@QAEXAAV12@@Z 10014d80 f i PatchMW2DownloadCL.obj
 0001:00013ea0       ?_Swap_all@_Container_base12@std@@QAEXAAU12@@Z 10014ea0 f i PatchMW2DownloadCL.obj
 0001:00013ef0       ??0?$deque@Udownload_s@@V?$allocator@Udownload_s@@@std@@@std@@QAE@$$QAV01@@Z 10014ef0 f i PatchMW2DownloadCL.obj
 0001:00013f60       ??4?$deque@Udownload_s@@V?$allocator@Udownload_s@@@std@@@std@@QAEAAV01@$$QAV01@@Z 10014f60 f i PatchMW2DownloadCL.obj
 0001:00013f90       ?_Assign_rv@?$deque@Udownload_s@@V?$allocator@Udownload_s@@@std@@@std@@QAEX$$QAV12@@Z 10014f90 f i PatchMW2DownloadCL.obj
 0001:00014100       ?push_back@?$deque@Udownload_s@@V?$allocator@Udownload_s@@@std@@@std@@QAEX$$QAUdownload_s@@@Z 10015100 f i PatchMW2DownloadCL.obj
 0001:000141f0       ?get_allocator@?$deque@Udownload_s@@V?$allocator@Udownload_s@@@std@@@std@@QBE?AV?$allocator@Udownload_s@@@2@XZ 100151f0 f i PatchMW2DownloadCL.obj
 0001:00014210       ?clear@?$deque@Udownload_s@@V?$allocator@Udownload_s@@@std@@@std@@QAEXXZ 10015210 f i PatchMW2DownloadCL.obj
 0001:00014230       ??E?$_Deque_const_iterator@U?$pair@PAEPAE@std@@V?$allocator@U?$pair@PAEPAE@std@@@2@@std@@QAEAAV01@XZ 10015230 f i PatchMW2StringTable.obj
 0001:00014230       ??E?$_Deque_const_iterator@Udownload_s@@V?$allocator@Udownload_s@@@std@@@std@@QAEAAV01@XZ 10015230 f i PatchMW2DownloadCL.obj
 0001:00014250       ??$_Uninit_def_fill_n@PAU?$pair@PAEPAE@std@@IPAU12@PAU12@@std@@YAXPAPAU?$pair@PAEPAE@0@IPBQAU10@AAV?$allocator@PAU?$pair@PAEPAE@std@@@0@0U_Scalar_ptr_iterator_tag@0@@Z 10015250 f i PatchMW2StringTable.obj
 0001:00014250       ??$_Uninit_def_fill_n@PAV?$deque@U?$pair@PAEPAE@std@@V?$allocator@U?$pair@PAEPAE@std@@@2@@std@@IPAV12@PAV12@@std@@YAXPAPAV?$deque@U?$pair@PAEPAE@std@@V?$allocator@U?$pair@PAEPAE@std@@@2@@0@IPBQAV10@AAV?$allocator@PAV?$deque@U?$pair@PAEPAE@std@@V?$allocator@U?$pair@PAEPAE@std@@@2@@std@@@0@0U_Scalar_ptr_iterator_tag@0@@Z 10015250 f i PatchMW2StringTable.obj
 0001:00014250       ??$_Uninit_def_fill_n@PAUdownload_s@@IPAU1@PAU1@@std@@YAXPAPAUdownload_s@@IPBQAU1@AAV?$allocator@PAUdownload_s@@@0@0U_Scalar_ptr_iterator_tag@0@@Z 10015250 f i PatchMW2DownloadCL.obj
 0001:00014280       ??$_Construct@Udownload_s@@ABU1@@std@@YAXPAUdownload_s@@ABU1@@Z 10015280 f i PatchMW2DownloadCL.obj
 0001:00014310       ??$?8PAUmenuDef_t@@PAU0@@std@@YA_NABV?$allocator@PAUmenuDef_t@@@0@0@Z 10015310 f i PatchMW2UILoading.obj
 0001:00014310       ??$?8Udownload_s@@U0@@std@@YA_NABV?$allocator@Udownload_s@@@0@0@Z 10015310 f i PatchMW2DownloadCL.obj
 0001:00014310       ??$?8DD@std@@YA_NABV?$allocator@D@0@0@Z 10015310 f i MW2.obj
 0001:00014320       ??$_Swap_adl@PAE@std@@YAXAAPAE0@Z 10015320 f i PatchMW2StringTable.obj
 0001:00014320       ??$_Swap_adl@PAPAUdownload_s@@@std@@YAXAAPAPAUdownload_s@@0@Z 10015320 f i PatchMW2DownloadCL.obj
 0001:00014340       ??$_Cons_val@V?$allocator@Udownload_s@@@std@@Udownload_s@@U3@@std@@YAXAAV?$allocator@Udownload_s@@@0@PAUdownload_s@@$$QAU2@@Z 10015340 f i PatchMW2DownloadCL.obj
 0001:00014360       ?construct@?$allocator@Udownload_s@@@std@@QAEXPAUdownload_s@@$$QAU3@@Z 10015360 f i PatchMW2DownloadCL.obj
 0001:000143f0       ??$swap@PAU?$pair@$$CBV?$basic_string@DU?$char_traits@D@std@@V?$allocator@D@2@@std@@G@std@@@std@@YAXAAPAU?$pair@$$CBV?$basic_string@DU?$char_traits@D@std@@V?$allocator@D@2@@std@@G@0@0@Z 100153f0 f i PatchMW2StringList.obj
 0001:000143f0       ??$swap@PAU?$pair@$$CBV?$basic_string@DU?$char_traits@D@std@@V?$allocator@D@2@@std@@PAUXModel@@@std@@@std@@YAXAAPAU?$pair@$$CBV?$basic_string@DU?$char_traits@D@std@@V?$allocator@D@2@@std@@PAUXModel@@@0@0@Z 100153f0 f i PatchMW2WeaponCamos.obj
 0001:000143f0       ??$swap@I@std@@YAXAAI0@Z   100153f0 f i PatchMW2CModels.obj
 0001:000143f0       ??$swap@PAU?$pair@$$CBV?$basic_string@DU?$char_traits@D@std@@V?$allocator@D@2@@std@@V12@@std@@@std@@YAXAAPAU?$pair@$$CBV?$basic_string@DU?$char_traits@D@std@@V?$allocator@D@2@@std@@V12@@0@0@Z 100153f0 f i PatchMW2LocalizedStrings.obj
 0001:000143f0       ??$swap@PAU?$pair@$$CBKPAX@std@@@std@@YAXAAPAU?$pair@$$CBKPAX@0@0@Z 100153f0 f i PatchMW2CModels.obj
 0001:000143f0       ??$swap@PAU?$pair@$$CBV?$basic_string@DU?$char_traits@D@std@@V?$allocator@D@2@@std@@PAUMaterial@@@std@@@std@@YAXAAPAU?$pair@$$CBV?$basic_string@DU?$char_traits@D@std@@V?$allocator@D@2@@std@@PAUMaterial@@@0@0@Z 100153f0 f i PatchMW2Materialism.obj
 0001:000143f0       ??$swap@PAE@std@@YAXAAPAE0@Z 100153f0 f i PatchMW2StringTable.obj
 0001:000143f0       ??$swap@PAU?$pair@$$CBV?$basic_string@DU?$char_traits@D@std@@V?$allocator@D@2@@std@@PAUstringTable_s@@@std@@@std@@YAXAAPAU?$pair@$$CBV?$basic_string@DU?$char_traits@D@std@@V?$allocator@D@2@@std@@PAUstringTable_s@@@0@0@Z 100153f0 f i PatchMW2StringTable.obj
 0001:000143f0       ??$swap@PAPAUdownload_s@@@std@@YAXAAPAPAUdownload_s@@0@Z 100153f0 f i PatchMW2DownloadCL.obj
 0001:000143f0       ??$swap@PAU?$pair@$$CBKPAUCModelAllocData@@@std@@@std@@YAXAAPAU?$pair@$$CBKPAUCModelAllocData@@@0@0@Z 100153f0 f i PatchMW2CModels.obj
 0001:00014430       ?StringCbCatA@@YGJPADIPBD@Z 10015430 f i PatchMW2DownloadCL.obj
 0001:00014490       ??0dlState@@QAE@XZ         10015490 f i PatchMW2DownloadCL.obj
 0001:000144b0       ??1dlState@@QAE@XZ         100154b0 f i PatchMW2DownloadCL.obj
 0001:000144d0       ?SV_SendDownloads_f@@YAXPAX@Z 100154d0 f   PatchMW2DownloadSV.obj
 0001:00014540       ?SV_cp@@YAXPAX@Z           10015540 f   PatchMW2DownloadSV.obj
 0001:00014580       ?SV_userinfo@@YAXPAX@Z     10015580 f   PatchMW2DownloadSV.obj
 0001:000145c0       ?SV_vdr@@YAXPAX@Z          100155c0 f   PatchMW2DownloadSV.obj
 0001:00014600       ?SV_matchdatadone@@YAXPAX@Z 10015600 f   PatchMW2DownloadSV.obj
 0001:00014640       ?SV_status@@YAXPAX@Z       10015640 f   PatchMW2DownloadSV.obj
 0001:00014680       ?SV_nulled@@YAXPAX@Z       10015680 f   PatchMW2DownloadSV.obj
 0001:00014690       ?SV_WriteDownloadToClient@@YAXPAXPAUmsg_t@@@Z 10015690 f   PatchMW2DownloadSV.obj
 0001:000149e0       ?FS_GetFileForDownload@@YA_NPBDPADI@Z 100159e0 f   PatchMW2DownloadSV.obj
 0001:00014b60       ?EndClientSnapshotHookStub@@YAXXZ 10015b60 f   PatchMW2DownloadSV.obj
 0001:00014b70       ?PatchMW2_DownloadServer@@YAXXZ 10015b70 f   PatchMW2DownloadSV.obj
 0001:00014dc0       ??0TiXmlPrinter@@QAE@XZ    10015dc0 f i PatchMW2DownloadSV.obj
 0001:00014e50       ??0TiXmlString@@QAE@XZ     10015e50 f i PatchMW2DownloadSV.obj
 0001:00014e70       ??0TiXmlString@@QAE@PBD@Z  10015e70 f i PatchMW2DownloadSV.obj
 0001:00014ec0       ?length@TiXmlString@@QBEIXZ 10015ec0 f i PatchMW2DownloadSV.obj
 0001:00014ee0       ?init@TiXmlString@@AAEXI@Z 10015ee0 f i PatchMW2DownloadSV.obj
 0001:00014f00       ?init@TiXmlString@@AAEXII@Z 10015f00 f i PatchMW2DownloadSV.obj
 0001:00014f80       ??1TiXmlVisitor@@UAE@XZ    10015f80 f i PatchMW2DownloadSV.obj
 0001:00014fa0       ?VisitExit@TiXmlVisitor@@UAE_NABVTiXmlDocument@@@Z 10015fa0 f i PatchMW2DownloadSV.obj
 0001:00014fa0       ?Visit@TiXmlVisitor@@UAE_NABVTiXmlText@@@Z 10015fa0 f i PatchMW2DownloadSV.obj
 0001:00014fa0       ?Visit@TiXmlVisitor@@UAE_NABVTiXmlDeclaration@@@Z 10015fa0 f i PatchMW2DownloadSV.obj
 0001:00014fa0       ?VisitExit@TiXmlVisitor@@UAE_NABVTiXmlElement@@@Z 10015fa0 f i PatchMW2DownloadSV.obj
 0001:00014fa0       ?Visit@TiXmlVisitor@@UAE_NABVTiXmlUnknown@@@Z 10015fa0 f i PatchMW2DownloadSV.obj
 0001:00014fa0       ?VisitEnter@TiXmlVisitor@@UAE_NABVTiXmlDocument@@@Z 10015fa0 f i PatchMW2DownloadSV.obj
 0001:00014fa0       ?Visit@TiXmlVisitor@@UAE_NABVTiXmlComment@@@Z 10015fa0 f i PatchMW2DownloadSV.obj
 0001:00014fb0       ?VisitEnter@TiXmlVisitor@@UAE_NABVTiXmlElement@@PBVTiXmlAttribute@@@Z 10015fb0 f i PatchMW2DownloadSV.obj
 0001:00014fc0       ??_ETiXmlVisitor@@UAEPAXI@Z 10015fc0 f i PatchMW2DownloadSV.obj
 0001:00014fc0       ??_GTiXmlVisitor@@UAEPAXI@Z 10015fc0 f i PatchMW2DownloadSV.obj
 0001:00014ff0       ?SetStreamPrinting@TiXmlPrinter@@QAEXXZ 10015ff0 f i PatchMW2DownloadSV.obj
 0001:00015020       ??4TiXmlString@@QAEAAV0@PBD@Z 10016020 f i PatchMW2DownloadSV.obj
 0001:00015050       ?CStr@TiXmlPrinter@@QAEPBDXZ 10016050 f i PatchMW2DownloadSV.obj
 0001:00015070       ?start@TiXmlString@@ABEPADXZ 10016070 f i PatchMW2DownloadSV.obj
 0001:00015070       ?c_str@TiXmlString@@QBEPBDXZ 10016070 f i PatchMW2DownloadSV.obj
 0001:00015090       ??_GTiXmlPrinter@@UAEPAXI@Z 10016090 f i PatchMW2DownloadSV.obj
 0001:00015090       ??_ETiXmlPrinter@@UAEPAXI@Z 10016090 f i PatchMW2DownloadSV.obj
 0001:000150c0       ??0TiXmlVisitor@@QAE@XZ    100160c0 f i PatchMW2DownloadSV.obj
 0001:000150e0       ??1TiXmlPrinter@@UAE@XZ    100160e0 f i PatchMW2DownloadSV.obj
 0001:00015150       ?TransformTexCoord@@YAXKPAM@Z 10016150 f   PatchMW2DumpModel.obj
 0001:00015200       ?DumpXModel_f@@YAXXZ       10016200 f   PatchMW2DumpModel.obj
 0001:00015850       ?PatchMW2_DumpModel@@YAXXZ 10016850 f   PatchMW2DumpModel.obj
 0001:00015870       ??Bs10e5@@QBEMXZ           10016870 f i PatchMW2DumpModel.obj
 0001:00015930       ?setBits@s10e5@@QAEXG@Z    10016930 f i PatchMW2DumpModel.obj
 0001:00015950       ?DvarSetVariantHookFunc@@YAHXZ 10016950 f   PatchMW2Dvars.obj
 0001:000159c0       ?DvarSetVariantHookStub@@YAXXZ 100169c0 f   PatchMW2Dvars.obj
 0001:000159f0       ?DvarSetVariantHook2Func@@YAHXZ 100169f0 f   PatchMW2Dvars.obj
 0001:00015a10       ?DvarSetVariantHook2Stub@@YAXXZ 10016a10 f   PatchMW2Dvars.obj
 0001:00015a30       ?ServerCommand_SetClientDvarHook@@YAXPAD0@Z 10016a30 f   PatchMW2Dvars.obj
 0001:00015a90       ?PatchMW2_Dvars@@YAXXZ     10016a90 f   PatchMW2Dvars.obj
 0001:00015ba0       ?AddEntryNameHookFunc@@YAXHPBD@Z 10016ba0 f   PatchMW2Experiments.obj
 0001:00015be0       ?DumpRawFiles@@YAXXZ       10016be0 f   PatchMW2Experiments.obj
 0001:00015db0       ?EndLoadingHookStub@@YAXXZ 10016db0 f   PatchMW2Experiments.obj
 0001:00015dc0       ?AddEntryNameHookStub@@YAXXZ 10016dc0 f   PatchMW2Experiments.obj
 0001:00015dd0       ?SL_ConvertToString@@YAPBDI@Z 10016dd0 f   PatchMW2Experiments.obj
 0001:00015df0       ?DumpNoteTrackEntry@@YAXPAU_iobuf@@HPAD1@Z 10016df0 f   PatchMW2Experiments.obj
 0001:00015ec0       ?DumpEntry@@YAXPAU_iobuf@@HPAD@Z 10016ec0 f   PatchMW2Experiments.obj
 0001:00016900       ?MapOffsetToPointer@@YAPADPADH@Z 10017900 f   PatchMW2Experiments.obj
 0001:000169b0       ?DumpWeaponFile@@YAXPAU_iobuf@@PAD@Z 100179b0 f   PatchMW2Experiments.obj
 0001:00016b30       ?DumpWeaponTypes@@YAXPAU_iobuf@@@Z 10017b30 f   PatchMW2Experiments.obj
 0001:00016c80       ?WeaponFileHookFunc@@YAPAXPBD@Z 10017c80 f   PatchMW2Experiments.obj
 0001:00016d80       ?WeaponFileHookStub@@YAXXZ 10017d80 f   PatchMW2Experiments.obj
 0001:00016d90       ?VehicleFileHookFunc@@YAPAXPBD@Z 10017d90 f   PatchMW2Experiments.obj
 0001:00016e80       ?ScriptOddLogHookFunc@@YAXHPAD@Z 10017e80 f   PatchMW2Experiments.obj
 0001:00016ea0       ?ScriptOddLogHookStub@@YAXXZ 10017ea0 f   PatchMW2Experiments.obj
 0001:00016eb0       ?ScriptOddLogHook2Func@@YAXPAD@Z 10017eb0 f   PatchMW2Experiments.obj
 0001:00016ed0       ?ScriptOddLogHook2Stub@@YAXXZ 10017ed0 f   PatchMW2Experiments.obj
 0001:00016ee0       ?PsClearHookStub@@YAXXZ    10017ee0 f   PatchMW2Experiments.obj
 0001:00016f00       ?ModelOverflowHookFunc@@YAXXZ 10017f00 f   PatchMW2Experiments.obj
 0001:00016f60       ?ModelOverflowHookStub@@YAXXZ 10017f60 f   PatchMW2Experiments.obj
 0001:00016f70       ?ForEachTechSet@@YAXPAXH@Z 10017f70 f   PatchMW2Experiments.obj
 0001:000170a0       ?MehFunc@@YAXXZ            100180a0 f   PatchMW2Experiments.obj
 0001:000172a0       ?SndAliasListFunc@@YAXXZ   100182a0 f   PatchMW2Experiments.obj
 0001:00017300       ?AssetRestrict_PreLoadFromExperimental@@YAXW4assetType_e@@PAXPBD@Z 10018300 f   PatchMW2Experiments.obj
 0001:00017650       ?InitializeImageLoad@@YAXXZ 10018650 f   PatchMW2Experiments.obj
 0001:00017660       ?WriteEndImageProfile@@YAXXZ 10018660 f   PatchMW2Experiments.obj
 0001:000176a0       ?CanWeLoadThisImage@@YA_NXZ 100186a0 f   PatchMW2Experiments.obj
 0001:00017760       ?Load_TextureHookStub@@YAXXZ 10018760 f   PatchMW2Experiments.obj
 0001:00017790       ?IsImageAllowedToLoad2@@YA_NPAUGfxImage@@@Z 10018790 f   PatchMW2Experiments.obj
 0001:000177c0       ?R_DelayLoadImageHookStub@@YAXXZ 100187c0 f   PatchMW2Experiments.obj
 0001:000177e0       ?EndLoadZoneHookFunc@@YAXXZ 100187e0 f   PatchMW2Experiments.obj
 0001:00017800       ?LoadDynEntityDefHookFunc@@YAXH@Z 10018800 f   PatchMW2Experiments.obj
 0001:00017830       ?LoadDynEntityDefHookStub@@YAXXZ 10018830 f   PatchMW2Experiments.obj
 0001:00017850       ?SL_FreeStringHookStub@@YAXXZ 10018850 f   PatchMW2Experiments.obj
 0001:000178a0       ?ViewportRectToD3DRect@@YAPAJPAJPAUIDirect3DDevice9@@@Z 100188a0 f   PatchMW2Experiments.obj
 0001:00017980       ?ClearViewportHook1Stub@@YAXXZ 10018980 f   PatchMW2Experiments.obj
 0001:000179a0       ?ClearViewportHook2Stub@@YAXXZ 100189a0 f   PatchMW2Experiments.obj
 0001:000179e0       ?CL_RenderSceneHookFunc@@YAXPAUrefdef_t@@@Z 100189e0 f   PatchMW2Experiments.obj
 0001:00017b20       ?LogPixelShader@@YAXXZ     10018b20 f   PatchMW2Experiments.obj
 0001:00017b40       ?LogPixelShaderHookStub@@YAXXZ 10018b40 f   PatchMW2Experiments.obj
 0001:00017b60       ?LogVertexShader@@YAXXZ    10018b60 f   PatchMW2Experiments.obj
 0001:00017b80       ?LogVertexShaderHookStub@@YAXXZ 10018b80 f   PatchMW2Experiments.obj
 0001:00017ba0       ?LoadGameFont@@YAPAUFont_s@@HPBD@Z 10018ba0 f   PatchMW2Experiments.obj
 0001:00017ce0       ?AddXModelSurfacesCameraFix@@YAXXZ 10018ce0 f   PatchMW2Experiments.obj
 0001:00017d00       ?PatchMW2_Experimental@@YAXXZ 10018d00 f   PatchMW2Experiments.obj
 0001:00017fc0       ??0?$unordered_map@V?$basic_string@DU?$char_traits@D@std@@V?$allocator@D@2@@std@@PAUVehicleDef@@V?$hash@V?$basic_string@DU?$char_traits@D@std@@V?$allocator@D@2@@std@@@2@U?$equal_to@V?$basic_string@DU?$char_traits@D@std@@V?$allocator@D@2@@std@@@2@V?$allocator@U?$pair@$$CBV?$basic_string@DU?$char_traits@D@std@@V?$allocator@D@2@@std@@PAUVehicleDef@@@std@@@2@@tr1@std@@QAE@XZ 10018fc0 f i PatchMW2LoadVehicleDef.obj
 0001:00017fc0       ??0?$unordered_map@V?$basic_string@DU?$char_traits@D@std@@V?$allocator@D@2@@std@@_NV?$hash@V?$basic_string@DU?$char_traits@D@std@@V?$allocator@D@2@@std@@@2@U?$equal_to@V?$basic_string@DU?$char_traits@D@std@@V?$allocator@D@2@@std@@@2@V?$allocator@U?$pair@$$CBV?$basic_string@DU?$char_traits@D@std@@V?$allocator@D@2@@std@@_N@std@@@2@@tr1@std@@QAE@XZ 10018fc0 f i PatchMW2Experiments.obj
 0001:00017ff0       ??0?$_Hash@V?$_Umap_traits@V?$basic_string@DU?$char_traits@D@std@@V?$allocator@D@2@@std@@_NV?$_Hash_compare@V?$basic_string@DU?$char_traits@D@std@@V?$allocator@D@2@@std@@V?$hash@V?$basic_string@DU?$char_traits@D@std@@V?$allocator@D@2@@std@@@2@U?$equal_to@V?$basic_string@DU?$char_traits@D@std@@V?$allocator@D@2@@std@@@2@@2@V?$allocator@U?$pair@$$CBV?$basic_string@DU?$char_traits@D@std@@V?$allocator@D@2@@std@@_N@std@@@2@$0A@@tr1@std@@@std@@QAE@ABV?$_Hash_compare@V?$basic_string@DU?$char_traits@D@std@@V?$allocator@D@2@@std@@V?$hash@V?$basic_string@DU?$char_traits@D@std@@V?$allocator@D@2@@std@@@2@U?$equal_to@V?$basic_string@DU?$char_traits@D@std@@V?$allocator@D@2@@std@@@2@@1@ABV?$allocator@U?$pair@$$CBV?$basic_string@DU?$char_traits@D@std@@V?$allocator@D@2@@std@@_N@std@@@1@@Z 10018ff0 f i PatchMW2Experiments.obj
 0001:00017ff0       ??0?$_Hash@V?$_Umap_traits@V?$basic_string@DU?$char_traits@D@std@@V?$allocator@D@2@@std@@PAUVehicleDef@@V?$_Hash_compare@V?$basic_string@DU?$char_traits@D@std@@V?$allocator@D@2@@std@@V?$hash@V?$basic_string@DU?$char_traits@D@std@@V?$allocator@D@2@@std@@@2@U?$equal_to@V?$basic_string@DU?$char_traits@D@std@@V?$allocator@D@2@@std@@@2@@2@V?$allocator@U?$pair@$$CBV?$basic_string@DU?$char_traits@D@std@@V?$allocator@D@2@@std@@PAUVehicleDef@@@std@@@2@$0A@@tr1@std@@@std@@QAE@ABV?$_Hash_compare@V?$basic_string@DU?$char_traits@D@std@@V?$allocator@D@2@@std@@V?$hash@V?$basic_string@DU?$char_traits@D@std@@V?$allocator@D@2@@std@@@2@U?$equal_to@V?$basic_string@DU?$char_traits@D@std@@V?$allocator@D@2@@std@@@2@@1@ABV?$allocator@U?$pair@$$CBV?$basic_string@DU?$char_traits@D@std@@V?$allocator@D@2@@std@@PAUVehicleDef@@@std@@@1@@Z 10018ff0 f i PatchMW2LoadVehicleDef.obj
 0001:00018080       ?_Init@?$_Hash@V?$_Umap_traits@_K_NV?$_Hash_compare@_KV?$hash@_K@std@@U?$equal_to@_K@2@@std@@V?$allocator@U?$pair@$$CB_K_N@std@@@2@$0A@@tr1@std@@@std@@IAEXI@Z 10019080 f i SteamBase.obj
 0001:00018080       ?_Init@?$_Hash@V?$_Umap_traits@_KPAVCCallbackBase@@V?$_Hash_compare@_KV?$hash@_K@std@@U?$equal_to@_K@2@@std@@V?$allocator@U?$pair@$$CB_KPAVCCallbackBase@@@std@@@3@$0A@@tr1@std@@@std@@IAEXI@Z 10019080 f i SteamBase.obj
 0001:00018080       ?_Init@?$_Hash@V?$_Umap_traits@V?$basic_string@DU?$char_traits@D@std@@V?$allocator@D@2@@std@@_NV?$_Hash_compare@V?$basic_string@DU?$char_traits@D@std@@V?$allocator@D@2@@std@@V?$hash@V?$basic_string@DU?$char_traits@D@std@@V?$allocator@D@2@@std@@@2@U?$equal_to@V?$basic_string@DU?$char_traits@D@std@@V?$allocator@D@2@@std@@@2@@2@V?$allocator@U?$pair@$$CBV?$basic_string@DU?$char_traits@D@std@@V?$allocator@D@2@@std@@_N@std@@@2@$0A@@tr1@std@@@std@@IAEXI@Z 10019080 f i PatchMW2Experiments.obj
 0001:00018080       ?_Init@?$_Hash@V?$_Umap_traits@V?$basic_string@DU?$char_traits@D@std@@V?$allocator@D@2@@std@@PAUVehicleDef@@V?$_Hash_compare@V?$basic_string@DU?$char_traits@D@std@@V?$allocator@D@2@@std@@V?$hash@V?$basic_string@DU?$char_traits@D@std@@V?$allocator@D@2@@std@@@2@U?$equal_to@V?$basic_string@DU?$char_traits@D@std@@V?$allocator@D@2@@std@@@2@@2@V?$allocator@U?$pair@$$CBV?$basic_string@DU?$char_traits@D@std@@V?$allocator@D@2@@std@@PAUVehicleDef@@@std@@@2@$0A@@tr1@std@@@std@@IAEXI@Z 10019080 f i PatchMW2LoadVehicleDef.obj
 0001:00018080       ?_Init@?$_Hash@V?$_Umap_traits@K_NV?$_Hash_compare@KV?$hash@K@std@@U?$equal_to@K@2@@std@@V?$allocator@U?$pair@$$CBK_N@std@@@2@$0A@@tr1@std@@@std@@IAEXI@Z 10019080 f i PatchMW2AssetRestrict.obj
 0001:000180d0       ??0?$list@U?$pair@$$CBV?$basic_string@DU?$char_traits@D@std@@V?$allocator@D@2@@std@@P6AXH@Z@std@@V?$allocator@U?$pair@$$CBV?$basic_string@DU?$char_traits@D@std@@V?$allocator@D@2@@std@@P6AXH@Z@std@@@2@@std@@QAE@ABV?$allocator@U?$pair@$$CBV?$basic_string@DU?$char_traits@D@std@@V?$allocator@D@2@@std@@P6AXH@Z@std@@@1@@Z 100190d0 f i GameInterface.obj
 0001:000180d0       ??0?$list@U?$pair@$$CBV?$basic_string@DU?$char_traits@D@std@@V?$allocator@D@2@@std@@_N@std@@V?$allocator@U?$pair@$$CBV?$basic_string@DU?$char_traits@D@std@@V?$allocator@D@2@@std@@_N@std@@@2@@std@@QAE@ABV?$allocator@U?$pair@$$CBV?$basic_string@DU?$char_traits@D@std@@V?$allocator@D@2@@std@@_N@std@@@1@@Z 100190d0 f i PatchMW2Experiments.obj
 0001:000180d0       ??0?$list@U?$pair@$$CBV?$basic_string@DU?$char_traits@D@std@@V?$allocator@D@2@@std@@PAUVehicleDef@@@std@@V?$allocator@U?$pair@$$CBV?$basic_string@DU?$char_traits@D@std@@V?$allocator@D@2@@std@@PAUVehicleDef@@@std@@@2@@std@@QAE@ABV?$allocator@U?$pair@$$CBV?$basic_string@DU?$char_traits@D@std@@V?$allocator@D@2@@std@@PAUVehicleDef@@@std@@@1@@Z 100190d0 f i PatchMW2LoadVehicleDef.obj
 0001:00018100       ??0?$_List_val@U?$pair@$$CBV?$basic_string@DU?$char_traits@D@std@@V?$allocator@D@2@@std@@PAUVehicleDef@@@std@@V?$allocator@U?$pair@$$CBV?$basic_string@DU?$char_traits@D@std@@V?$allocator@D@2@@std@@PAUVehicleDef@@@std@@@2@@std@@QAE@V?$allocator@U?$pair@$$CBV?$basic_string@DU?$char_traits@D@std@@V?$allocator@D@2@@std@@PAUVehicleDef@@@std@@@1@@Z 10019100 f i PatchMW2LoadVehicleDef.obj
 0001:00018100       ??0?$_List_val@U?$pair@$$CBV?$basic_string@DU?$char_traits@D@std@@V?$allocator@D@2@@std@@_N@std@@V?$allocator@U?$pair@$$CBV?$basic_string@DU?$char_traits@D@std@@V?$allocator@D@2@@std@@_N@std@@@2@@std@@QAE@V?$allocator@U?$pair@$$CBV?$basic_string@DU?$char_traits@D@std@@V?$allocator@D@2@@std@@_N@std@@@1@@Z 10019100 f i PatchMW2Experiments.obj
 0001:00018100       ??0?$_List_val@U?$pair@$$CBV?$basic_string@DU?$char_traits@D@std@@V?$allocator@D@2@@std@@P6AXH@Z@std@@V?$allocator@U?$pair@$$CBV?$basic_string@DU?$char_traits@D@std@@V?$allocator@D@2@@std@@P6AXH@Z@std@@@2@@std@@QAE@V?$allocator@U?$pair@$$CBV?$basic_string@DU?$char_traits@D@std@@V?$allocator@D@2@@std@@P6AXH@Z@std@@@1@@Z 10019100 f i GameInterface.obj
 0001:00018170       ?erase@?$vector@V?$_List_iterator@V?$_List_val@U?$pair@$$CBK_N@std@@V?$allocator@U?$pair@$$CBK_N@std@@@2@@std@@@std@@V?$allocator@V?$_List_iterator@V?$_List_val@U?$pair@$$CBK_N@std@@V?$allocator@U?$pair@$$CBK_N@std@@@2@@std@@@std@@@2@@std@@QAE?AV?$_Vector_iterator@V?$_Vector_val@V?$_List_iterator@V?$_List_val@U?$pair@$$CBK_N@std@@V?$allocator@U?$pair@$$CBK_N@std@@@2@@std@@@std@@V?$allocator@V?$_List_iterator@V?$_List_val@U?$pair@$$CBK_N@std@@V?$allocator@U?$pair@$$CBK_N@std@@@2@@std@@@std@@@2@@std@@@2@V?$_Vector_const_iterator@V?$_Vector_val@V?$_List_iterator@V?$_List_val@U?$pair@$$CBK_N@std@@V?$allocator@U?$pair@$$CBK_N@std@@@2@@std@@@std@@V?$allocator@V?$_List_iterator@V?$_List_val@U?$pair@$$CBK_N@std@@V?$allocator@U?$pair@$$CBK_N@std@@@2@@std@@@std@@@2@@std@@@2@0@Z 10019170 f i PatchMW2AssetRestrict.obj
 0001:00018170       ?erase@?$vector@V?$_List_iterator@V?$_List_val@U?$pair@$$CB_KPAVCCallbackBase@@@std@@V?$allocator@U?$pair@$$CB_KPAVCCallbackBase@@@std@@@2@@std@@@std@@V?$allocator@V?$_List_iterator@V?$_List_val@U?$pair@$$CB_KPAVCCallbackBase@@@std@@V?$allocator@U?$pair@$$CB_KPAVCCallbackBase@@@std@@@2@@std@@@std@@@2@@std@@QAE?AV?$_Vector_iterator@V?$_Vector_val@V?$_List_iterator@V?$_List_val@U?$pair@$$CB_KPAVCCallbackBase@@@std@@V?$allocator@U?$pair@$$CB_KPAVCCallbackBase@@@std@@@2@@std@@@std@@V?$allocator@V?$_List_iterator@V?$_List_val@U?$pair@$$CB_KPAVCCallbackBase@@@std@@V?$allocator@U?$pair@$$CB_KPAVCCallbackBase@@@std@@@2@@std@@@std@@@2@@std@@@2@V?$_Vector_const_iterator@V?$_Vector_val@V?$_List_iterator@V?$_List_val@U?$pair@$$CB_KPAVCCallbackBase@@@std@@V?$allocator@U?$pair@$$CB_KPAVCCallbackBase@@@std@@@2@@std@@@std@@V?$allocator@V?$_List_iterator@V?$_List_val@U?$pair@$$CB_KPAVCCallbackBase@@@std@@V?$allocator@U?$pair@$$CB_KPAVCCallbackBase@@@std@@@2@@std@@@std@@@2@@std@@@2@0@Z 10019170 f i SteamBase.obj
 0001:00018170       ?erase@?$vector@V?$_List_iterator@V?$_List_val@U?$pair@$$CBV?$basic_string@DU?$char_traits@D@std@@V?$allocator@D@2@@std@@_N@std@@V?$allocator@U?$pair@$$CBV?$basic_string@DU?$char_traits@D@std@@V?$allocator@D@2@@std@@_N@std@@@2@@std@@@std@@V?$allocator@V?$_List_iterator@V?$_List_val@U?$pair@$$CBV?$basic_string@DU?$char_traits@D@std@@V?$allocator@D@2@@std@@_N@std@@V?$allocator@U?$pair@$$CBV?$basic_string@DU?$char_traits@D@std@@V?$allocator@D@2@@std@@_N@std@@@2@@std@@@std@@@2@@std@@QAE?AV?$_Vector_iterator@V?$_Vector_val@V?$_List_iterator@V?$_List_val@U?$pair@$$CBV?$basic_string@DU?$char_traits@D@std@@V?$allocator@D@2@@std@@_N@std@@V?$allocator@U?$pair@$$CBV?$basic_string@DU?$char_traits@D@std@@V?$allocator@D@2@@std@@_N@std@@@2@@std@@@std@@V?$allocator@V?$_List_iterator@V?$_List_val@U?$pair@$$CBV?$basic_string@DU?$char_traits@D@std@@V?$allocator@D@2@@std@@_N@std@@V?$allocator@U?$pair@$$CBV?$basic_string@DU?$char_traits@D@std@@V?$allocator@D@2@@std@@_N@std@@@2@@std@@@std@@@2@@std@@@2@V?$_Vector_const_iterator@V?$_Vector_val@V?$_List_iterator@V?$_List_val@U?$pair@$$CBV?$basic_string@DU?$char_traits@D@std@@V?$allocator@D@2@@std@@_N@std@@V?$allocator@U?$pair@$$CBV?$basic_string@DU?$char_traits@D@std@@V?$allocator@D@2@@std@@_N@std@@@2@@std@@@std@@V?$allocator@V?$_List_iterator@V?$_List_val@U?$pair@$$CBV?$basic_string@DU?$char_traits@D@std@@V?$allocator@D@2@@std@@_N@std@@V?$allocator@U?$pair@$$CBV?$basic_string@DU?$char_traits@D@std@@V?$allocator@D@2@@std@@_N@std@@@2@@std@@@std@@@2@@std@@@2@0@Z 10019170 f i PatchMW2Experiments.obj
 0001:00018170       ?erase@?$vector@V?$_List_iterator@V?$_List_val@U?$pair@$$CBV?$basic_string@DU?$char_traits@D@std@@V?$allocator@D@2@@std@@PAUVehicleDef@@@std@@V?$allocator@U?$pair@$$CBV?$basic_string@DU?$char_traits@D@std@@V?$allocator@D@2@@std@@PAUVehicleDef@@@std@@@2@@std@@@std@@V?$allocator@V?$_List_iterator@V?$_List_val@U?$pair@$$CBV?$basic_string@DU?$char_traits@D@std@@V?$allocator@D@2@@std@@PAUVehicleDef@@@std@@V?$allocator@U?$pair@$$CBV?$basic_string@DU?$char_traits@D@std@@V?$allocator@D@2@@std@@PAUVehicleDef@@@std@@@2@@std@@@std@@@2@@std@@QAE?AV?$_Vector_iterator@V?$_Vector_val@V?$_List_iterator@V?$_List_val@U?$pair@$$CBV?$basic_string@DU?$char_traits@D@std@@V?$allocator@D@2@@std@@PAUVehicleDef@@@std@@V?$allocator@U?$pair@$$CBV?$basic_string@DU?$char_traits@D@std@@V?$allocator@D@2@@std@@PAUVehicleDef@@@std@@@2@@std@@@std@@V?$allocator@V?$_List_iterator@V?$_List_val@U?$pair@$$CBV?$basic_string@DU?$char_traits@D@std@@V?$allocator@D@2@@std@@PAUVehicleDef@@@std@@V?$allocator@U?$pair@$$CBV?$basic_string@DU?$char_traits@D@std@@V?$allocator@D@2@@std@@PAUVehicleDef@@@std@@@2@@std@@@std@@@2@@std@@@2@V?$_Vector_const_iterator@V?$_Vector_val@V?$_List_iterator@V?$_List_val@U?$pair@$$CBV?$basic_string@DU?$char_traits@D@std@@V?$allocator@D@2@@std@@PAUVehicleDef@@@std@@V?$allocator@U?$pair@$$CBV?$basic_string@DU?$char_traits@D@std@@V?$allocator@D@2@@std@@PAUVehicleDef@@@std@@@2@@std@@@std@@V?$allocator@V?$_List_iterator@V?$_List_val@U?$pair@$$CBV?$basic_string@DU?$char_traits@D@std@@V?$allocator@D@2@@std@@PAUVehicleDef@@@std@@V?$allocator@U?$pair@$$CBV?$basic_string@DU?$char_traits@D@std@@V?$allocator@D@2@@std@@PAUVehicleDef@@@std@@@2@@std@@@std@@@2@@std@@@2@0@Z 10019170 f i PatchMW2LoadVehicleDef.obj
 0001:00018170       ?erase@?$vector@V?$_List_iterator@V?$_List_val@U?$pair@$$CB_K_N@std@@V?$allocator@U?$pair@$$CB_K_N@std@@@2@@std@@@std@@V?$allocator@V?$_List_iterator@V?$_List_val@U?$pair@$$CB_K_N@std@@V?$allocator@U?$pair@$$CB_K_N@std@@@2@@std@@@std@@@2@@std@@QAE?AV?$_Vector_iterator@V?$_Vector_val@V?$_List_iterator@V?$_List_val@U?$pair@$$CB_K_N@std@@V?$allocator@U?$pair@$$CB_K_N@std@@@2@@std@@@std@@V?$allocator@V?$_List_iterator@V?$_List_val@U?$pair@$$CB_K_N@std@@V?$allocator@U?$pair@$$CB_K_N@std@@@2@@std@@@std@@@2@@std@@@2@V?$_Vector_const_iterator@V?$_Vector_val@V?$_List_iterator@V?$_List_val@U?$pair@$$CB_K_N@std@@V?$allocator@U?$pair@$$CB_K_N@std@@@2@@std@@@std@@V?$allocator@V?$_List_iterator@V?$_List_val@U?$pair@$$CB_K_N@std@@V?$allocator@U?$pair@$$CB_K_N@std@@@2@@std@@@std@@@2@@std@@@2@0@Z 10019170 f i SteamBase.obj
 0001:00018170       ?erase@?$vector@V?$_List_iterator@V?$_List_val@U?$pair@$$CBV?$basic_string@DU?$char_traits@D@std@@V?$allocator@D@2@@std@@P6AXH@Z@std@@V?$allocator@U?$pair@$$CBV?$basic_string@DU?$char_traits@D@std@@V?$allocator@D@2@@std@@P6AXH@Z@std@@@2@@std@@@std@@V?$allocator@V?$_List_iterator@V?$_List_val@U?$pair@$$CBV?$basic_string@DU?$char_traits@D@std@@V?$allocator@D@2@@std@@P6AXH@Z@std@@V?$allocator@U?$pair@$$CBV?$basic_string@DU?$char_traits@D@std@@V?$allocator@D@2@@std@@P6AXH@Z@std@@@2@@std@@@std@@@2@@std@@QAE?AV?$_Vector_iterator@V?$_Vector_val@V?$_List_iterator@V?$_List_val@U?$pair@$$CBV?$basic_string@DU?$char_traits@D@std@@V?$allocator@D@2@@std@@P6AXH@Z@std@@V?$allocator@U?$pair@$$CBV?$basic_string@DU?$char_traits@D@std@@V?$allocator@D@2@@std@@P6AXH@Z@std@@@2@@std@@@std@@V?$allocator@V?$_List_iterator@V?$_List_val@U?$pair@$$CBV?$basic_string@DU?$char_traits@D@std@@V?$allocator@D@2@@std@@P6AXH@Z@std@@V?$allocator@U?$pair@$$CBV?$basic_string@DU?$char_traits@D@std@@V?$allocator@D@2@@std@@P6AXH@Z@std@@@2@@std@@@std@@@2@@std@@@2@V?$_Vector_const_iterator@V?$_Vector_val@V?$_List_iterator@V?$_List_val@U?$pair@$$CBV?$basic_string@DU?$char_traits@D@std@@V?$allocator@D@2@@std@@P6AXH@Z@std@@V?$allocator@U?$pair@$$CBV?$basic_string@DU?$char_traits@D@std@@V?$allocator@D@2@@std@@P6AXH@Z@std@@@2@@std@@@std@@V?$allocator@V?$_List_iterator@V?$_List_val@U?$pair@$$CBV?$basic_string@DU?$char_traits@D@std@@V?$allocator@D@2@@std@@P6AXH@Z@std@@V?$allocator@U?$pair@$$CBV?$basic_string@DU?$char_traits@D@std@@V?$allocator@D@2@@std@@P6AXH@Z@std@@@2@@std@@@std@@@2@@std@@@2@0@Z 10019170 f i GameInterface.obj
 0001:00018200       ??$_Cons_val@V?$allocator@V?$_List_iterator@V?$_List_val@U?$pair@$$CBK_N@std@@V?$allocator@U?$pair@$$CBK_N@std@@@2@@std@@@std@@@std@@V?$_List_iterator@V?$_List_val@U?$pair@$$CBK_N@std@@V?$allocator@U?$pair@$$CBK_N@std@@@2@@std@@@2@ABV32@@std@@YAXAAV?$allocator@V?$_List_iterator@V?$_List_val@U?$pair@$$CBK_N@std@@V?$allocator@U?$pair@$$CBK_N@std@@@2@@std@@@std@@@0@PAV?$_List_iterator@V?$_List_val@U?$pair@$$CBK_N@std@@V?$allocator@U?$pair@$$CBK_N@std@@@2@@std@@@0@ABV20@@Z 10019200 f i PatchMW2AssetRestrict.obj
 0001:00018200       ??$_Cons_val@V?$allocator@V?$_List_iterator@V?$_List_val@U?$pair@$$CB_KPAVCCallbackBase@@@std@@V?$allocator@U?$pair@$$CB_KPAVCCallbackBase@@@std@@@2@@std@@@std@@@std@@V?$_List_iterator@V?$_List_val@U?$pair@$$CB_KPAVCCallbackBase@@@std@@V?$allocator@U?$pair@$$CB_KPAVCCallbackBase@@@std@@@2@@std@@@2@ABV32@@std@@YAXAAV?$allocator@V?$_List_iterator@V?$_List_val@U?$pair@$$CB_KPAVCCallbackBase@@@std@@V?$allocator@U?$pair@$$CB_KPAVCCallbackBase@@@std@@@2@@std@@@std@@@0@PAV?$_List_iterator@V?$_List_val@U?$pair@$$CB_KPAVCCallbackBase@@@std@@V?$allocator@U?$pair@$$CB_KPAVCCallbackBase@@@std@@@2@@std@@@0@ABV20@@Z 10019200 f i SteamBase.obj
 0001:00018200       ??$_Cons_val@V?$allocator@V?$_List_iterator@V?$_List_val@U?$pair@$$CBV?$basic_string@DU?$char_traits@D@std@@V?$allocator@D@2@@std@@PAUVehicleDef@@@std@@V?$allocator@U?$pair@$$CBV?$basic_string@DU?$char_traits@D@std@@V?$allocator@D@2@@std@@PAUVehicleDef@@@std@@@2@@std@@@std@@@std@@V?$_List_iterator@V?$_List_val@U?$pair@$$CBV?$basic_string@DU?$char_traits@D@std@@V?$allocator@D@2@@std@@PAUVehicleDef@@@std@@V?$allocator@U?$pair@$$CBV?$basic_string@DU?$char_traits@D@std@@V?$allocator@D@2@@std@@PAUVehicleDef@@@std@@@2@@std@@@2@ABV32@@std@@YAXAAV?$allocator@V?$_List_iterator@V?$_List_val@U?$pair@$$CBV?$basic_string@DU?$char_traits@D@std@@V?$allocator@D@2@@std@@PAUVehicleDef@@@std@@V?$allocator@U?$pair@$$CBV?$basic_string@DU?$char_traits@D@std@@V?$allocator@D@2@@std@@PAUVehicleDef@@@std@@@2@@std@@@std@@@0@PAV?$_List_iterator@V?$_List_val@U?$pair@$$CBV?$basic_string@DU?$char_traits@D@std@@V?$allocator@D@2@@std@@PAUVehicleDef@@@std@@V?$allocator@U?$pair@$$CBV?$basic_string@DU?$char_traits@D@std@@V?$allocator@D@2@@std@@PAUVehicleDef@@@std@@@2@@std@@@0@ABV20@@Z 10019200 f i PatchMW2LoadVehicleDef.obj
 0001:00018200       ??$_Cons_val@V?$allocator@V?$_List_iterator@V?$_List_val@U?$pair@$$CBV?$basic_string@DU?$char_traits@D@std@@V?$allocator@D@2@@std@@_N@std@@V?$allocator@U?$pair@$$CBV?$basic_string@DU?$char_traits@D@std@@V?$allocator@D@2@@std@@_N@std@@@2@@std@@@std@@@std@@V?$_List_iterator@V?$_List_val@U?$pair@$$CBV?$basic_string@DU?$char_traits@D@std@@V?$allocator@D@2@@std@@_N@std@@V?$allocator@U?$pair@$$CBV?$basic_string@DU?$char_traits@D@std@@V?$allocator@D@2@@std@@_N@std@@@2@@std@@@2@ABV32@@std@@YAXAAV?$allocator@V?$_List_iterator@V?$_List_val@U?$pair@$$CBV?$basic_string@DU?$char_traits@D@std@@V?$allocator@D@2@@std@@_N@std@@V?$allocator@U?$pair@$$CBV?$basic_string@DU?$char_traits@D@std@@V?$allocator@D@2@@std@@_N@std@@@2@@std@@@std@@@0@PAV?$_List_iterator@V?$_List_val@U?$pair@$$CBV?$basic_string@DU?$char_traits@D@std@@V?$allocator@D@2@@std@@_N@std@@V?$allocator@U?$pair@$$CBV?$basic_string@DU?$char_traits@D@std@@V?$allocator@D@2@@std@@_N@std@@@2@@std@@@0@ABV20@@Z 10019200 f i PatchMW2Experiments.obj
 0001:00018200       ??$_Cons_val@V?$allocator@V?$_List_iterator@V?$_List_val@U?$pair@$$CB_K_N@std@@V?$allocator@U?$pair@$$CB_K_N@std@@@2@@std@@@std@@@std@@V?$_List_iterator@V?$_List_val@U?$pair@$$CB_K_N@std@@V?$allocator@U?$pair@$$CB_K_N@std@@@2@@std@@@2@ABV32@@std@@YAXAAV?$allocator@V?$_List_iterator@V?$_List_val@U?$pair@$$CB_K_N@std@@V?$allocator@U?$pair@$$CB_K_N@std@@@2@@std@@@std@@@0@PAV?$_List_iterator@V?$_List_val@U?$pair@$$CB_K_N@std@@V?$allocator@U?$pair@$$CB_K_N@std@@@2@@std@@@0@ABV20@@Z 10019200 f i SteamBase.obj
 0001:00018220       ?construct@?$allocator@V?$_List_iterator@V?$_List_val@U?$pair@$$CB_KPAVCCallbackBase@@@std@@V?$allocator@U?$pair@$$CB_KPAVCCallbackBase@@@std@@@2@@std@@@std@@@std@@QAEXPAV?$_List_iterator@V?$_List_val@U?$pair@$$CB_KPAVCCallbackBase@@@std@@V?$allocator@U?$pair@$$CB_KPAVCCallbackBase@@@std@@@2@@std@@@2@ABV32@@Z 10019220 f i SteamBase.obj
 0001:00018220       ?construct@?$allocator@V?$_List_iterator@V?$_List_val@U?$pair@$$CBV?$basic_string@DU?$char_traits@D@std@@V?$allocator@D@2@@std@@PAUVehicleDef@@@std@@V?$allocator@U?$pair@$$CBV?$basic_string@DU?$char_traits@D@std@@V?$allocator@D@2@@std@@PAUVehicleDef@@@std@@@2@@std@@@std@@@std@@QAEXPAV?$_List_iterator@V?$_List_val@U?$pair@$$CBV?$basic_string@DU?$char_traits@D@std@@V?$allocator@D@2@@std@@PAUVehicleDef@@@std@@V?$allocator@U?$pair@$$CBV?$basic_string@DU?$char_traits@D@std@@V?$allocator@D@2@@std@@PAUVehicleDef@@@std@@@2@@std@@@2@ABV32@@Z 10019220 f i PatchMW2LoadVehicleDef.obj
 0001:00018220       ?construct@?$allocator@V?$_List_iterator@V?$_List_val@U?$pair@$$CB_K_N@std@@V?$allocator@U?$pair@$$CB_K_N@std@@@2@@std@@@std@@@std@@QAEXPAV?$_List_iterator@V?$_List_val@U?$pair@$$CB_K_N@std@@V?$allocator@U?$pair@$$CB_K_N@std@@@2@@std@@@2@ABV32@@Z 10019220 f i SteamBase.obj
 0001:00018220       ?construct@?$allocator@V?$_List_iterator@V?$_List_val@U?$pair@$$CBV?$basic_string@DU?$char_traits@D@std@@V?$allocator@D@2@@std@@_N@std@@V?$allocator@U?$pair@$$CBV?$basic_string@DU?$char_traits@D@std@@V?$allocator@D@2@@std@@_N@std@@@2@@std@@@std@@@std@@QAEXPAV?$_List_iterator@V?$_List_val@U?$pair@$$CBV?$basic_string@DU?$char_traits@D@std@@V?$allocator@D@2@@std@@_N@std@@V?$allocator@U?$pair@$$CBV?$basic_string@DU?$char_traits@D@std@@V?$allocator@D@2@@std@@_N@std@@@2@@std@@@2@ABV32@@Z 10019220 f i PatchMW2Experiments.obj
 0001:00018220       ?construct@?$allocator@V?$_List_iterator@V?$_List_val@U?$pair@$$CBK_N@std@@V?$allocator@U?$pair@$$CBK_N@std@@@2@@std@@@std@@@std@@QAEXPAV?$_List_iterator@V?$_List_val@U?$pair@$$CBK_N@std@@V?$allocator@U?$pair@$$CBK_N@std@@@2@@std@@@2@ABV32@@Z 10019220 f i PatchMW2AssetRestrict.obj
 0001:00018240       ??$_Construct@V?$_List_iterator@V?$_List_val@U?$pair@$$CB_KPAVCCallbackBase@@@std@@V?$allocator@U?$pair@$$CB_KPAVCCallbackBase@@@std@@@2@@std@@@std@@ABV12@@std@@YAXPAV?$_List_iterator@V?$_List_val@U?$pair@$$CB_KPAVCCallbackBase@@@std@@V?$allocator@U?$pair@$$CB_KPAVCCallbackBase@@@std@@@2@@std@@@0@ABV10@@Z 10019240 f i SteamBase.obj
 0001:00018240       ??$_Construct@V?$_List_iterator@V?$_List_val@U?$pair@$$CBK_N@std@@V?$allocator@U?$pair@$$CBK_N@std@@@2@@std@@@std@@ABV12@@std@@YAXPAV?$_List_iterator@V?$_List_val@U?$pair@$$CBK_N@std@@V?$allocator@U?$pair@$$CBK_N@std@@@2@@std@@@0@ABV10@@Z 10019240 f i PatchMW2AssetRestrict.obj
 0001:00018240       ??$_Construct@V?$_List_iterator@V?$_List_val@U?$pair@$$CBV?$basic_string@DU?$char_traits@D@std@@V?$allocator@D@2@@std@@_N@std@@V?$allocator@U?$pair@$$CBV?$basic_string@DU?$char_traits@D@std@@V?$allocator@D@2@@std@@_N@std@@@2@@std@@@std@@ABV12@@std@@YAXPAV?$_List_iterator@V?$_List_val@U?$pair@$$CBV?$basic_string@DU?$char_traits@D@std@@V?$allocator@D@2@@std@@_N@std@@V?$allocator@U?$pair@$$CBV?$basic_string@DU?$char_traits@D@std@@V?$allocator@D@2@@std@@_N@std@@@2@@std@@@0@ABV10@@Z 10019240 f i PatchMW2Experiments.obj
 0001:00018240       ??$_Construct@V?$_List_iterator@V?$_List_val@U?$pair@$$CBV?$basic_string@DU?$char_traits@D@std@@V?$allocator@D@2@@std@@PAUVehicleDef@@@std@@V?$allocator@U?$pair@$$CBV?$basic_string@DU?$char_traits@D@std@@V?$allocator@D@2@@std@@PAUVehicleDef@@@std@@@2@@std@@@std@@ABV12@@std@@YAXPAV?$_List_iterator@V?$_List_val@U?$pair@$$CBV?$basic_string@DU?$char_traits@D@std@@V?$allocator@D@2@@std@@PAUVehicleDef@@@std@@V?$allocator@U?$pair@$$CBV?$basic_string@DU?$char_traits@D@std@@V?$allocator@D@2@@std@@PAUVehicleDef@@@std@@@2@@std@@@0@ABV10@@Z 10019240 f i PatchMW2LoadVehicleDef.obj
 0001:00018240       ??$_Construct@V?$_List_iterator@V?$_List_val@U?$pair@$$CB_K_N@std@@V?$allocator@U?$pair@$$CB_K_N@std@@@2@@std@@@std@@ABV12@@std@@YAXPAV?$_List_iterator@V?$_List_val@U?$pair@$$CB_K_N@std@@V?$allocator@U?$pair@$$CB_K_N@std@@@2@@std@@@0@ABV10@@Z 10019240 f i SteamBase.obj
 0001:000182c0       ?CustomDirect3DCreate9@@YGPAUIDirect3D9@@I@Z 100192c0 f   PatchMW2FXAA.obj
 0001:00018380       ?PatchMW2_FXAA@@YAXXZ      10019380 f   PatchMW2FXAA.obj
 0001:00018390       ?PostFX_Initialize@@YAXPAUIDirect3DDevice9@@PAU_D3DPRESENT_PARAMETERS_@@@Z 10019390 f   PatchMW2FXAA.obj
 0001:00018660       ?PostFX_Reset@@YAXXZ       10019660 f   PatchMW2FXAA.obj
 0001:000187a0       ?PostFX_PreBeginScene@@YAXXZ 100197a0 f   PatchMW2FXAA.obj
 0001:000187b0       ?PostFX_PostBeginScene@@YAXXZ 100197b0 f   PatchMW2FXAA.obj
 0001:000187c0       ?PostFX_SetRenderTarget@@YAXKPAUIDirect3DSurface9@@@Z 100197c0 f   PatchMW2FXAA.obj
 0001:000187d0       ?PostFX_Present@@YAXXZ     100197d0 f   PatchMW2FXAA.obj
 0001:000187e0       ?PostFX_DrawFrame@@YAXXZ   100197e0 f   PatchMW2FXAA.obj
 0001:00018870       ??0QVertex@@QAE@MMMMM@Z    10019870 f i PatchMW2FXAA.obj
 0001:000188b0       ?IngameMenuHookFunc@@YAXPAX0H@Z 100198b0 f   PatchMW2IGMenu.obj
 0001:00018900       ?IngameMenuHookStub@@YAXXZ 10019900 f   PatchMW2IGMenu.obj
 0001:00018910       ?PatchMW2_InGameMenu@@YAXXZ 10019910 f   PatchMW2IGMenu.obj
 0001:00018940       ?Legacy_IsClientLegacy@@YA_NH@Z 10019940 f   PatchMW2Legacy.obj
 0001:00018990       ?Legacy_IsLegacyMode@@YA_NXZ 10019990 f   PatchMW2Legacy.obj
 0001:000189c0       ?Legacy_GetProtocol@@YAHXZ 100199c0 f   PatchMW2Legacy.obj
 0001:000189e0       ?XStartPrivateMatch_f@@YAXXZ 100199e0 f   PatchMW2Legacy.obj
 0001:00018a00       ?SendScoreboardLineHookFunc@@YAXPADHPBDZZ 10019a00 f   PatchMW2Legacy.obj
 0001:00018a60       ?SendScoreboardLineHookStub@@YAXXZ 10019a60 f   PatchMW2Legacy.obj
 0001:00018a80       ?RemoveConfigStringCache@@YAXXZ 10019a80 f   PatchMW2Legacy.obj
 0001:00018aa0       ?LoadConfigStringHookStub@@YAXXZ 10019aa0 f   PatchMW2Legacy.obj
 0001:00018ab0       ?CG_ObituaryIconHookStub@@YAXXZ 10019ab0 f   PatchMW2Legacy.obj
 0001:00018ad0       ?CG_ItemWeaponHookStub@@YAXXZ 10019ad0 f   PatchMW2Legacy.obj
 0001:00018af0       ?PatchMW2_Legacy@@YAXXZ    10019af0 f   PatchMW2Legacy.obj
 0001:00018bd0       ?Legacy_ResetToNonLegacy@@YAXXZ 10019bd0 f   PatchMW2Legacy.obj
 0001:00018c20       ?Legacy_SetProtocol@@YAXH@Z 10019c20 f   PatchMW2Legacy.obj
 0001:00018c90       ?EntityWriteFields@@YAXPAHHPAUentityState_t@@1HHHH@Z 10019c90 f   PatchMW2Legacy.obj
 0001:00018ca0       ?EntityWriteFieldsHookFunc@@YAXPAHHPAUentityState_t@@1HHHH@Z 10019ca0 f   PatchMW2Legacy.obj
 0001:00018df0       ?EntityWriteFieldsHookStub@@YAXXZ 10019df0 f   PatchMW2Legacy.obj
 0001:00018e00       ?Legacy_Advertise@@YAXXZ   10019e00 f   PatchMW2Legacy.obj
 0001:00018ec0       ?UILoadHook1@@YAXPAUXZoneInfo@@HH@Z 10019ec0 f   PatchMW2Load.obj
 0001:00018f20       ?UILoadHook1Stub@@YAXXZ    10019f20 f   PatchMW2Load.obj
 0001:00018f30       ?FFLoadHook1@@YAXPAUXZoneInfo@@HH@Z 10019f30 f   PatchMW2Load.obj
 0001:00019100       ?FFLoadHook1Stub@@YAXXZ    1001a100 f   PatchMW2Load.obj
 0001:00019110       ?FFLoadHook2@@YAXPAUXZoneInfo@@HH@Z 1001a110 f   PatchMW2Load.obj
 0001:00019190       ?FFLoadHook2Stub@@YAXXZ    1001a190 f   PatchMW2Load.obj
 0001:000191a0       ?GetZoneLocation@@YAPADPBD@Z 1001a1a0 f   PatchMW2Load.obj
 0001:00019460       ?GetZonePath@@YAPADPBD@Z   1001a460 f   PatchMW2Load.obj
 0001:00019480       ?ZoneLoadHook1Stub@@YAXXZ  1001a480 f   PatchMW2Load.obj
 0001:000194a0       ?ZoneLoadHook2Stub@@YAXXZ  1001a4a0 f   PatchMW2Load.obj
 0001:000194c0       ?GetZoneRootHookFunc@@YAPBDPBD@Z 1001a4c0 f   PatchMW2Load.obj
 0001:00019530       ?LoadModdableRawfileFunc@@YAPAXPBDPAXH@Z 1001a530 f   PatchMW2Load.obj
 0001:00019550       ?LoadModdableRawfileStub@@YAXXZ 1001a550 f   PatchMW2Load.obj
 0001:00019560       ?LoadModdableRawfileFunc2@@YAPAXPBD@Z 1001a560 f   PatchMW2Load.obj
 0001:00019580       ?LoadModdableRawfileStub2@@YAXXZ 1001a580 f   PatchMW2Load.obj
 0001:00019590       ?ZoneTestHookFunc@@YAXPADHPBD111@Z 1001a590 f   PatchMW2Load.obj
 0001:000195c0       ?ZoneSprintfHookFunc@@YAXPADHPBD111@Z 1001a5c0 f   PatchMW2Load.obj
 0001:000195f0       ?ReallocateAssetPool@@YAPAXW4assetType_e@@I@Z 1001a5f0 f   PatchMW2Load.obj
 0001:00019640       ?PatchMW2_Load@@YAXXZ      1001a640 f   PatchMW2Load.obj
 0001:000198b0       ?IgnoreEntityHookFunc@@YA_NPBD@Z 1001a8b0 f   PatchMW2Load.obj
 0001:00019910       ?LoadScreens_MessWithConnectMenu@@YAPAUmenuDef_t@@PAU1@@Z 1001a910 f   PatchMW2Loadscreens.obj
 0001:000199e0       ?LoadScreens_Filename@@YAPBDXZ 1001a9e0 f   PatchMW2Loadscreens.obj
 0001:00019a00       ?LoadMapLoadscreenHookFunc@@YAXPAUXZoneInfo@@HH@Z 1001aa00 f   PatchMW2Loadscreens.obj
 0001:00019b10       ?GetConnectMenuHookFunc@@YAPAUmenuDef_t@@W4assetType_e@@PBD@Z 1001ab10 f   PatchMW2Loadscreens.obj
 0001:00019b30       ?PatchMW2_Loadscreens@@YAXXZ 1001ab30 f   PatchMW2Loadscreens.obj
 0001:00019c70       ?Com_LoadInfoString@@YAXPBD00PADI@Z 1001ac70 f   PatchMW2LoadVehicleDef.obj
 0001:00019da0       ?VEH_ParseSpecificField@@YA_NPADPBDH@Z 1001ada0 f   PatchMW2LoadVehicleDef.obj
 0001:00019f10       ?G_LoadVehicleDef@@YAPAXPBD@Z 1001af10 f   PatchMW2LoadVehicleDef.obj
 0001:0001a0f0       ??A?$unordered_map@V?$basic_string@DU?$char_traits@D@std@@V?$allocator@D@2@@std@@PAUVehicleDef@@V?$hash@V?$basic_string@DU?$char_traits@D@std@@V?$allocator@D@2@@std@@@2@U?$equal_to@V?$basic_string@DU?$char_traits@D@std@@V?$allocator@D@2@@std@@@2@V?$allocator@U?$pair@$$CBV?$basic_string@DU?$char_traits@D@std@@V?$allocator@D@2@@std@@PAUVehicleDef@@@std@@@2@@tr1@std@@QAEAAPAUVehicleDef@@ABV?$basic_string@DU?$char_traits@D@std@@V?$allocator@D@2@@2@@Z 1001b0f0 f i PatchMW2LoadVehicleDef.obj
 0001:0001a1a0       ?find@?$_Hash@V?$_Umap_traits@V?$basic_string@DU?$char_traits@D@std@@V?$allocator@D@2@@std@@P6AXH@ZV?$_Hash_compare@V?$basic_string@DU?$char_traits@D@std@@V?$allocator@D@2@@std@@V?$hash@V?$basic_string@DU?$char_traits@D@std@@V?$allocator@D@2@@std@@@2@U?$equal_to@V?$basic_string@DU?$char_traits@D@std@@V?$allocator@D@2@@std@@@2@@2@V?$allocator@U?$pair@$$CBV?$basic_string@DU?$char_traits@D@std@@V?$allocator@D@2@@std@@P6AXH@Z@std@@@2@$0A@@tr1@std@@@std@@QAE?AV?$_List_iterator@V?$_List_val@U?$pair@$$CBV?$basic_string@DU?$char_traits@D@std@@V?$allocator@D@2@@std@@P6AXH@Z@std@@V?$allocator@U?$pair@$$CBV?$basic_string@DU?$char_traits@D@std@@V?$allocator@D@2@@std@@P6AXH@Z@std@@@2@@std@@@2@ABV?$basic_string@DU?$char_traits@D@std@@V?$allocator@D@2@@2@@Z 1001b1a0 f i GameInterface.obj
 0001:0001a1a0       ?find@?$_Hash@V?$_Umap_traits@V?$basic_string@DU?$char_traits@D@std@@V?$allocator@D@2@@std@@_NV?$_Hash_compare@V?$basic_string@DU?$char_traits@D@std@@V?$allocator@D@2@@std@@V?$hash@V?$basic_string@DU?$char_traits@D@std@@V?$allocator@D@2@@std@@@2@U?$equal_to@V?$basic_string@DU?$char_traits@D@std@@V?$allocator@D@2@@std@@@2@@2@V?$allocator@U?$pair@$$CBV?$basic_string@DU?$char_traits@D@std@@V?$allocator@D@2@@std@@_N@std@@@2@$0A@@tr1@std@@@std@@QAE?AV?$_List_iterator@V?$_List_val@U?$pair@$$CBV?$basic_string@DU?$char_traits@D@std@@V?$allocator@D@2@@std@@_N@std@@V?$allocator@U?$pair@$$CBV?$basic_string@DU?$char_traits@D@std@@V?$allocator@D@2@@std@@_N@std@@@2@@std@@@2@ABV?$basic_string@DU?$char_traits@D@std@@V?$allocator@D@2@@2@@Z 1001b1a0 f i PatchMW2CModels.obj
 0001:0001a1a0       ?find@?$_Hash@V?$_Umap_traits@V?$basic_string@DU?$char_traits@D@std@@V?$allocator@D@2@@std@@PAUVehicleDef@@V?$_Hash_compare@V?$basic_string@DU?$char_traits@D@std@@V?$allocator@D@2@@std@@V?$hash@V?$basic_string@DU?$char_traits@D@std@@V?$allocator@D@2@@std@@@2@U?$equal_to@V?$basic_string@DU?$char_traits@D@std@@V?$allocator@D@2@@std@@@2@@2@V?$allocator@U?$pair@$$CBV?$basic_string@DU?$char_traits@D@std@@V?$allocator@D@2@@std@@PAUVehicleDef@@@std@@@2@$0A@@tr1@std@@@std@@QAE?AV?$_List_iterator@V?$_List_val@U?$pair@$$CBV?$basic_string@DU?$char_traits@D@std@@V?$allocator@D@2@@std@@PAUVehicleDef@@@std@@V?$allocator@U?$pair@$$CBV?$basic_string@DU?$char_traits@D@std@@V?$allocator@D@2@@std@@PAUVehicleDef@@@std@@@2@@std@@@2@ABV?$basic_string@DU?$char_traits@D@std@@V?$allocator@D@2@@2@@Z 1001b1a0 f i PatchMW2LoadVehicleDef.obj
 0001:0001a1c0       ?lower_bound@?$_Hash@V?$_Umap_traits@V?$basic_string@DU?$char_traits@D@std@@V?$allocator@D@2@@std@@P6AXH@ZV?$_Hash_compare@V?$basic_string@DU?$char_traits@D@std@@V?$allocator@D@2@@std@@V?$hash@V?$basic_string@DU?$char_traits@D@std@@V?$allocator@D@2@@std@@@2@U?$equal_to@V?$basic_string@DU?$char_traits@D@std@@V?$allocator@D@2@@std@@@2@@2@V?$allocator@U?$pair@$$CBV?$basic_string@DU?$char_traits@D@std@@V?$allocator@D@2@@std@@P6AXH@Z@std@@@2@$0A@@tr1@std@@@std@@QAE?AV?$_List_iterator@V?$_List_val@U?$pair@$$CBV?$basic_string@DU?$char_traits@D@std@@V?$allocator@D@2@@std@@P6AXH@Z@std@@V?$allocator@U?$pair@$$CBV?$basic_string@DU?$char_traits@D@std@@V?$allocator@D@2@@std@@P6AXH@Z@std@@@2@@std@@@2@ABV?$basic_string@DU?$char_traits@D@std@@V?$allocator@D@2@@2@@Z 1001b1c0 f i GameInterface.obj
 0001:0001a1c0       ?lower_bound@?$_Hash@V?$_Umap_traits@V?$basic_string@DU?$char_traits@D@std@@V?$allocator@D@2@@std@@_NV?$_Hash_compare@V?$basic_string@DU?$char_traits@D@std@@V?$allocator@D@2@@std@@V?$hash@V?$basic_string@DU?$char_traits@D@std@@V?$allocator@D@2@@std@@@2@U?$equal_to@V?$basic_string@DU?$char_traits@D@std@@V?$allocator@D@2@@std@@@2@@2@V?$allocator@U?$pair@$$CBV?$basic_string@DU?$char_traits@D@std@@V?$allocator@D@2@@std@@_N@std@@@2@$0A@@tr1@std@@@std@@QAE?AV?$_List_iterator@V?$_List_val@U?$pair@$$CBV?$basic_string@DU?$char_traits@D@std@@V?$allocator@D@2@@std@@_N@std@@V?$allocator@U?$pair@$$CBV?$basic_string@DU?$char_traits@D@std@@V?$allocator@D@2@@std@@_N@std@@@2@@std@@@2@ABV?$basic_string@DU?$char_traits@D@std@@V?$allocator@D@2@@2@@Z 1001b1c0 f i PatchMW2CModels.obj
 0001:0001a1c0       ?lower_bound@?$_Hash@V?$_Umap_traits@V?$basic_string@DU?$char_traits@D@std@@V?$allocator@D@2@@std@@PAUVehicleDef@@V?$_Hash_compare@V?$basic_string@DU?$char_traits@D@std@@V?$allocator@D@2@@std@@V?$hash@V?$basic_string@DU?$char_traits@D@std@@V?$allocator@D@2@@std@@@2@U?$equal_to@V?$basic_string@DU?$char_traits@D@std@@V?$allocator@D@2@@std@@@2@@2@V?$allocator@U?$pair@$$CBV?$basic_string@DU?$char_traits@D@std@@V?$allocator@D@2@@std@@PAUVehicleDef@@@std@@@2@$0A@@tr1@std@@@std@@QAE?AV?$_List_iterator@V?$_List_val@U?$pair@$$CBV?$basic_string@DU?$char_traits@D@std@@V?$allocator@D@2@@std@@PAUVehicleDef@@@std@@V?$allocator@U?$pair@$$CBV?$basic_string@DU?$char_traits@D@std@@V?$allocator@D@2@@std@@PAUVehicleDef@@@std@@@2@@std@@@2@ABV?$basic_string@DU?$char_traits@D@std@@V?$allocator@D@2@@2@@Z 1001b1c0 f i PatchMW2LoadVehicleDef.obj
 0001:0001a2b0       ??D?$_List_iterator@V?$_List_val@U?$pair@$$CBV?$basic_string@DU?$char_traits@D@std@@V?$allocator@D@2@@std@@P6AXH@Z@std@@V?$allocator@U?$pair@$$CBV?$basic_string@DU?$char_traits@D@std@@V?$allocator@D@2@@std@@P6AXH@Z@std@@@2@@std@@@std@@QBEAAU?$pair@$$CBV?$basic_string@DU?$char_traits@D@std@@V?$allocator@D@2@@std@@P6AXH@Z@1@XZ 1001b2b0 f i GameInterface.obj
 0001:0001a2b0       ??D?$_List_iterator@V?$_List_val@U?$pair@$$CB_K_N@std@@V?$allocator@U?$pair@$$CB_K_N@std@@@2@@std@@@std@@QBEAAU?$pair@$$CB_K_N@1@XZ 1001b2b0 f i SteamBase.obj
 0001:0001a2b0       ??D?$_List_iterator@V?$_List_val@U?$pair@$$CB_KPAVCCallbackBase@@@std@@V?$allocator@U?$pair@$$CB_KPAVCCallbackBase@@@std@@@2@@std@@@std@@QBEAAU?$pair@$$CB_KPAVCCallbackBase@@@1@XZ 1001b2b0 f i SteamBase.obj
 0001:0001a2b0       ??D?$_List_iterator@V?$_List_val@U?$pair@$$CBV?$basic_string@DU?$char_traits@D@std@@V?$allocator@D@2@@std@@_N@std@@V?$allocator@U?$pair@$$CBV?$basic_string@DU?$char_traits@D@std@@V?$allocator@D@2@@std@@_N@std@@@2@@std@@@std@@QBEAAU?$pair@$$CBV?$basic_string@DU?$char_traits@D@std@@V?$allocator@D@2@@std@@_N@1@XZ 1001b2b0 f i PatchMW2CModels.obj
 0001:0001a2b0       ??D?$_List_iterator@V?$_List_val@U?$pair@$$CBV?$basic_string@DU?$char_traits@D@std@@V?$allocator@D@2@@std@@PAUVehicleDef@@@std@@V?$allocator@U?$pair@$$CBV?$basic_string@DU?$char_traits@D@std@@V?$allocator@D@2@@std@@PAUVehicleDef@@@std@@@2@@std@@@std@@QBEAAU?$pair@$$CBV?$basic_string@DU?$char_traits@D@std@@V?$allocator@D@2@@std@@PAUVehicleDef@@@1@XZ 1001b2b0 f i PatchMW2LoadVehicleDef.obj
 0001:0001a2d0       ??D?$_List_const_iterator@V?$_List_val@U?$pair@$$CBV?$basic_string@DU?$char_traits@D@std@@V?$allocator@D@2@@std@@_N@std@@V?$allocator@U?$pair@$$CBV?$basic_string@DU?$char_traits@D@std@@V?$allocator@D@2@@std@@_N@std@@@2@@std@@@std@@QBEABU?$pair@$$CBV?$basic_string@DU?$char_traits@D@std@@V?$allocator@D@2@@std@@_N@1@XZ 1001b2d0 f i PatchMW2CModels.obj
 0001:0001a2d0       ??D?$_List_const_iterator@V?$_List_val@U?$pair@$$CBV?$basic_string@DU?$char_traits@D@std@@V?$allocator@D@2@@std@@PAUVehicleDef@@@std@@V?$allocator@U?$pair@$$CBV?$basic_string@DU?$char_traits@D@std@@V?$allocator@D@2@@std@@PAUVehicleDef@@@std@@@2@@std@@@std@@QBEABU?$pair@$$CBV?$basic_string@DU?$char_traits@D@std@@V?$allocator@D@2@@std@@PAUVehicleDef@@@1@XZ 1001b2d0 f i PatchMW2LoadVehicleDef.obj
 0001:0001a2d0       ??D?$_List_const_iterator@V?$_List_val@U?$pair@$$CB_K_N@std@@V?$allocator@U?$pair@$$CB_K_N@std@@@2@@std@@@std@@QBEABU?$pair@$$CB_K_N@1@XZ 1001b2d0 f i SteamBase.obj
 0001:0001a2d0       ??D?$_List_const_iterator@V?$_List_val@U?$pair@$$CBV?$basic_string@DU?$char_traits@D@std@@V?$allocator@D@2@@std@@P6AXH@Z@std@@V?$allocator@U?$pair@$$CBV?$basic_string@DU?$char_traits@D@std@@V?$allocator@D@2@@std@@P6AXH@Z@std@@@2@@std@@@std@@QBEABU?$pair@$$CBV?$basic_string@DU?$char_traits@D@std@@V?$allocator@D@2@@std@@P6AXH@Z@1@XZ 1001b2d0 f i GameInterface.obj
 0001:0001a2d0       ??D?$_List_const_iterator@V?$_List_val@U?$pair@$$CB_KPAVCCallbackBase@@@std@@V?$allocator@U?$pair@$$CB_KPAVCCallbackBase@@@std@@@2@@std@@@std@@QBEABU?$pair@$$CB_KPAVCCallbackBase@@@1@XZ 1001b2d0 f i SteamBase.obj
 0001:0001a2f0       ??$insert@U?$pair@$$CBV?$basic_string@DU?$char_traits@D@std@@V?$allocator@D@2@@std@@PAUVehicleDef@@@std@@@?$_Hash@V?$_Umap_traits@V?$basic_string@DU?$char_traits@D@std@@V?$allocator@D@2@@std@@PAUVehicleDef@@V?$_Hash_compare@V?$basic_string@DU?$char_traits@D@std@@V?$allocator@D@2@@std@@V?$hash@V?$basic_string@DU?$char_traits@D@std@@V?$allocator@D@2@@std@@@2@U?$equal_to@V?$basic_string@DU?$char_traits@D@std@@V?$allocator@D@2@@std@@@2@@2@V?$allocator@U?$pair@$$CBV?$basic_string@DU?$char_traits@D@std@@V?$allocator@D@2@@std@@PAUVehicleDef@@@std@@@2@$0A@@tr1@std@@@std@@QAE?AU?$pair@V?$_List_iterator@V?$_List_val@U?$pair@$$CBV?$basic_string@DU?$char_traits@D@std@@V?$allocator@D@2@@std@@PAUVehicleDef@@@std@@V?$allocator@U?$pair@$$CBV?$basic_string@DU?$char_traits@D@std@@V?$allocator@D@2@@std@@PAUVehicleDef@@@std@@@2@@std@@@std@@_N@1@$$QAU?$pair@$$CBV?$basic_string@DU?$char_traits@D@std@@V?$allocator@D@2@@std@@PAUVehicleDef@@@1@@Z 1001b2f0 f i PatchMW2LoadVehicleDef.obj
 0001:0001a350       ?begin@?$_Hash@V?$_Umap_traits@V?$basic_string@DU?$char_traits@D@std@@V?$allocator@D@2@@std@@PAUVehicleDef@@V?$_Hash_compare@V?$basic_string@DU?$char_traits@D@std@@V?$allocator@D@2@@std@@V?$hash@V?$basic_string@DU?$char_traits@D@std@@V?$allocator@D@2@@std@@@2@U?$equal_to@V?$basic_string@DU?$char_traits@D@std@@V?$allocator@D@2@@std@@@2@@2@V?$allocator@U?$pair@$$CBV?$basic_string@DU?$char_traits@D@std@@V?$allocator@D@2@@std@@PAUVehicleDef@@@std@@@2@$0A@@tr1@std@@@std@@QAE?AV?$_List_iterator@V?$_List_val@U?$pair@$$CBV?$basic_string@DU?$char_traits@D@std@@V?$allocator@D@2@@std@@PAUVehicleDef@@@std@@V?$allocator@U?$pair@$$CBV?$basic_string@DU?$char_traits@D@std@@V?$allocator@D@2@@std@@PAUVehicleDef@@@std@@@2@@std@@@2@XZ 1001b350 f i PatchMW2LoadVehicleDef.obj
 0001:0001a350       ?begin@?$_Hash@V?$_Umap_traits@V?$basic_string@DU?$char_traits@D@std@@V?$allocator@D@2@@std@@P6AXH@ZV?$_Hash_compare@V?$basic_string@DU?$char_traits@D@std@@V?$allocator@D@2@@std@@V?$hash@V?$basic_string@DU?$char_traits@D@std@@V?$allocator@D@2@@std@@@2@U?$equal_to@V?$basic_string@DU?$char_traits@D@std@@V?$allocator@D@2@@std@@@2@@2@V?$allocator@U?$pair@$$CBV?$basic_string@DU?$char_traits@D@std@@V?$allocator@D@2@@std@@P6AXH@Z@std@@@2@$0A@@tr1@std@@@std@@QAE?AV?$_List_iterator@V?$_List_val@U?$pair@$$CBV?$basic_string@DU?$char_traits@D@std@@V?$allocator@D@2@@std@@P6AXH@Z@std@@V?$allocator@U?$pair@$$CBV?$basic_string@DU?$char_traits@D@std@@V?$allocator@D@2@@std@@P6AXH@Z@std@@@2@@std@@@2@XZ 1001b350 f i GameInterface.obj
 0001:0001a350       ?begin@?$_Hash@V?$_Umap_traits@_KPAVCCallbackBase@@V?$_Hash_compare@_KV?$hash@_K@std@@U?$equal_to@_K@2@@std@@V?$allocator@U?$pair@$$CB_KPAVCCallbackBase@@@std@@@3@$0A@@tr1@std@@@std@@QAE?AV?$_List_iterator@V?$_List_val@U?$pair@$$CB_KPAVCCallbackBase@@@std@@V?$allocator@U?$pair@$$CB_KPAVCCallbackBase@@@std@@@2@@std@@@2@XZ 1001b350 f i SteamBase.obj
 0001:0001a350       ?begin@?$_Hash@V?$_Umap_traits@_K_NV?$_Hash_compare@_KV?$hash@_K@std@@U?$equal_to@_K@2@@std@@V?$allocator@U?$pair@$$CB_K_N@std@@@2@$0A@@tr1@std@@@std@@QAE?AV?$_List_iterator@V?$_List_val@U?$pair@$$CB_K_N@std@@V?$allocator@U?$pair@$$CB_K_N@std@@@2@@std@@@2@XZ 1001b350 f i SteamBase.obj
 0001:0001a370       ?_Insert@?$_Hash@V?$_Umap_traits@V?$basic_string@DU?$char_traits@D@std@@V?$allocator@D@2@@std@@PAUVehicleDef@@V?$_Hash_compare@V?$basic_string@DU?$char_traits@D@std@@V?$allocator@D@2@@std@@V?$hash@V?$basic_string@DU?$char_traits@D@std@@V?$allocator@D@2@@std@@@2@U?$equal_to@V?$basic_string@DU?$char_traits@D@std@@V?$allocator@D@2@@std@@@2@@2@V?$allocator@U?$pair@$$CBV?$basic_string@DU?$char_traits@D@std@@V?$allocator@D@2@@std@@PAUVehicleDef@@@std@@@2@$0A@@tr1@std@@@std@@IAE?AU?$pair@V?$_List_iterator@V?$_List_val@U?$pair@$$CBV?$basic_string@DU?$char_traits@D@std@@V?$allocator@D@2@@std@@PAUVehicleDef@@@std@@V?$allocator@U?$pair@$$CBV?$basic_string@DU?$char_traits@D@std@@V?$allocator@D@2@@std@@PAUVehicleDef@@@std@@@2@@std@@@std@@_N@2@ABU?$pair@$$CBV?$basic_string@DU?$char_traits@D@std@@V?$allocator@D@2@@std@@PAUVehicleDef@@@2@V?$_List_iterator@V?$_List_val@U?$pair@$$CBV?$basic_string@DU?$char_traits@D@std@@V?$allocator@D@2@@std@@PAUVehicleDef@@@std@@V?$allocator@U?$pair@$$CBV?$basic_string@DU?$char_traits@D@std@@V?$allocator@D@2@@std@@PAUVehicleDef@@@std@@@2@@std@@@2@@Z 1001b370 f i PatchMW2LoadVehicleDef.obj
 0001:0001a500       ?front@?$list@U?$pair@$$CB_KPAVCCallbackBase@@@std@@V?$allocator@U?$pair@$$CB_KPAVCCallbackBase@@@std@@@2@@std@@QAEAAU?$pair@$$CB_KPAVCCallbackBase@@@2@XZ 1001b500 f i SteamBase.obj
 0001:0001a500       ?front@?$list@U?$pair@$$CBV?$basic_string@DU?$char_traits@D@std@@V?$allocator@D@2@@std@@PAUVehicleDef@@@std@@V?$allocator@U?$pair@$$CBV?$basic_string@DU?$char_traits@D@std@@V?$allocator@D@2@@std@@PAUVehicleDef@@@std@@@2@@std@@QAEAAU?$pair@$$CBV?$basic_string@DU?$char_traits@D@std@@V?$allocator@D@2@@std@@PAUVehicleDef@@@2@XZ 1001b500 f i PatchMW2LoadVehicleDef.obj
 0001:0001a500       ?front@?$list@U?$pair@$$CB_K_N@std@@V?$allocator@U?$pair@$$CB_K_N@std@@@2@@std@@QAEAAU?$pair@$$CB_K_N@2@XZ 1001b500 f i SteamBase.obj
 0001:0001a500       ?front@?$list@U?$pair@$$CBV?$basic_string@DU?$char_traits@D@std@@V?$allocator@D@2@@std@@P6AXH@Z@std@@V?$allocator@U?$pair@$$CBV?$basic_string@DU?$char_traits@D@std@@V?$allocator@D@2@@std@@P6AXH@Z@std@@@2@@std@@QAEAAU?$pair@$$CBV?$basic_string@DU?$char_traits@D@std@@V?$allocator@D@2@@std@@P6AXH@Z@2@XZ 1001b500 f i GameInterface.obj
 0001:0001a520       ?_Check_size@?$_Hash@V?$_Umap_traits@V?$basic_string@DU?$char_traits@D@std@@V?$allocator@D@2@@std@@PAUVehicleDef@@V?$_Hash_compare@V?$basic_string@DU?$char_traits@D@std@@V?$allocator@D@2@@std@@V?$hash@V?$basic_string@DU?$char_traits@D@std@@V?$allocator@D@2@@std@@@2@U?$equal_to@V?$basic_string@DU?$char_traits@D@std@@V?$allocator@D@2@@std@@@2@@2@V?$allocator@U?$pair@$$CBV?$basic_string@DU?$char_traits@D@std@@V?$allocator@D@2@@std@@PAUVehicleDef@@@std@@@2@$0A@@tr1@std@@@std@@IAEXXZ 1001b520 f i PatchMW2LoadVehicleDef.obj
 0001:0001a5c0       ?begin@?$list@U?$pair@$$CB_K_N@std@@V?$allocator@U?$pair@$$CB_K_N@std@@@2@@std@@QAE?AV?$_List_iterator@V?$_List_val@U?$pair@$$CB_K_N@std@@V?$allocator@U?$pair@$$CB_K_N@std@@@2@@std@@@2@XZ 1001b5c0 f i SteamBase.obj
 0001:0001a5c0       ?begin@?$list@U?$pair@$$CBV?$basic_string@DU?$char_traits@D@std@@V?$allocator@D@2@@std@@PAUVehicleDef@@@std@@V?$allocator@U?$pair@$$CBV?$basic_string@DU?$char_traits@D@std@@V?$allocator@D@2@@std@@PAUVehicleDef@@@std@@@2@@std@@QAE?AV?$_List_iterator@V?$_List_val@U?$pair@$$CBV?$basic_string@DU?$char_traits@D@std@@V?$allocator@D@2@@std@@PAUVehicleDef@@@std@@V?$allocator@U?$pair@$$CBV?$basic_string@DU?$char_traits@D@std@@V?$allocator@D@2@@std@@PAUVehicleDef@@@std@@@2@@std@@@2@XZ 1001b5c0 f i PatchMW2LoadVehicleDef.obj
 0001:0001a5c0       ?begin@?$list@U?$pair@$$CBV?$basic_string@DU?$char_traits@D@std@@V?$allocator@D@2@@std@@P6AXH@Z@std@@V?$allocator@U?$pair@$$CBV?$basic_string@DU?$char_traits@D@std@@V?$allocator@D@2@@std@@P6AXH@Z@std@@@2@@std@@QAE?AV?$_List_iterator@V?$_List_val@U?$pair@$$CBV?$basic_string@DU?$char_traits@D@std@@V?$allocator@D@2@@std@@P6AXH@Z@std@@V?$allocator@U?$pair@$$CBV?$basic_string@DU?$char_traits@D@std@@V?$allocator@D@2@@std@@P6AXH@Z@std@@@2@@std@@@2@XZ 1001b5c0 f i GameInterface.obj
 0001:0001a5c0       ?begin@?$list@U?$pair@$$CB_KPAVCCallbackBase@@@std@@V?$allocator@U?$pair@$$CB_KPAVCCallbackBase@@@std@@@2@@std@@QAE?AV?$_List_iterator@V?$_List_val@U?$pair@$$CB_KPAVCCallbackBase@@@std@@V?$allocator@U?$pair@$$CB_KPAVCCallbackBase@@@std@@@2@@std@@@2@XZ 1001b5c0 f i SteamBase.obj
 0001:0001a5f0       ?erase@?$list@U?$pair@$$CBV?$basic_string@DU?$char_traits@D@std@@V?$allocator@D@2@@std@@P6AXH@Z@std@@V?$allocator@U?$pair@$$CBV?$basic_string@DU?$char_traits@D@std@@V?$allocator@D@2@@std@@P6AXH@Z@std@@@2@@std@@QAE?AV?$_List_iterator@V?$_List_val@U?$pair@$$CBV?$basic_string@DU?$char_traits@D@std@@V?$allocator@D@2@@std@@P6AXH@Z@std@@V?$allocator@U?$pair@$$CBV?$basic_string@DU?$char_traits@D@std@@V?$allocator@D@2@@std@@P6AXH@Z@std@@@2@@std@@@2@V?$_List_const_iterator@V?$_List_val@U?$pair@$$CBV?$basic_string@DU?$char_traits@D@std@@V?$allocator@D@2@@std@@P6AXH@Z@std@@V?$allocator@U?$pair@$$CBV?$basic_string@DU?$char_traits@D@std@@V?$allocator@D@2@@std@@P6AXH@Z@std@@@2@@std@@@2@@Z 1001b5f0 f i GameInterface.obj
 0001:0001a5f0       ?erase@?$list@U?$pair@$$CBV?$basic_string@DU?$char_traits@D@std@@V?$allocator@D@2@@std@@PAUVehicleDef@@@std@@V?$allocator@U?$pair@$$CBV?$basic_string@DU?$char_traits@D@std@@V?$allocator@D@2@@std@@PAUVehicleDef@@@std@@@2@@std@@QAE?AV?$_List_iterator@V?$_List_val@U?$pair@$$CBV?$basic_string@DU?$char_traits@D@std@@V?$allocator@D@2@@std@@PAUVehicleDef@@@std@@V?$allocator@U?$pair@$$CBV?$basic_string@DU?$char_traits@D@std@@V?$allocator@D@2@@std@@PAUVehicleDef@@@std@@@2@@std@@@2@V?$_List_const_iterator@V?$_List_val@U?$pair@$$CBV?$basic_string@DU?$char_traits@D@std@@V?$allocator@D@2@@std@@PAUVehicleDef@@@std@@V?$allocator@U?$pair@$$CBV?$basic_string@DU?$char_traits@D@std@@V?$allocator@D@2@@std@@PAUVehicleDef@@@std@@@2@@std@@@2@@Z 1001b5f0 f i PatchMW2LoadVehicleDef.obj
 0001:0001a6c0       ?_Splice_same@?$list@U?$pair@$$CBV?$basic_string@DU?$char_traits@D@std@@V?$allocator@D@2@@std@@P6AXH@Z@std@@V?$allocator@U?$pair@$$CBV?$basic_string@DU?$char_traits@D@std@@V?$allocator@D@2@@std@@P6AXH@Z@std@@@2@@std@@QAEXV?$_List_const_iterator@V?$_List_val@U?$pair@$$CBV?$basic_string@DU?$char_traits@D@std@@V?$allocator@D@2@@std@@P6AXH@Z@std@@V?$allocator@U?$pair@$$CBV?$basic_string@DU?$char_traits@D@std@@V?$allocator@D@2@@std@@P6AXH@Z@std@@@2@@std@@@2@AAV12@00I@Z 1001b6c0 f i GameInterface.obj
 0001:0001a6c0       ?_Splice_same@?$list@U?$pair@$$CBV?$basic_string@DU?$char_traits@D@std@@V?$allocator@D@2@@std@@PAUVehicleDef@@@std@@V?$allocator@U?$pair@$$CBV?$basic_string@DU?$char_traits@D@std@@V?$allocator@D@2@@std@@PAUVehicleDef@@@std@@@2@@std@@QAEXV?$_List_const_iterator@V?$_List_val@U?$pair@$$CBV?$basic_string@DU?$char_traits@D@std@@V?$allocator@D@2@@std@@PAUVehicleDef@@@std@@V?$allocator@U?$pair@$$CBV?$basic_string@DU?$char_traits@D@std@@V?$allocator@D@2@@std@@PAUVehicleDef@@@std@@@2@@std@@@2@AAV12@00I@Z 1001b6c0 f i PatchMW2LoadVehicleDef.obj
 0001:0001a7f0       ?bucket_count@?$_Hash@V?$_Umap_traits@V?$basic_string@DU?$char_traits@D@std@@V?$allocator@D@2@@std@@P6AXH@ZV?$_Hash_compare@V?$basic_string@DU?$char_traits@D@std@@V?$allocator@D@2@@std@@V?$hash@V?$basic_string@DU?$char_traits@D@std@@V?$allocator@D@2@@std@@@2@U?$equal_to@V?$basic_string@DU?$char_traits@D@std@@V?$allocator@D@2@@std@@@2@@2@V?$allocator@U?$pair@$$CBV?$basic_string@DU?$char_traits@D@std@@V?$allocator@D@2@@std@@P6AXH@Z@std@@@2@$0A@@tr1@std@@@std@@QBEIXZ 1001b7f0 f i GameInterface.obj
 0001:0001a7f0       ?bucket_count@?$_Hash@V?$_Umap_traits@_KPAVCCallbackBase@@V?$_Hash_compare@_KV?$hash@_K@std@@U?$equal_to@_K@2@@std@@V?$allocator@U?$pair@$$CB_KPAVCCallbackBase@@@std@@@3@$0A@@tr1@std@@@std@@QBEIXZ 1001b7f0 f i SteamBase.obj
 0001:0001a7f0       ?bucket_count@?$_Hash@V?$_Umap_traits@V?$basic_string@DU?$char_traits@D@std@@V?$allocator@D@2@@std@@PAUVehicleDef@@V?$_Hash_compare@V?$basic_string@DU?$char_traits@D@std@@V?$allocator@D@2@@std@@V?$hash@V?$basic_string@DU?$char_traits@D@std@@V?$allocator@D@2@@std@@@2@U?$equal_to@V?$basic_string@DU?$char_traits@D@std@@V?$allocator@D@2@@std@@@2@@2@V?$allocator@U?$pair@$$CBV?$basic_string@DU?$char_traits@D@std@@V?$allocator@D@2@@std@@PAUVehicleDef@@@std@@@2@$0A@@tr1@std@@@std@@QBEIXZ 1001b7f0 f i PatchMW2LoadVehicleDef.obj
 0001:0001a7f0       ?bucket_count@?$_Hash@V?$_Umap_traits@_K_NV?$_Hash_compare@_KV?$hash@_K@std@@U?$equal_to@_K@2@@std@@V?$allocator@U?$pair@$$CB_K_N@std@@@2@$0A@@tr1@std@@@std@@QBEIXZ 1001b7f0 f i SteamBase.obj
 0001:0001a810       ?load_factor@?$_Hash@V?$_Umap_traits@_K_NV?$_Hash_compare@_KV?$hash@_K@std@@U?$equal_to@_K@2@@std@@V?$allocator@U?$pair@$$CB_K_N@std@@@2@$0A@@tr1@std@@@std@@QBEMXZ 1001b810 f i SteamBase.obj
 0001:0001a810       ?load_factor@?$_Hash@V?$_Umap_traits@V?$basic_string@DU?$char_traits@D@std@@V?$allocator@D@2@@std@@P6AXH@ZV?$_Hash_compare@V?$basic_string@DU?$char_traits@D@std@@V?$allocator@D@2@@std@@V?$hash@V?$basic_string@DU?$char_traits@D@std@@V?$allocator@D@2@@std@@@2@U?$equal_to@V?$basic_string@DU?$char_traits@D@std@@V?$allocator@D@2@@std@@@2@@2@V?$allocator@U?$pair@$$CBV?$basic_string@DU?$char_traits@D@std@@V?$allocator@D@2@@std@@P6AXH@Z@std@@@2@$0A@@tr1@std@@@std@@QBEMXZ 1001b810 f i GameInterface.obj
 0001:0001a810       ?load_factor@?$_Hash@V?$_Umap_traits@V?$basic_string@DU?$char_traits@D@std@@V?$allocator@D@2@@std@@PAUVehicleDef@@V?$_Hash_compare@V?$basic_string@DU?$char_traits@D@std@@V?$allocator@D@2@@std@@V?$hash@V?$basic_string@DU?$char_traits@D@std@@V?$allocator@D@2@@std@@@2@U?$equal_to@V?$basic_string@DU?$char_traits@D@std@@V?$allocator@D@2@@std@@@2@@2@V?$allocator@U?$pair@$$CBV?$basic_string@DU?$char_traits@D@std@@V?$allocator@D@2@@std@@PAUVehicleDef@@@std@@@2@$0A@@tr1@std@@@std@@QBEMXZ 1001b810 f i PatchMW2LoadVehicleDef.obj
 0001:0001a810       ?load_factor@?$_Hash@V?$_Umap_traits@_KPAVCCallbackBase@@V?$_Hash_compare@_KV?$hash@_K@std@@U?$equal_to@_K@2@@std@@V?$allocator@U?$pair@$$CB_KPAVCCallbackBase@@@std@@@3@$0A@@tr1@std@@@std@@QBEMXZ 1001b810 f i SteamBase.obj
 0001:0001a860       ?_Reinsert@?$_Hash@V?$_Umap_traits@V?$basic_string@DU?$char_traits@D@std@@V?$allocator@D@2@@std@@PAUVehicleDef@@V?$_Hash_compare@V?$basic_string@DU?$char_traits@D@std@@V?$allocator@D@2@@std@@V?$hash@V?$basic_string@DU?$char_traits@D@std@@V?$allocator@D@2@@std@@@2@U?$equal_to@V?$basic_string@DU?$char_traits@D@std@@V?$allocator@D@2@@std@@@2@@2@V?$allocator@U?$pair@$$CBV?$basic_string@DU?$char_traits@D@std@@V?$allocator@D@2@@std@@PAUVehicleDef@@@std@@@2@$0A@@tr1@std@@@std@@IAEXV?$_List_iterator@V?$_List_val@U?$pair@$$CBV?$basic_string@DU?$char_traits@D@std@@V?$allocator@D@2@@std@@PAUVehicleDef@@@std@@V?$allocator@U?$pair@$$CBV?$basic_string@DU?$char_traits@D@std@@V?$allocator@D@2@@std@@PAUVehicleDef@@@std@@@2@@std@@@2@@Z 1001b860 f i PatchMW2LoadVehicleDef.obj
 0001:0001a8e0       ?max_size@?$list@U?$pair@$$CBV?$basic_string@DU?$char_traits@D@std@@V?$allocator@D@2@@std@@PAUVehicleDef@@@std@@V?$allocator@U?$pair@$$CBV?$basic_string@DU?$char_traits@D@std@@V?$allocator@D@2@@std@@PAUVehicleDef@@@std@@@2@@std@@QBEIXZ 1001b8e0 f i PatchMW2LoadVehicleDef.obj
 0001:0001a8e0       ?max_size@?$list@U?$pair@$$CBV?$basic_string@DU?$char_traits@D@std@@V?$allocator@D@2@@std@@P6AXH@Z@std@@V?$allocator@U?$pair@$$CBV?$basic_string@DU?$char_traits@D@std@@V?$allocator@D@2@@std@@P6AXH@Z@std@@@2@@std@@QBEIXZ 1001b8e0 f i GameInterface.obj
 0001:0001a900       ?max_size@?$allocator@U?$pair@$$CBV?$basic_string@DU?$char_traits@D@std@@V?$allocator@D@2@@std@@H@std@@@std@@QBEIXZ 1001b900 f i PatchMW2RemoteConsoleSV.obj
 0001:0001a900       ?max_size@?$allocator@U?$pair@$$CBV?$basic_string@DU?$char_traits@D@std@@V?$allocator@D@2@@std@@P6AXH@Z@std@@@std@@QBEIXZ 1001b900 f i GameInterface.obj
 0001:0001a900       ?max_size@?$allocator@U?$pair@$$CBV?$basic_string@DU?$char_traits@D@std@@V?$allocator@D@2@@std@@PAUVehicleDef@@@std@@@std@@QBEIXZ 1001b900 f i PatchMW2LoadVehicleDef.obj
 0001:0001a930       ??$emplace_front@U?$pair@$$CBV?$basic_string@DU?$char_traits@D@std@@V?$allocator@D@2@@std@@PAUVehicleDef@@@std@@@?$list@U?$pair@$$CBV?$basic_string@DU?$char_traits@D@std@@V?$allocator@D@2@@std@@PAUVehicleDef@@@std@@V?$allocator@U?$pair@$$CBV?$basic_string@DU?$char_traits@D@std@@V?$allocator@D@2@@std@@PAUVehicleDef@@@std@@@2@@std@@QAEX$$QAU?$pair@$$CBV?$basic_string@DU?$char_traits@D@std@@V?$allocator@D@2@@std@@PAUVehicleDef@@@1@@Z 1001b930 f i PatchMW2LoadVehicleDef.obj
 0001:0001a970       ??$_Insert_rv@U?$pair@$$CBV?$basic_string@DU?$char_traits@D@std@@V?$allocator@D@2@@std@@PAUVehicleDef@@@std@@@?$list@U?$pair@$$CBV?$basic_string@DU?$char_traits@D@std@@V?$allocator@D@2@@std@@PAUVehicleDef@@@std@@V?$allocator@U?$pair@$$CBV?$basic_string@DU?$char_traits@D@std@@V?$allocator@D@2@@std@@PAUVehicleDef@@@std@@@2@@std@@QAEXV?$_List_const_iterator@V?$_List_val@U?$pair@$$CBV?$basic_string@DU?$char_traits@D@std@@V?$allocator@D@2@@std@@PAUVehicleDef@@@std@@V?$allocator@U?$pair@$$CBV?$basic_string@DU?$char_traits@D@std@@V?$allocator@D@2@@std@@PAUVehicleDef@@@std@@@2@@std@@@1@$$QAU?$pair@$$CBV?$basic_string@DU?$char_traits@D@std@@V?$allocator@D@2@@std@@PAUVehicleDef@@@1@@Z 1001b970 f i PatchMW2LoadVehicleDef.obj
 0001:0001a9f0       ??$_Buynode@U?$pair@$$CBV?$basic_string@DU?$char_traits@D@std@@V?$allocator@D@2@@std@@PAUVehicleDef@@@std@@@?$_List_val@U?$pair@$$CBV?$basic_string@DU?$char_traits@D@std@@V?$allocator@D@2@@std@@PAUVehicleDef@@@std@@V?$allocator@U?$pair@$$CBV?$basic_string@DU?$char_traits@D@std@@V?$allocator@D@2@@std@@PAUVehicleDef@@@std@@@2@@std@@QAEPAU_Node@?$_List_nod@U?$pair@$$CBV?$basic_string@DU?$char_traits@D@std@@V?$allocator@D@2@@std@@PAUVehicleDef@@@std@@V?$allocator@U?$pair@$$CBV?$basic_string@DU?$char_traits@D@std@@V?$allocator@D@2@@std@@PAUVehicleDef@@@std@@@2@@1@PAU231@0$$QAU?$pair@$$CBV?$basic_string@DU?$char_traits@D@std@@V?$allocator@D@2@@std@@PAUVehicleDef@@@1@@Z 1001b9f0 f i PatchMW2LoadVehicleDef.obj
 0001:0001aaf0       ?allocate@?$allocator@U_Node@?$_List_nod@U?$pair@$$CBV?$basic_string@DU?$char_traits@D@std@@V?$allocator@D@2@@std@@_N@std@@V?$allocator@U?$pair@$$CBV?$basic_string@DU?$char_traits@D@std@@V?$allocator@D@2@@std@@_N@std@@@2@@std@@@std@@QAEPAU_Node@?$_List_nod@U?$pair@$$CBV?$basic_string@DU?$char_traits@D@std@@V?$allocator@D@2@@std@@_N@std@@V?$allocator@U?$pair@$$CBV?$basic_string@DU?$char_traits@D@std@@V?$allocator@D@2@@std@@_N@std@@@2@@2@I@Z 1001baf0 f i PatchMW2Experiments.obj
 0001:0001aaf0       ?allocate@?$allocator@U_Node@?$_List_nod@U?$pair@$$CBV?$basic_string@DU?$char_traits@D@std@@V?$allocator@D@2@@std@@PAUVehicleDef@@@std@@V?$allocator@U?$pair@$$CBV?$basic_string@DU?$char_traits@D@std@@V?$allocator@D@2@@std@@PAUVehicleDef@@@std@@@2@@std@@@std@@QAEPAU_Node@?$_List_nod@U?$pair@$$CBV?$basic_string@DU?$char_traits@D@std@@V?$allocator@D@2@@std@@PAUVehicleDef@@@std@@V?$allocator@U?$pair@$$CBV?$basic_string@DU?$char_traits@D@std@@V?$allocator@D@2@@std@@PAUVehicleDef@@@std@@@2@@2@I@Z 1001baf0 f i PatchMW2LoadVehicleDef.obj
 0001:0001aaf0       ?allocate@?$allocator@U_Node@?$_Tree_nod@V?$_Tmap_traits@_K_JU?$less@_K@std@@V?$allocator@U?$pair@$$CB_K_J@std@@@2@$0A@@std@@@std@@@std@@QAEPAU_Node@?$_Tree_nod@V?$_Tmap_traits@_K_JU?$less@_K@std@@V?$allocator@U?$pair@$$CB_K_J@std@@@2@$0A@@std@@@2@I@Z 1001baf0 f i PatchMW2PreAuthenticate.obj
 0001:0001aaf0       ?allocate@?$allocator@U_Node@?$_List_nod@U?$pair@$$CBV?$basic_string@DU?$char_traits@D@std@@V?$allocator@D@2@@std@@P6AXH@Z@std@@V?$allocator@U?$pair@$$CBV?$basic_string@DU?$char_traits@D@std@@V?$allocator@D@2@@std@@P6AXH@Z@std@@@2@@std@@@std@@QAEPAU_Node@?$_List_nod@U?$pair@$$CBV?$basic_string@DU?$char_traits@D@std@@V?$allocator@D@2@@std@@P6AXH@Z@std@@V?$allocator@U?$pair@$$CBV?$basic_string@DU?$char_traits@D@std@@V?$allocator@D@2@@std@@P6AXH@Z@std@@@2@@2@I@Z 1001baf0 f i GameInterface.obj
 0001:0001ab10       ??$_Allocate@U_Node@?$_List_nod@U?$pair@$$CBV?$basic_string@DU?$char_traits@D@std@@V?$allocator@D@2@@std@@_N@std@@V?$allocator@U?$pair@$$CBV?$basic_string@DU?$char_traits@D@std@@V?$allocator@D@2@@std@@_N@std@@@2@@std@@@std@@YAPAU_Node@?$_List_nod@U?$pair@$$CBV?$basic_string@DU?$char_traits@D@std@@V?$allocator@D@2@@std@@_N@std@@V?$allocator@U?$pair@$$CBV?$basic_string@DU?$char_traits@D@std@@V?$allocator@D@2@@std@@_N@std@@@2@@0@IPAU120@@Z 1001bb10 f i PatchMW2Experiments.obj
 0001:0001ab10       ??$_Allocate@U_Node@?$_Tree_nod@V?$_Tmap_traits@_K_JU?$less@_K@std@@V?$allocator@U?$pair@$$CB_K_J@std@@@2@$0A@@std@@@std@@@std@@YAPAU_Node@?$_Tree_nod@V?$_Tmap_traits@_K_JU?$less@_K@std@@V?$allocator@U?$pair@$$CB_K_J@std@@@2@$0A@@std@@@0@IPAU120@@Z 1001bb10 f i PatchMW2PreAuthenticate.obj
 0001:0001ab10       ??$_Allocate@U_Node@?$_List_nod@U?$pair@$$CBV?$basic_string@DU?$char_traits@D@std@@V?$allocator@D@2@@std@@P6AXH@Z@std@@V?$allocator@U?$pair@$$CBV?$basic_string@DU?$char_traits@D@std@@V?$allocator@D@2@@std@@P6AXH@Z@std@@@2@@std@@@std@@YAPAU_Node@?$_List_nod@U?$pair@$$CBV?$basic_string@DU?$char_traits@D@std@@V?$allocator@D@2@@std@@P6AXH@Z@std@@V?$allocator@U?$pair@$$CBV?$basic_string@DU?$char_traits@D@std@@V?$allocator@D@2@@std@@P6AXH@Z@std@@@2@@0@IPAU120@@Z 1001bb10 f i GameInterface.obj
 0001:0001ab10       ??$_Allocate@U_Node@?$_List_nod@U?$pair@$$CBV?$basic_string@DU?$char_traits@D@std@@V?$allocator@D@2@@std@@PAUVehicleDef@@@std@@V?$allocator@U?$pair@$$CBV?$basic_string@DU?$char_traits@D@std@@V?$allocator@D@2@@std@@PAUVehicleDef@@@std@@@2@@std@@@std@@YAPAU_Node@?$_List_nod@U?$pair@$$CBV?$basic_string@DU?$char_traits@D@std@@V?$allocator@D@2@@std@@PAUVehicleDef@@@std@@V?$allocator@U?$pair@$$CBV?$basic_string@DU?$char_traits@D@std@@V?$allocator@D@2@@std@@PAUVehicleDef@@@std@@@2@@0@IPAU120@@Z 1001bb10 f i PatchMW2LoadVehicleDef.obj
 0001:0001ab70       ??$_Cons_val@V?$allocator@U?$pair@$$CBV?$basic_string@DU?$char_traits@D@std@@V?$allocator@D@2@@std@@H@std@@@std@@U?$pair@$$CBV?$basic_string@DU?$char_traits@D@std@@V?$allocator@D@2@@std@@H@2@U32@@std@@YAXAAV?$allocator@U?$pair@$$CBV?$basic_string@DU?$char_traits@D@std@@V?$allocator@D@2@@std@@H@std@@@0@PAU?$pair@$$CBV?$basic_string@DU?$char_traits@D@std@@V?$allocator@D@2@@std@@H@0@$$QAU20@@Z 1001bb70 f i PatchMW2RemoteConsoleSV.obj
 0001:0001ab70       ??$_Cons_val@V?$allocator@U?$pair@$$CBV?$basic_string@DU?$char_traits@D@std@@V?$allocator@D@2@@std@@PAUVehicleDef@@@std@@@std@@U?$pair@$$CBV?$basic_string@DU?$char_traits@D@std@@V?$allocator@D@2@@std@@PAUVehicleDef@@@2@U32@@std@@YAXAAV?$allocator@U?$pair@$$CBV?$basic_string@DU?$char_traits@D@std@@V?$allocator@D@2@@std@@PAUVehicleDef@@@std@@@0@PAU?$pair@$$CBV?$basic_string@DU?$char_traits@D@std@@V?$allocator@D@2@@std@@PAUVehicleDef@@@0@$$QAU20@@Z 1001bb70 f i PatchMW2LoadVehicleDef.obj
 0001:0001ab90       ?construct@?$allocator@U?$pair@$$CBV?$basic_string@DU?$char_traits@D@std@@V?$allocator@D@2@@std@@H@std@@@std@@QAEXPAU?$pair@$$CBV?$basic_string@DU?$char_traits@D@std@@V?$allocator@D@2@@std@@H@2@$$QAU32@@Z 1001bb90 f i PatchMW2RemoteConsoleSV.obj
 0001:0001ab90       ?construct@?$allocator@U?$pair@$$CBV?$basic_string@DU?$char_traits@D@std@@V?$allocator@D@2@@std@@PAUVehicleDef@@@std@@@std@@QAEXPAU?$pair@$$CBV?$basic_string@DU?$char_traits@D@std@@V?$allocator@D@2@@std@@PAUVehicleDef@@@2@$$QAU32@@Z 1001bb90 f i PatchMW2LoadVehicleDef.obj
 0001:0001ac10       ??$?0$$CBV?$basic_string@DU?$char_traits@D@std@@V?$allocator@D@2@@std@@H@?$pair@$$CBV?$basic_string@DU?$char_traits@D@std@@V?$allocator@D@2@@std@@H@std@@QAE@$$QAU01@@Z 1001bc10 f i PatchMW2RemoteConsoleSV.obj
 0001:0001ac10       ??$?0$$CBV?$basic_string@DU?$char_traits@D@std@@V?$allocator@D@2@@std@@PAUVehicleDef@@@?$pair@$$CBV?$basic_string@DU?$char_traits@D@std@@V?$allocator@D@2@@std@@PAUVehicleDef@@@std@@QAE@$$QAU01@@Z 1001bc10 f i PatchMW2LoadVehicleDef.obj
 0001:0001ac50       ??0?$_Pair_base@$$CBV?$basic_string@DU?$char_traits@D@std@@V?$allocator@D@2@@std@@PAUVehicleDef@@@std@@QAE@$$QBV?$basic_string@DU?$char_traits@D@std@@V?$allocator@D@2@@1@$$QAPAUVehicleDef@@@Z 1001bc50 f i PatchMW2LoadVehicleDef.obj
 0001:0001ac50       ??0?$_Pair_base@$$CBV?$basic_string@DU?$char_traits@D@std@@V?$allocator@D@2@@std@@H@std@@QAE@$$QBV?$basic_string@DU?$char_traits@D@std@@V?$allocator@D@2@@1@$$QAH@Z 1001bc50 f i PatchMW2RemoteConsoleSV.obj
 0001:0001acc0       ??1?$list@U?$pair@$$CBV?$basic_string@DU?$char_traits@D@std@@V?$allocator@D@2@@std@@_N@std@@V?$allocator@U?$pair@$$CBV?$basic_string@DU?$char_traits@D@std@@V?$allocator@D@2@@std@@_N@std@@@2@@std@@QAE@XZ 1001bcc0 f i PatchMW2Experiments.obj
 0001:0001acc0       ??1?$list@U?$pair@$$CBV?$basic_string@DU?$char_traits@D@std@@V?$allocator@D@2@@std@@PAUVehicleDef@@@std@@V?$allocator@U?$pair@$$CBV?$basic_string@DU?$char_traits@D@std@@V?$allocator@D@2@@std@@PAUVehicleDef@@@std@@@2@@std@@QAE@XZ 1001bcc0 f i PatchMW2LoadVehicleDef.obj
 0001:0001ad10       ??1?$vector@V?$_List_iterator@V?$_List_val@U?$pair@$$CB_K_N@std@@V?$allocator@U?$pair@$$CB_K_N@std@@@2@@std@@@std@@V?$allocator@V?$_List_iterator@V?$_List_val@U?$pair@$$CB_K_N@std@@V?$allocator@U?$pair@$$CB_K_N@std@@@2@@std@@@std@@@2@@std@@QAE@XZ 1001bd10 f i SteamBase.obj
 0001:0001ad10       ??1?$vector@V?$_List_iterator@V?$_List_val@U?$pair@$$CBV?$basic_string@DU?$char_traits@D@std@@V?$allocator@D@2@@std@@PAUVehicleDef@@@std@@V?$allocator@U?$pair@$$CBV?$basic_string@DU?$char_traits@D@std@@V?$allocator@D@2@@std@@PAUVehicleDef@@@std@@@2@@std@@@std@@V?$allocator@V?$_List_iterator@V?$_List_val@U?$pair@$$CBV?$basic_string@DU?$char_traits@D@std@@V?$allocator@D@2@@std@@PAUVehicleDef@@@std@@V?$allocator@U?$pair@$$CBV?$basic_string@DU?$char_traits@D@std@@V?$allocator@D@2@@std@@PAUVehicleDef@@@std@@@2@@std@@@std@@@2@@std@@QAE@XZ 1001bd10 f i PatchMW2LoadVehicleDef.obj
 0001:0001ad10       ??1?$vector@V?$_List_iterator@V?$_List_val@U?$pair@$$CBV?$basic_string@DU?$char_traits@D@std@@V?$allocator@D@2@@std@@_N@std@@V?$allocator@U?$pair@$$CBV?$basic_string@DU?$char_traits@D@std@@V?$allocator@D@2@@std@@_N@std@@@2@@std@@@std@@V?$allocator@V?$_List_iterator@V?$_List_val@U?$pair@$$CBV?$basic_string@DU?$char_traits@D@std@@V?$allocator@D@2@@std@@_N@std@@V?$allocator@U?$pair@$$CBV?$basic_string@DU?$char_traits@D@std@@V?$allocator@D@2@@std@@_N@std@@@2@@std@@@std@@@2@@std@@QAE@XZ 1001bd10 f i PatchMW2Experiments.obj
 0001:0001ad10       ??1?$vector@V?$_List_iterator@V?$_List_val@U?$pair@$$CBK_N@std@@V?$allocator@U?$pair@$$CBK_N@std@@@2@@std@@@std@@V?$allocator@V?$_List_iterator@V?$_List_val@U?$pair@$$CBK_N@std@@V?$allocator@U?$pair@$$CBK_N@std@@@2@@std@@@std@@@2@@std@@QAE@XZ 1001bd10 f i PatchMW2AssetRestrict.obj
 0001:0001ad10       ??1?$vector@V?$_List_iterator@V?$_List_val@U?$pair@$$CB_KPAVCCallbackBase@@@std@@V?$allocator@U?$pair@$$CB_KPAVCCallbackBase@@@std@@@2@@std@@@std@@V?$allocator@V?$_List_iterator@V?$_List_val@U?$pair@$$CB_KPAVCCallbackBase@@@std@@V?$allocator@U?$pair@$$CB_KPAVCCallbackBase@@@std@@@2@@std@@@std@@@2@@std@@QAE@XZ 1001bd10 f i SteamBase.obj
 0001:0001ad60       ?_Tidy@?$list@U?$pair@$$CBV?$basic_string@DU?$char_traits@D@std@@V?$allocator@D@2@@std@@PAUVehicleDef@@@std@@V?$allocator@U?$pair@$$CBV?$basic_string@DU?$char_traits@D@std@@V?$allocator@D@2@@std@@PAUVehicleDef@@@std@@@2@@std@@QAEXXZ 1001bd60 f i PatchMW2LoadVehicleDef.obj
 0001:0001ad60       ?_Tidy@?$list@U?$pair@$$CBV?$basic_string@DU?$char_traits@D@std@@V?$allocator@D@2@@std@@P6AXH@Z@std@@V?$allocator@U?$pair@$$CBV?$basic_string@DU?$char_traits@D@std@@V?$allocator@D@2@@std@@P6AXH@Z@std@@@2@@std@@QAEXXZ 1001bd60 f i GameInterface.obj
 0001:0001ad60       ?_Tidy@?$list@U?$pair@$$CBV?$basic_string@DU?$char_traits@D@std@@V?$allocator@D@2@@std@@_N@std@@V?$allocator@U?$pair@$$CBV?$basic_string@DU?$char_traits@D@std@@V?$allocator@D@2@@std@@_N@std@@@2@@std@@QAEXXZ 1001bd60 f i PatchMW2Experiments.obj
 0001:0001ad80       ?clear@?$list@U?$pair@$$CBV?$basic_string@DU?$char_traits@D@std@@V?$allocator@D@2@@std@@PAUVehicleDef@@@std@@V?$allocator@U?$pair@$$CBV?$basic_string@DU?$char_traits@D@std@@V?$allocator@D@2@@std@@PAUVehicleDef@@@std@@@2@@std@@QAEXXZ 1001bd80 f i PatchMW2LoadVehicleDef.obj
 0001:0001ad80       ?clear@?$list@U?$pair@$$CBV?$basic_string@DU?$char_traits@D@std@@V?$allocator@D@2@@std@@_N@std@@V?$allocator@U?$pair@$$CBV?$basic_string@DU?$char_traits@D@std@@V?$allocator@D@2@@std@@_N@std@@@2@@std@@QAEXXZ 1001bd80 f i PatchMW2Experiments.obj
 0001:0001ad80       ?clear@?$list@U?$pair@$$CBV?$basic_string@DU?$char_traits@D@std@@V?$allocator@D@2@@std@@P6AXH@Z@std@@V?$allocator@U?$pair@$$CBV?$basic_string@DU?$char_traits@D@std@@V?$allocator@D@2@@std@@P6AXH@Z@std@@@2@@std@@QAEXXZ 1001bd80 f i GameInterface.obj
 0001:0001ae20       ??0?$_List_nod@U?$pair@$$CBV?$basic_string@DU?$char_traits@D@std@@V?$allocator@D@2@@std@@PAUVehicleDef@@@std@@V?$allocator@U?$pair@$$CBV?$basic_string@DU?$char_traits@D@std@@V?$allocator@D@2@@std@@PAUVehicleDef@@@std@@@2@@std@@QAE@V?$allocator@U?$pair@$$CBV?$basic_string@DU?$char_traits@D@std@@V?$allocator@D@2@@std@@PAUVehicleDef@@@std@@@1@@Z 1001be20 f i PatchMW2LoadVehicleDef.obj
 0001:0001ae20       ??0?$_List_nod@U?$pair@$$CBK_N@std@@V?$allocator@U?$pair@$$CBK_N@std@@@2@@std@@QAE@V?$allocator@U?$pair@$$CBK_N@std@@@1@@Z 1001be20 f i PatchMW2AssetRestrict.obj
 0001:0001ae20       ??0?$_List_nod@U?$pair@$$CBV?$basic_string@DU?$char_traits@D@std@@V?$allocator@D@2@@std@@P6AXH@Z@std@@V?$allocator@U?$pair@$$CBV?$basic_string@DU?$char_traits@D@std@@V?$allocator@D@2@@std@@P6AXH@Z@std@@@2@@std@@QAE@V?$allocator@U?$pair@$$CBV?$basic_string@DU?$char_traits@D@std@@V?$allocator@D@2@@std@@P6AXH@Z@std@@@1@@Z 1001be20 f i GameInterface.obj
 0001:0001ae20       ??0?$_List_nod@U?$pair@$$CB_KPAVCCallbackBase@@@std@@V?$allocator@U?$pair@$$CB_KPAVCCallbackBase@@@std@@@2@@std@@QAE@V?$allocator@U?$pair@$$CB_KPAVCCallbackBase@@@std@@@1@@Z 1001be20 f i SteamBase.obj
 0001:0001ae20       ??0?$_List_nod@U?$pair@$$CBV?$basic_string@DU?$char_traits@D@std@@V?$allocator@D@2@@std@@_N@std@@V?$allocator@U?$pair@$$CBV?$basic_string@DU?$char_traits@D@std@@V?$allocator@D@2@@std@@_N@std@@@2@@std@@QAE@V?$allocator@U?$pair@$$CBV?$basic_string@DU?$char_traits@D@std@@V?$allocator@D@2@@std@@_N@std@@@1@@Z 1001be20 f i PatchMW2Experiments.obj
 0001:0001ae20       ??0?$_List_nod@U?$pair@$$CB_K_N@std@@V?$allocator@U?$pair@$$CB_K_N@std@@@2@@std@@QAE@V?$allocator@U?$pair@$$CB_K_N@std@@@1@@Z 1001be20 f i SteamBase.obj
 0001:0001ae50       ??1?$unordered_map@V?$basic_string@DU?$char_traits@D@std@@V?$allocator@D@2@@std@@PAUVehicleDef@@V?$hash@V?$basic_string@DU?$char_traits@D@std@@V?$allocator@D@2@@std@@@2@U?$equal_to@V?$basic_string@DU?$char_traits@D@std@@V?$allocator@D@2@@std@@@2@V?$allocator@U?$pair@$$CBV?$basic_string@DU?$char_traits@D@std@@V?$allocator@D@2@@std@@PAUVehicleDef@@@std@@@2@@tr1@std@@QAE@XZ 1001be50 f i PatchMW2LoadVehicleDef.obj
 0001:0001ae50       ??1?$unordered_map@V?$basic_string@DU?$char_traits@D@std@@V?$allocator@D@2@@std@@_NV?$hash@V?$basic_string@DU?$char_traits@D@std@@V?$allocator@D@2@@std@@@2@U?$equal_to@V?$basic_string@DU?$char_traits@D@std@@V?$allocator@D@2@@std@@@2@V?$allocator@U?$pair@$$CBV?$basic_string@DU?$char_traits@D@std@@V?$allocator@D@2@@std@@_N@std@@@2@@tr1@std@@QAE@XZ 1001be50 f i PatchMW2Experiments.obj
 0001:0001ae70       ??1?$_Hash@V?$_Umap_traits@V?$basic_string@DU?$char_traits@D@std@@V?$allocator@D@2@@std@@PAUVehicleDef@@V?$_Hash_compare@V?$basic_string@DU?$char_traits@D@std@@V?$allocator@D@2@@std@@V?$hash@V?$basic_string@DU?$char_traits@D@std@@V?$allocator@D@2@@std@@@2@U?$equal_to@V?$basic_string@DU?$char_traits@D@std@@V?$allocator@D@2@@std@@@2@@2@V?$allocator@U?$pair@$$CBV?$basic_string@DU?$char_traits@D@std@@V?$allocator@D@2@@std@@PAUVehicleDef@@@std@@@2@$0A@@tr1@std@@@std@@QAE@XZ 1001be70 f i PatchMW2LoadVehicleDef.obj
 0001:0001ae70       ??1?$_Hash@V?$_Umap_traits@V?$basic_string@DU?$char_traits@D@std@@V?$allocator@D@2@@std@@_NV?$_Hash_compare@V?$basic_string@DU?$char_traits@D@std@@V?$allocator@D@2@@std@@V?$hash@V?$basic_string@DU?$char_traits@D@std@@V?$allocator@D@2@@std@@@2@U?$equal_to@V?$basic_string@DU?$char_traits@D@std@@V?$allocator@D@2@@std@@@2@@2@V?$allocator@U?$pair@$$CBV?$basic_string@DU?$char_traits@D@std@@V?$allocator@D@2@@std@@_N@std@@@2@$0A@@tr1@std@@@std@@QAE@XZ 1001be70 f i PatchMW2Experiments.obj
 0001:0001aec0       ?SEH_GetLocalizedString@@YAPBDPBD@Z 1001bec0 f   PatchMW2LocalizedStrings.obj
 0001:0001af90       ?PatchMW2_LocalizedStrings@@YAXXZ 1001bf90 f   PatchMW2LocalizedStrings.obj
 0001:0001b270       ??4?$basic_string@DU?$char_traits@D@std@@V?$allocator@D@2@@std@@QAEAAV01@PBD@Z 1001c270 f i PatchMW2LocalizedStrings.obj
 0001:0001b290       ?end@?$dense_hash_map@V?$basic_string@DU?$char_traits@D@std@@V?$allocator@D@2@@std@@V12@V?$hash_compare@V?$basic_string@DU?$char_traits@D@std@@V?$allocator@D@2@@std@@U?$less@V?$basic_string@DU?$char_traits@D@std@@V?$allocator@D@2@@std@@@2@@stdext@@U?$equal_to@V?$basic_string@DU?$char_traits@D@std@@V?$allocator@D@2@@std@@@2@V?$libc_allocator_with_realloc@U?$pair@$$CBV?$basic_string@DU?$char_traits@D@std@@V?$allocator@D@2@@std@@V12@@std@@@google@@@google@@QAE?AU?$dense_hashtable_iterator@U?$pair@$$CBV?$basic_string@DU?$char_traits@D@std@@V?$allocator@D@2@@std@@V12@@std@@V?$basic_string@DU?$char_traits@D@std@@V?$allocator@D@2@@2@V?$hash_compare@V?$basic_string@DU?$char_traits@D@std@@V?$allocator@D@2@@std@@U?$less@V?$basic_string@DU?$char_traits@D@std@@V?$allocator@D@2@@std@@@2@@stdext@@USelectKey@?$dense_hash_map@V?$basic_string@DU?$char_traits@D@std@@V?$allocator@D@2@@std@@V12@V?$hash_compare@V?$basic_string@DU?$char_traits@D@std@@V?$allocator@D@2@@std@@U?$less@V?$basic_string@DU?$char_traits@D@std@@V?$allocator@D@2@@std@@@2@@stdext@@U?$equal_to@V?$basic_string@DU?$char_traits@D@std@@V?$allocator@D@2@@std@@@2@V?$libc_allocator_with_realloc@U?$pair@$$CBV?$basic_string@DU?$char_traits@D@std@@V?$allocator@D@2@@std@@V12@@std@@@google@@@google@@USetKey@78@U?$equal_to@V?$basic_string@DU?$char_traits@D@std@@V?$allocator@D@2@@std@@@2@V?$libc_allocator_with_realloc@U?$pair@$$CBV?$basic_string@DU?$char_traits@D@std@@V?$allocator@D@2@@std@@V12@@std@@@8@@2@XZ 1001c290 f i PatchMW2LocalizedStrings.obj
 0001:0001b2b0       ?find@?$dense_hash_map@V?$basic_string@DU?$char_traits@D@std@@V?$allocator@D@2@@std@@V12@V?$hash_compare@V?$basic_string@DU?$char_traits@D@std@@V?$allocator@D@2@@std@@U?$less@V?$basic_string@DU?$char_traits@D@std@@V?$allocator@D@2@@std@@@2@@stdext@@U?$equal_to@V?$basic_string@DU?$char_traits@D@std@@V?$allocator@D@2@@std@@@2@V?$libc_allocator_with_realloc@U?$pair@$$CBV?$basic_string@DU?$char_traits@D@std@@V?$allocator@D@2@@std@@V12@@std@@@google@@@google@@QAE?AU?$dense_hashtable_iterator@U?$pair@$$CBV?$basic_string@DU?$char_traits@D@std@@V?$allocator@D@2@@std@@V12@@std@@V?$basic_string@DU?$char_traits@D@std@@V?$allocator@D@2@@2@V?$hash_compare@V?$basic_string@DU?$char_traits@D@std@@V?$allocator@D@2@@std@@U?$less@V?$basic_string@DU?$char_traits@D@std@@V?$allocator@D@2@@std@@@2@@stdext@@USelectKey@?$dense_hash_map@V?$basic_string@DU?$char_traits@D@std@@V?$allocator@D@2@@std@@V12@V?$hash_compare@V?$basic_string@DU?$char_traits@D@std@@V?$allocator@D@2@@std@@U?$less@V?$basic_string@DU?$char_traits@D@std@@V?$allocator@D@2@@std@@@2@@stdext@@U?$equal_to@V?$basic_string@DU?$char_traits@D@std@@V?$allocator@D@2@@std@@@2@V?$libc_allocator_with_realloc@U?$pair@$$CBV?$basic_string@DU?$char_traits@D@std@@V?$allocator@D@2@@std@@V12@@std@@@google@@@google@@USetKey@78@U?$equal_to@V?$basic_string@DU?$char_traits@D@std@@V?$allocator@D@2@@std@@@2@V?$libc_allocator_with_realloc@U?$pair@$$CBV?$basic_string@DU?$char_traits@D@std@@V?$allocator@D@2@@std@@V12@@std@@@8@@2@ABV?$basic_string@DU?$char_traits@D@std@@V?$allocator@D@2@@std@@@Z 1001c2b0 f i PatchMW2LocalizedStrings.obj
 0001:0001b2d0       ??A?$dense_hash_map@V?$basic_string@DU?$char_traits@D@std@@V?$allocator@D@2@@std@@V12@V?$hash_compare@V?$basic_string@DU?$char_traits@D@std@@V?$allocator@D@2@@std@@U?$less@V?$basic_string@DU?$char_traits@D@std@@V?$allocator@D@2@@std@@@2@@stdext@@U?$equal_to@V?$basic_string@DU?$char_traits@D@std@@V?$allocator@D@2@@std@@@2@V?$libc_allocator_with_realloc@U?$pair@$$CBV?$basic_string@DU?$char_traits@D@std@@V?$allocator@D@2@@std@@V12@@std@@@google@@@google@@QAEAAV?$basic_string@DU?$char_traits@D@std@@V?$allocator@D@2@@std@@ABV23@@Z 1001c2d0 f i PatchMW2LocalizedStrings.obj
 0001:0001b2f0       ?set_empty_key@?$dense_hash_map@V?$basic_string@DU?$char_traits@D@std@@V?$allocator@D@2@@std@@V12@V?$hash_compare@V?$basic_string@DU?$char_traits@D@std@@V?$allocator@D@2@@std@@U?$less@V?$basic_string@DU?$char_traits@D@std@@V?$allocator@D@2@@std@@@2@@stdext@@U?$equal_to@V?$basic_string@DU?$char_traits@D@std@@V?$allocator@D@2@@std@@@2@V?$libc_allocator_with_realloc@U?$pair@$$CBV?$basic_string@DU?$char_traits@D@std@@V?$allocator@D@2@@std@@V12@@std@@@google@@@google@@QAEXABV?$basic_string@DU?$char_traits@D@std@@V?$allocator@D@2@@std@@@Z 1001c2f0 f i PatchMW2LocalizedStrings.obj
 0001:0001b380       ??1?$pair@V?$basic_string@DU?$char_traits@D@std@@V?$allocator@D@2@@std@@V12@@std@@QAE@XZ 1001c380 f i PatchMW2LocalizedStrings.obj
 0001:0001b380       ??1?$pair@$$CBV?$basic_string@DU?$char_traits@D@std@@V?$allocator@D@2@@std@@V12@@std@@QAE@XZ 1001c380 f i PatchMW2LocalizedStrings.obj
 0001:0001b3a0       ??1?$_Pair_base@V?$basic_string@DU?$char_traits@D@std@@V?$allocator@D@2@@std@@V12@@std@@QAE@XZ 1001c3a0 f i PatchMW2LocalizedStrings.obj
 0001:0001b3a0       ??1?$_Pair_base@$$CBV?$basic_string@DU?$char_traits@D@std@@V?$allocator@D@2@@std@@V12@@std@@QAE@XZ 1001c3a0 f i PatchMW2LocalizedStrings.obj
 0001:0001b3f0       ?end@?$dense_hashtable@U?$pair@$$CBV?$basic_string@DU?$char_traits@D@std@@V?$allocator@D@2@@std@@V12@@std@@V?$basic_string@DU?$char_traits@D@std@@V?$allocator@D@2@@2@V?$hash_compare@V?$basic_string@DU?$char_traits@D@std@@V?$allocator@D@2@@std@@U?$less@V?$basic_string@DU?$char_traits@D@std@@V?$allocator@D@2@@std@@@2@@stdext@@USelectKey@?$dense_hash_map@V?$basic_string@DU?$char_traits@D@std@@V?$allocator@D@2@@std@@V12@V?$hash_compare@V?$basic_string@DU?$char_traits@D@std@@V?$allocator@D@2@@std@@U?$less@V?$basic_string@DU?$char_traits@D@std@@V?$allocator@D@2@@std@@@2@@stdext@@U?$equal_to@V?$basic_string@DU?$char_traits@D@std@@V?$allocator@D@2@@std@@@2@V?$libc_allocator_with_realloc@U?$pair@$$CBV?$basic_string@DU?$char_traits@D@std@@V?$allocator@D@2@@std@@V12@@std@@@google@@@google@@USetKey@78@U?$equal_to@V?$basic_string@DU?$char_traits@D@std@@V?$allocator@D@2@@std@@@2@V?$libc_allocator_with_realloc@U?$pair@$$CBV?$basic_string@DU?$char_traits@D@std@@V?$allocator@D@2@@std@@V12@@std@@@8@@google@@QBE?AU?$dense_hashtable_const_iterator@U?$pair@$$CBV?$basic_string@DU?$char_traits@D@std@@V?$allocator@D@2@@std@@V12@@std@@V?$basic_string@DU?$char_traits@D@std@@V?$allocator@D@2@@2@V?$hash_compare@V?$basic_string@DU?$char_traits@D@std@@V?$allocator@D@2@@std@@U?$less@V?$basic_string@DU?$char_traits@D@std@@V?$allocator@D@2@@std@@@2@@stdext@@USelectKey@?$dense_hash_map@V?$basic_string@DU?$char_traits@D@std@@V?$allocator@D@2@@std@@V12@V?$hash_compare@V?$basic_string@DU?$char_traits@D@std@@V?$allocator@D@2@@std@@U?$less@V?$basic_string@DU?$char_traits@D@std@@V?$allocator@D@2@@std@@@2@@stdext@@U?$equal_to@V?$basic_string@DU?$char_traits@D@std@@V?$allocator@D@2@@std@@@2@V?$libc_allocator_with_realloc@U?$pair@$$CBV?$basic_string@DU?$char_traits@D@std@@V?$allocator@D@2@@std@@V12@@std@@@google@@@google@@USetKey@78@U?$equal_to@V?$basic_string@DU?$char_traits@D@std@@V?$allocator@D@2@@std@@@2@V?$libc_allocator_with_realloc@U?$pair@$$CBV?$basic_string@DU?$char_traits@D@std@@V?$allocator@D@2@@std@@V12@@std@@@8@@2@XZ 1001c3f0 f i PatchMW2LocalizedStrings.obj
 0001:0001b3f0       ?end@?$dense_hashtable@U?$pair@$$CBV?$basic_string@DU?$char_traits@D@std@@V?$allocator@D@2@@std@@V12@@std@@V?$basic_string@DU?$char_traits@D@std@@V?$allocator@D@2@@2@V?$hash_compare@V?$basic_string@DU?$char_traits@D@std@@V?$allocator@D@2@@std@@U?$less@V?$basic_string@DU?$char_traits@D@std@@V?$allocator@D@2@@std@@@2@@stdext@@USelectKey@?$dense_hash_map@V?$basic_string@DU?$char_traits@D@std@@V?$allocator@D@2@@std@@V12@V?$hash_compare@V?$basic_string@DU?$char_traits@D@std@@V?$allocator@D@2@@std@@U?$less@V?$basic_string@DU?$char_traits@D@std@@V?$allocator@D@2@@std@@@2@@stdext@@U?$equal_to@V?$basic_string@DU?$char_traits@D@std@@V?$allocator@D@2@@std@@@2@V?$libc_allocator_with_realloc@U?$pair@$$CBV?$basic_string@DU?$char_traits@D@std@@V?$allocator@D@2@@std@@V12@@std@@@google@@@google@@USetKey@78@U?$equal_to@V?$basic_string@DU?$char_traits@D@std@@V?$allocator@D@2@@std@@@2@V?$libc_allocator_with_realloc@U?$pair@$$CBV?$basic_string@DU?$char_traits@D@std@@V?$allocator@D@2@@std@@V12@@std@@@8@@google@@QAE?AU?$dense_hashtable_iterator@U?$pair@$$CBV?$basic_string@DU?$char_traits@D@std@@V?$allocator@D@2@@std@@V12@@std@@V?$basic_string@DU?$char_traits@D@std@@V?$allocator@D@2@@2@V?$hash_compare@V?$basic_string@DU?$char_traits@D@std@@V?$allocator@D@2@@std@@U?$less@V?$basic_string@DU?$char_traits@D@std@@V?$allocator@D@2@@std@@@2@@stdext@@USelectKey@?$dense_hash_map@V?$basic_string@DU?$char_traits@D@std@@V?$allocator@D@2@@std@@V12@V?$hash_compare@V?$basic_string@DU?$char_traits@D@std@@V?$allocator@D@2@@std@@U?$less@V?$basic_string@DU?$char_traits@D@std@@V?$allocator@D@2@@std@@@2@@stdext@@U?$equal_to@V?$basic_string@DU?$char_traits@D@std@@V?$allocator@D@2@@std@@@2@V?$libc_allocator_with_realloc@U?$pair@$$CBV?$basic_string@DU?$char_traits@D@std@@V?$allocator@D@2@@std@@V12@@std@@@google@@@google@@USetKey@78@U?$equal_to@V?$basic_string@DU?$char_traits@D@std@@V?$allocator@D@2@@std@@@2@V?$libc_allocator_with_realloc@U?$pair@$$CBV?$basic_string@DU?$char_traits@D@std@@V?$allocator@D@2@@std@@V12@@std@@@8@@2@XZ 1001c3f0 f i PatchMW2LocalizedStrings.obj
 0001:0001b440       ?set_empty_key@?$dense_hashtable@U?$pair@$$CBV?$basic_string@DU?$char_traits@D@std@@V?$allocator@D@2@@std@@V12@@std@@V?$basic_string@DU?$char_traits@D@std@@V?$allocator@D@2@@2@V?$hash_compare@V?$basic_string@DU?$char_traits@D@std@@V?$allocator@D@2@@std@@U?$less@V?$basic_string@DU?$char_traits@D@std@@V?$allocator@D@2@@std@@@2@@stdext@@USelectKey@?$dense_hash_map@V?$basic_string@DU?$char_traits@D@std@@V?$allocator@D@2@@std@@V12@V?$hash_compare@V?$basic_string@DU?$char_traits@D@std@@V?$allocator@D@2@@std@@U?$less@V?$basic_string@DU?$char_traits@D@std@@V?$allocator@D@2@@std@@@2@@stdext@@U?$equal_to@V?$basic_string@DU?$char_traits@D@std@@V?$allocator@D@2@@std@@@2@V?$libc_allocator_with_realloc@U?$pair@$$CBV?$basic_string@DU?$char_traits@D@std@@V?$allocator@D@2@@std@@V12@@std@@@google@@@google@@USetKey@78@U?$equal_to@V?$basic_string@DU?$char_traits@D@std@@V?$allocator@D@2@@std@@@2@V?$libc_allocator_with_realloc@U?$pair@$$CBV?$basic_string@DU?$char_traits@D@std@@V?$allocator@D@2@@std@@V12@@std@@@8@@google@@QAEXABU?$pair@$$CBV?$basic_string@DU?$char_traits@D@std@@V?$allocator@D@2@@std@@V12@@std@@@Z 1001c440 f i PatchMW2LocalizedStrings.obj
 0001:0001b4b0       ?find@?$dense_hashtable@U?$pair@$$CBV?$basic_string@DU?$char_traits@D@std@@V?$allocator@D@2@@std@@V12@@std@@V?$basic_string@DU?$char_traits@D@std@@V?$allocator@D@2@@2@V?$hash_compare@V?$basic_string@DU?$char_traits@D@std@@V?$allocator@D@2@@std@@U?$less@V?$basic_string@DU?$char_traits@D@std@@V?$allocator@D@2@@std@@@2@@stdext@@USelectKey@?$dense_hash_map@V?$basic_string@DU?$char_traits@D@std@@V?$allocator@D@2@@std@@V12@V?$hash_compare@V?$basic_string@DU?$char_traits@D@std@@V?$allocator@D@2@@std@@U?$less@V?$basic_string@DU?$char_traits@D@std@@V?$allocator@D@2@@std@@@2@@stdext@@U?$equal_to@V?$basic_string@DU?$char_traits@D@std@@V?$allocator@D@2@@std@@@2@V?$libc_allocator_with_realloc@U?$pair@$$CBV?$basic_string@DU?$char_traits@D@std@@V?$allocator@D@2@@std@@V12@@std@@@google@@@google@@USetKey@78@U?$equal_to@V?$basic_string@DU?$char_traits@D@std@@V?$allocator@D@2@@std@@@2@V?$libc_allocator_with_realloc@U?$pair@$$CBV?$basic_string@DU?$char_traits@D@std@@V?$allocator@D@2@@std@@V12@@std@@@8@@google@@QAE?AU?$dense_hashtable_iterator@U?$pair@$$CBV?$basic_string@DU?$char_traits@D@std@@V?$allocator@D@2@@std@@V12@@std@@V?$basic_string@DU?$char_traits@D@std@@V?$allocator@D@2@@2@V?$hash_compare@V?$basic_string@DU?$char_traits@D@std@@V?$allocator@D@2@@std@@U?$less@V?$basic_string@DU?$char_traits@D@std@@V?$allocator@D@2@@std@@@2@@stdext@@USelectKey@?$dense_hash_map@V?$basic_string@DU?$char_traits@D@std@@V?$allocator@D@2@@std@@V12@V?$hash_compare@V?$basic_string@DU?$char_traits@D@std@@V?$allocator@D@2@@std@@U?$less@V?$basic_string@DU?$char_traits@D@std@@V?$allocator@D@2@@std@@@2@@stdext@@U?$equal_to@V?$basic_string@DU?$char_traits@D@std@@V?$allocator@D@2@@std@@@2@V?$libc_allocator_with_realloc@U?$pair@$$CBV?$basic_string@DU?$char_traits@D@std@@V?$allocator@D@2@@std@@V12@@std@@@google@@@google@@USetKey@78@U?$equal_to@V?$basic_string@DU?$char_traits@D@std@@V?$allocator@D@2@@std@@@2@V?$libc_allocator_with_realloc@U?$pair@$$CBV?$basic_string@DU?$char_traits@D@std@@V?$allocator@D@2@@std@@V12@@std@@@8@@2@ABV?$basic_string@DU?$char_traits@D@std@@V?$allocator@D@2@@std@@@Z 1001c4b0 f i PatchMW2LocalizedStrings.obj
 0001:0001b540       ??0?$pair@$$CBV?$basic_string@DU?$char_traits@D@std@@V?$allocator@D@2@@std@@V12@@std@@QAE@ABV?$basic_string@DU?$char_traits@D@std@@V?$allocator@D@2@@1@$$QAV21@@Z 1001c540 f i PatchMW2LocalizedStrings.obj
 0001:0001b570       ?set_value@?$dense_hashtable@U?$pair@$$CBV?$basic_string@DU?$char_traits@D@std@@V?$allocator@D@2@@std@@V12@@std@@V?$basic_string@DU?$char_traits@D@std@@V?$allocator@D@2@@2@V?$hash_compare@V?$basic_string@DU?$char_traits@D@std@@V?$allocator@D@2@@std@@U?$less@V?$basic_string@DU?$char_traits@D@std@@V?$allocator@D@2@@std@@@2@@stdext@@USelectKey@?$dense_hash_map@V?$basic_string@DU?$char_traits@D@std@@V?$allocator@D@2@@std@@V12@V?$hash_compare@V?$basic_string@DU?$char_traits@D@std@@V?$allocator@D@2@@std@@U?$less@V?$basic_string@DU?$char_traits@D@std@@V?$allocator@D@2@@std@@@2@@stdext@@U?$equal_to@V?$basic_string@DU?$char_traits@D@std@@V?$allocator@D@2@@std@@@2@V?$libc_allocator_with_realloc@U?$pair@$$CBV?$basic_string@DU?$char_traits@D@std@@V?$allocator@D@2@@std@@V12@@std@@@google@@@google@@USetKey@78@U?$equal_to@V?$basic_string@DU?$char_traits@D@std@@V?$allocator@D@2@@std@@@2@V?$libc_allocator_with_realloc@U?$pair@$$CBV?$basic_string@DU?$char_traits@D@std@@V?$allocator@D@2@@std@@V12@@std@@@8@@google@@AAEXPAU?$pair@$$CBV?$basic_string@DU?$char_traits@D@std@@V?$allocator@D@2@@std@@V12@@std@@ABU34@@Z 1001c570 f i PatchMW2LocalizedStrings.obj
 0001:0001b5f0       ??_G?$pair@$$CBV?$basic_string@DU?$char_traits@D@std@@V?$allocator@D@2@@std@@V12@@std@@QAEPAXI@Z 1001c5f0 f i PatchMW2LocalizedStrings.obj
 0001:0001b620       ?fill_range_with_empty@?$dense_hashtable@U?$pair@$$CBV?$basic_string@DU?$char_traits@D@std@@V?$allocator@D@2@@std@@V12@@std@@V?$basic_string@DU?$char_traits@D@std@@V?$allocator@D@2@@2@V?$hash_compare@V?$basic_string@DU?$char_traits@D@std@@V?$allocator@D@2@@std@@U?$less@V?$basic_string@DU?$char_traits@D@std@@V?$allocator@D@2@@std@@@2@@stdext@@USelectKey@?$dense_hash_map@V?$basic_string@DU?$char_traits@D@std@@V?$allocator@D@2@@std@@V12@V?$hash_compare@V?$basic_string@DU?$char_traits@D@std@@V?$allocator@D@2@@std@@U?$less@V?$basic_string@DU?$char_traits@D@std@@V?$allocator@D@2@@std@@@2@@stdext@@U?$equal_to@V?$basic_string@DU?$char_traits@D@std@@V?$allocator@D@2@@std@@@2@V?$libc_allocator_with_realloc@U?$pair@$$CBV?$basic_string@DU?$char_traits@D@std@@V?$allocator@D@2@@std@@V12@@std@@@google@@@google@@USetKey@78@U?$equal_to@V?$basic_string@DU?$char_traits@D@std@@V?$allocator@D@2@@std@@@2@V?$libc_allocator_with_realloc@U?$pair@$$CBV?$basic_string@DU?$char_traits@D@std@@V?$allocator@D@2@@std@@V12@@std@@@8@@google@@AAEXPAU?$pair@$$CBV?$basic_string@DU?$char_traits@D@std@@V?$allocator@D@2@@std@@V12@@std@@0@Z 1001c620 f i PatchMW2LocalizedStrings.obj
 0001:0001b650       ?find_position@?$dense_hashtable@U?$pair@$$CBV?$basic_string@DU?$char_traits@D@std@@V?$allocator@D@2@@std@@V12@@std@@V?$basic_string@DU?$char_traits@D@std@@V?$allocator@D@2@@2@V?$hash_compare@V?$basic_string@DU?$char_traits@D@std@@V?$allocator@D@2@@std@@U?$less@V?$basic_string@DU?$char_traits@D@std@@V?$allocator@D@2@@std@@@2@@stdext@@USelectKey@?$dense_hash_map@V?$basic_string@DU?$char_traits@D@std@@V?$allocator@D@2@@std@@V12@V?$hash_compare@V?$basic_string@DU?$char_traits@D@std@@V?$allocator@D@2@@std@@U?$less@V?$basic_string@DU?$char_traits@D@std@@V?$allocator@D@2@@std@@@2@@stdext@@U?$equal_to@V?$basic_string@DU?$char_traits@D@std@@V?$allocator@D@2@@std@@@2@V?$libc_allocator_with_realloc@U?$pair@$$CBV?$basic_string@DU?$char_traits@D@std@@V?$allocator@D@2@@std@@V12@@std@@@google@@@google@@USetKey@78@U?$equal_to@V?$basic_string@DU?$char_traits@D@std@@V?$allocator@D@2@@std@@@2@V?$libc_allocator_with_realloc@U?$pair@$$CBV?$basic_string@DU?$char_traits@D@std@@V?$allocator@D@2@@std@@V12@@std@@@8@@google@@ABE?AU?$pair@II@std@@ABV?$basic_string@DU?$char_traits@D@std@@V?$allocator@D@2@@4@@Z 1001c650 f i PatchMW2LocalizedStrings.obj
 0001:0001b770       ?bucket_count@?$dense_hashtable@U?$pair@$$CBV?$basic_string@DU?$char_traits@D@std@@V?$allocator@D@2@@std@@V12@@std@@V?$basic_string@DU?$char_traits@D@std@@V?$allocator@D@2@@2@V?$hash_compare@V?$basic_string@DU?$char_traits@D@std@@V?$allocator@D@2@@std@@U?$less@V?$basic_string@DU?$char_traits@D@std@@V?$allocator@D@2@@std@@@2@@stdext@@USelectKey@?$dense_hash_map@V?$basic_string@DU?$char_traits@D@std@@V?$allocator@D@2@@std@@V12@V?$hash_compare@V?$basic_string@DU?$char_traits@D@std@@V?$allocator@D@2@@std@@U?$less@V?$basic_string@DU?$char_traits@D@std@@V?$allocator@D@2@@std@@@2@@stdext@@U?$equal_to@V?$basic_string@DU?$char_traits@D@std@@V?$allocator@D@2@@std@@@2@V?$libc_allocator_with_realloc@U?$pair@$$CBV?$basic_string@DU?$char_traits@D@std@@V?$allocator@D@2@@std@@V12@@std@@@google@@@google@@USetKey@78@U?$equal_to@V?$basic_string@DU?$char_traits@D@std@@V?$allocator@D@2@@std@@@2@V?$libc_allocator_with_realloc@U?$pair@$$CBV?$basic_string@DU?$char_traits@D@std@@V?$allocator@D@2@@std@@V12@@std@@@8@@google@@QBEIXZ 1001c770 f i PatchMW2LocalizedStrings.obj
 0001:0001b770       ?bucket_count@?$dense_hashtable@U?$pair@$$CBV?$basic_string@DU?$char_traits@D@std@@V?$allocator@D@2@@std@@PAUXModel@@@std@@V?$basic_string@DU?$char_traits@D@std@@V?$allocator@D@2@@2@V?$hash_compare@V?$basic_string@DU?$char_traits@D@std@@V?$allocator@D@2@@std@@U?$less@V?$basic_string@DU?$char_traits@D@std@@V?$allocator@D@2@@std@@@2@@stdext@@USelectKey@?$dense_hash_map@V?$basic_string@DU?$char_traits@D@std@@V?$allocator@D@2@@std@@PAUXModel@@V?$hash_compare@V?$basic_string@DU?$char_traits@D@std@@V?$allocator@D@2@@std@@U?$less@V?$basic_string@DU?$char_traits@D@std@@V?$allocator@D@2@@std@@@2@@stdext@@U?$equal_to@V?$basic_string@DU?$char_traits@D@std@@V?$allocator@D@2@@std@@@2@V?$libc_allocator_with_realloc@U?$pair@$$CBV?$basic_string@DU?$char_traits@D@std@@V?$allocator@D@2@@std@@PAUXModel@@@std@@@google@@@google@@USetKey@78@U?$equal_to@V?$basic_string@DU?$char_traits@D@std@@V?$allocator@D@2@@std@@@2@V?$libc_allocator_with_realloc@U?$pair@$$CBV?$basic_string@DU?$char_traits@D@std@@V?$allocator@D@2@@std@@PAUXModel@@@std@@@8@@google@@QBEIXZ 1001c770 f i PatchMW2WeaponCamos.obj
 0001:0001b770       ?bucket_count@?$dense_hashtable@U?$pair@$$CBV?$basic_string@DU?$char_traits@D@std@@V?$allocator@D@2@@std@@PAUMaterial@@@std@@V?$basic_string@DU?$char_traits@D@std@@V?$allocator@D@2@@2@V?$hash_compare@V?$basic_string@DU?$char_traits@D@std@@V?$allocator@D@2@@std@@U?$less@V?$basic_string@DU?$char_traits@D@std@@V?$allocator@D@2@@std@@@2@@stdext@@USelectKey@?$dense_hash_map@V?$basic_string@DU?$char_traits@D@std@@V?$allocator@D@2@@std@@PAUMaterial@@V?$hash_compare@V?$basic_string@DU?$char_traits@D@std@@V?$allocator@D@2@@std@@U?$less@V?$basic_string@DU?$char_traits@D@std@@V?$allocator@D@2@@std@@@2@@stdext@@U?$equal_to@V?$basic_string@DU?$char_traits@D@std@@V?$allocator@D@2@@std@@@2@V?$libc_allocator_with_realloc@U?$pair@$$CBV?$basic_string@DU?$char_traits@D@std@@V?$allocator@D@2@@std@@PAUMaterial@@@std@@@google@@@google@@USetKey@78@U?$equal_to@V?$basic_string@DU?$char_traits@D@std@@V?$allocator@D@2@@std@@@2@V?$libc_allocator_with_realloc@U?$pair@$$CBV?$basic_string@DU?$char_traits@D@std@@V?$allocator@D@2@@std@@PAUMaterial@@@std@@@8@@google@@QBEIXZ 1001c770 f i PatchMW2Materialism.obj
 0001:0001b770       ?bucket_count@?$dense_hashtable@U?$pair@$$CBV?$basic_string@DU?$char_traits@D@std@@V?$allocator@D@2@@std@@PAUstringTable_s@@@std@@V?$basic_string@DU?$char_traits@D@std@@V?$allocator@D@2@@2@V?$hash_compare@V?$basic_string@DU?$char_traits@D@std@@V?$allocator@D@2@@std@@U?$less@V?$basic_string@DU?$char_traits@D@std@@V?$allocator@D@2@@std@@@2@@stdext@@USelectKey@?$dense_hash_map@V?$basic_string@DU?$char_traits@D@std@@V?$allocator@D@2@@std@@PAUstringTable_s@@V?$hash_compare@V?$basic_string@DU?$char_traits@D@std@@V?$allocator@D@2@@std@@U?$less@V?$basic_string@DU?$char_traits@D@std@@V?$allocator@D@2@@std@@@2@@stdext@@U?$equal_to@V?$basic_string@DU?$char_traits@D@std@@V?$allocator@D@2@@std@@@2@V?$libc_allocator_with_realloc@U?$pair@$$CBV?$basic_string@DU?$char_traits@D@std@@V?$allocator@D@2@@std@@PAUstringTable_s@@@std@@@google@@@google@@USetKey@78@U?$equal_to@V?$basic_string@DU?$char_traits@D@std@@V?$allocator@D@2@@std@@@2@V?$libc_allocator_with_realloc@U?$pair@$$CBV?$basic_string@DU?$char_traits@D@std@@V?$allocator@D@2@@std@@PAUstringTable_s@@@std@@@8@@google@@QBEIXZ 1001c770 f i PatchMW2StringTable.obj
 0001:0001b770       ?bucket_count@?$dense_hashtable@U?$pair@$$CBV?$basic_string@DU?$char_traits@D@std@@V?$allocator@D@2@@std@@G@std@@V?$basic_string@DU?$char_traits@D@std@@V?$allocator@D@2@@2@V?$hash_compare@V?$basic_string@DU?$char_traits@D@std@@V?$allocator@D@2@@std@@U?$less@V?$basic_string@DU?$char_traits@D@std@@V?$allocator@D@2@@std@@@2@@stdext@@USelectKey@?$dense_hash_map@V?$basic_string@DU?$char_traits@D@std@@V?$allocator@D@2@@std@@GV?$hash_compare@V?$basic_string@DU?$char_traits@D@std@@V?$allocator@D@2@@std@@U?$less@V?$basic_string@DU?$char_traits@D@std@@V?$allocator@D@2@@std@@@2@@stdext@@U?$equal_to@V?$basic_string@DU?$char_traits@D@std@@V?$allocator@D@2@@std@@@2@V?$libc_allocator_with_realloc@U?$pair@$$CBV?$basic_string@DU?$char_traits@D@std@@V?$allocator@D@2@@std@@G@std@@@google@@@google@@USetKey@78@U?$equal_to@V?$basic_string@DU?$char_traits@D@std@@V?$allocator@D@2@@std@@@2@V?$libc_allocator_with_realloc@U?$pair@$$CBV?$basic_string@DU?$char_traits@D@std@@V?$allocator@D@2@@std@@G@std@@@8@@google@@QBEIXZ 1001c770 f i PatchMW2StringList.obj
 0001:0001b790       ?allocate@?$libc_allocator_with_realloc@U?$pair@$$CBV?$basic_string@DU?$char_traits@D@std@@V?$allocator@D@2@@std@@V12@@std@@@google@@QAEPAU?$pair@$$CBV?$basic_string@DU?$char_traits@D@std@@V?$allocator@D@2@@std@@V12@@std@@IPBU34@@Z 1001c790 f i PatchMW2LocalizedStrings.obj
 0001:0001b7b0       ??0?$_Pair_base@$$CBV?$basic_string@DU?$char_traits@D@std@@V?$allocator@D@2@@std@@V12@@std@@QAE@ABV?$basic_string@DU?$char_traits@D@std@@V?$allocator@D@2@@1@$$QAV21@@Z 1001c7b0 f i PatchMW2LocalizedStrings.obj
 0001:0001b820       ??0?$pair@$$CBV?$basic_string@DU?$char_traits@D@std@@V?$allocator@D@2@@std@@V12@@std@@QAE@ABU01@@Z 1001c820 f i PatchMW2LocalizedStrings.obj
 0001:0001b840       ?test_deleted@?$dense_hashtable@U?$pair@$$CBV?$basic_string@DU?$char_traits@D@std@@V?$allocator@D@2@@std@@V12@@std@@V?$basic_string@DU?$char_traits@D@std@@V?$allocator@D@2@@2@V?$hash_compare@V?$basic_string@DU?$char_traits@D@std@@V?$allocator@D@2@@std@@U?$less@V?$basic_string@DU?$char_traits@D@std@@V?$allocator@D@2@@std@@@2@@stdext@@USelectKey@?$dense_hash_map@V?$basic_string@DU?$char_traits@D@std@@V?$allocator@D@2@@std@@V12@V?$hash_compare@V?$basic_string@DU?$char_traits@D@std@@V?$allocator@D@2@@std@@U?$less@V?$basic_string@DU?$char_traits@D@std@@V?$allocator@D@2@@std@@@2@@stdext@@U?$equal_to@V?$basic_string@DU?$char_traits@D@std@@V?$allocator@D@2@@std@@@2@V?$libc_allocator_with_realloc@U?$pair@$$CBV?$basic_string@DU?$char_traits@D@std@@V?$allocator@D@2@@std@@V12@@std@@@google@@@google@@USetKey@78@U?$equal_to@V?$basic_string@DU?$char_traits@D@std@@V?$allocator@D@2@@std@@@2@V?$libc_allocator_with_realloc@U?$pair@$$CBV?$basic_string@DU?$char_traits@D@std@@V?$allocator@D@2@@std@@V12@@std@@@8@@google@@QBE_NI@Z 1001c840 f i PatchMW2LocalizedStrings.obj
 0001:0001b870       ?test_empty@?$dense_hashtable@U?$pair@$$CBV?$basic_string@DU?$char_traits@D@std@@V?$allocator@D@2@@std@@V12@@std@@V?$basic_string@DU?$char_traits@D@std@@V?$allocator@D@2@@2@V?$hash_compare@V?$basic_string@DU?$char_traits@D@std@@V?$allocator@D@2@@std@@U?$less@V?$basic_string@DU?$char_traits@D@std@@V?$allocator@D@2@@std@@@2@@stdext@@USelectKey@?$dense_hash_map@V?$basic_string@DU?$char_traits@D@std@@V?$allocator@D@2@@std@@V12@V?$hash_compare@V?$basic_string@DU?$char_traits@D@std@@V?$allocator@D@2@@std@@U?$less@V?$basic_string@DU?$char_traits@D@std@@V?$allocator@D@2@@std@@@2@@stdext@@U?$equal_to@V?$basic_string@DU?$char_traits@D@std@@V?$allocator@D@2@@std@@@2@V?$libc_allocator_with_realloc@U?$pair@$$CBV?$basic_string@DU?$char_traits@D@std@@V?$allocator@D@2@@std@@V12@@std@@@google@@@google@@USetKey@78@U?$equal_to@V?$basic_string@DU?$char_traits@D@std@@V?$allocator@D@2@@std@@@2@V?$libc_allocator_with_realloc@U?$pair@$$CBV?$basic_string@DU?$char_traits@D@std@@V?$allocator@D@2@@std@@V12@@std@@@8@@google@@QBE_NI@Z 1001c870 f i PatchMW2LocalizedStrings.obj
 0001:0001b8b0       ??0?$_Pair_base@$$CBV?$basic_string@DU?$char_traits@D@std@@V?$allocator@D@2@@std@@V12@@std@@QAE@ABU01@@Z 1001c8b0 f i PatchMW2LocalizedStrings.obj
 0001:0001b910       ?hash@?$sh_hashtable_settings@V?$basic_string@DU?$char_traits@D@std@@V?$allocator@D@2@@std@@V?$hash_compare@V?$basic_string@DU?$char_traits@D@std@@V?$allocator@D@2@@std@@U?$less@V?$basic_string@DU?$char_traits@D@std@@V?$allocator@D@2@@std@@@2@@stdext@@I$03@@QBEIABV?$basic_string@DU?$char_traits@D@std@@V?$allocator@D@2@@std@@@Z 1001c910 f i PatchMW2LocalizedStrings.obj
 0001:0001b930       ??R?$hash_compare@V?$basic_string@DU?$char_traits@D@std@@V?$allocator@D@2@@std@@U?$less@V?$basic_string@DU?$char_traits@D@std@@V?$allocator@D@2@@std@@@2@@stdext@@QBEIABV?$basic_string@DU?$char_traits@D@std@@V?$allocator@D@2@@std@@@Z 1001c930 f i PatchMW2LocalizedStrings.obj
 0001:0001b9a0       ??$find_or_insert@UDefaultValue@?$dense_hash_map@V?$basic_string@DU?$char_traits@D@std@@V?$allocator@D@2@@std@@V12@V?$hash_compare@V?$basic_string@DU?$char_traits@D@std@@V?$allocator@D@2@@std@@U?$less@V?$basic_string@DU?$char_traits@D@std@@V?$allocator@D@2@@std@@@2@@stdext@@U?$equal_to@V?$basic_string@DU?$char_traits@D@std@@V?$allocator@D@2@@std@@@2@V?$libc_allocator_with_realloc@U?$pair@$$CBV?$basic_string@DU?$char_traits@D@std@@V?$allocator@D@2@@std@@V12@@std@@@google@@@google@@@?$dense_hashtable@U?$pair@$$CBV?$basic_string@DU?$char_traits@D@std@@V?$allocator@D@2@@std@@V12@@std@@V?$basic_string@DU?$char_traits@D@std@@V?$allocator@D@2@@2@V?$hash_compare@V?$basic_string@DU?$char_traits@D@std@@V?$allocator@D@2@@std@@U?$less@V?$basic_string@DU?$char_traits@D@std@@V?$allocator@D@2@@std@@@2@@stdext@@USelectKey@?$dense_hash_map@V?$basic_string@DU?$char_traits@D@std@@V?$allocator@D@2@@std@@V12@V?$hash_compare@V?$basic_string@DU?$char_traits@D@std@@V?$allocator@D@2@@std@@U?$less@V?$basic_string@DU?$char_traits@D@std@@V?$allocator@D@2@@std@@@2@@stdext@@U?$equal_to@V?$basic_string@DU?$char_traits@D@std@@V?$allocator@D@2@@std@@@2@V?$libc_allocator_with_realloc@U?$pair@$$CBV?$basic_string@DU?$char_traits@D@std@@V?$allocator@D@2@@std@@V12@@std@@@google@@@google@@USetKey@78@U?$equal_to@V?$basic_string@DU?$char_traits@D@std@@V?$allocator@D@2@@std@@@2@V?$libc_allocator_with_realloc@U?$pair@$$CBV?$basic_string@DU?$char_traits@D@std@@V?$allocator@D@2@@std@@V12@@std@@@8@@google@@QAEAAU?$pair@$$CBV?$basic_string@DU?$char_traits@D@std@@V?$allocator@D@2@@std@@V12@@std@@ABV?$basic_string@DU?$char_traits@D@std@@V?$allocator@D@2@@3@@Z 1001c9a0 f i PatchMW2LocalizedStrings.obj
 0001:0001baf0       ??$uninitialized_fill@PAU?$pair@$$CBV?$basic_string@DU?$char_traits@D@std@@V?$allocator@D@2@@std@@V12@@std@@U12@@std@@YAXPAU?$pair@$$CBV?$basic_string@DU?$char_traits@D@std@@V?$allocator@D@2@@std@@V12@@0@0ABU10@@Z 1001caf0 f i PatchMW2LocalizedStrings.obj
 0001:0001bb30       ??$hash_value@DU?$char_traits@D@std@@V?$allocator@D@2@@stdext@@YAIABV?$basic_string@DU?$char_traits@D@std@@V?$allocator@D@2@@std@@@Z 1001cb30 f i PatchMW2LocalizedStrings.obj
 0001:0001bb60       ?resize_delta@?$dense_hashtable@U?$pair@$$CBV?$basic_string@DU?$char_traits@D@std@@V?$allocator@D@2@@std@@V12@@std@@V?$basic_string@DU?$char_traits@D@std@@V?$allocator@D@2@@2@V?$hash_compare@V?$basic_string@DU?$char_traits@D@std@@V?$allocator@D@2@@std@@U?$less@V?$basic_string@DU?$char_traits@D@std@@V?$allocator@D@2@@std@@@2@@stdext@@USelectKey@?$dense_hash_map@V?$basic_string@DU?$char_traits@D@std@@V?$allocator@D@2@@std@@V12@V?$hash_compare@V?$basic_string@DU?$char_traits@D@std@@V?$allocator@D@2@@std@@U?$less@V?$basic_string@DU?$char_traits@D@std@@V?$allocator@D@2@@std@@@2@@stdext@@U?$equal_to@V?$basic_string@DU?$char_traits@D@std@@V?$allocator@D@2@@std@@@2@V?$libc_allocator_with_realloc@U?$pair@$$CBV?$basic_string@DU?$char_traits@D@std@@V?$allocator@D@2@@std@@V12@@std@@@google@@@google@@USetKey@78@U?$equal_to@V?$basic_string@DU?$char_traits@D@std@@V?$allocator@D@2@@std@@@2@V?$libc_allocator_with_realloc@U?$pair@$$CBV?$basic_string@DU?$char_traits@D@std@@V?$allocator@D@2@@std@@V12@@std@@@8@@google@@AAE_NI@Z 1001cb60 f i PatchMW2LocalizedStrings.obj
 0001:0001bd50       ??1?$dense_hashtable@U?$pair@$$CBV?$basic_string@DU?$char_traits@D@std@@V?$allocator@D@2@@std@@V12@@std@@V?$basic_string@DU?$char_traits@D@std@@V?$allocator@D@2@@2@V?$hash_compare@V?$basic_string@DU?$char_traits@D@std@@V?$allocator@D@2@@std@@U?$less@V?$basic_string@DU?$char_traits@D@std@@V?$allocator@D@2@@std@@@2@@stdext@@USelectKey@?$dense_hash_map@V?$basic_string@DU?$char_traits@D@std@@V?$allocator@D@2@@std@@V12@V?$hash_compare@V?$basic_string@DU?$char_traits@D@std@@V?$allocator@D@2@@std@@U?$less@V?$basic_string@DU?$char_traits@D@std@@V?$allocator@D@2@@std@@@2@@stdext@@U?$equal_to@V?$basic_string@DU?$char_traits@D@std@@V?$allocator@D@2@@std@@@2@V?$libc_allocator_with_realloc@U?$pair@$$CBV?$basic_string@DU?$char_traits@D@std@@V?$allocator@D@2@@std@@V12@@std@@@google@@@google@@USetKey@78@U?$equal_to@V?$basic_string@DU?$char_traits@D@std@@V?$allocator@D@2@@std@@@2@V?$libc_allocator_with_realloc@U?$pair@$$CBV?$basic_string@DU?$char_traits@D@std@@V?$allocator@D@2@@std@@V12@@std@@@8@@google@@QAE@XZ 1001cd50 f i PatchMW2LocalizedStrings.obj
 0001:0001bde0       ??1ValInfo@?$dense_hashtable@U?$pair@$$CBV?$basic_string@DU?$char_traits@D@std@@V?$allocator@D@2@@std@@V12@@std@@V?$basic_string@DU?$char_traits@D@std@@V?$allocator@D@2@@2@V?$hash_compare@V?$basic_string@DU?$char_traits@D@std@@V?$allocator@D@2@@std@@U?$less@V?$basic_string@DU?$char_traits@D@std@@V?$allocator@D@2@@std@@@2@@stdext@@USelectKey@?$dense_hash_map@V?$basic_string@DU?$char_traits@D@std@@V?$allocator@D@2@@std@@V12@V?$hash_compare@V?$basic_string@DU?$char_traits@D@std@@V?$allocator@D@2@@std@@U?$less@V?$basic_string@DU?$char_traits@D@std@@V?$allocator@D@2@@std@@@2@@stdext@@U?$equal_to@V?$basic_string@DU?$char_traits@D@std@@V?$allocator@D@2@@std@@@2@V?$libc_allocator_with_realloc@U?$pair@$$CBV?$basic_string@DU?$char_traits@D@std@@V?$allocator@D@2@@std@@V12@@std@@@google@@@google@@USetKey@78@U?$equal_to@V?$basic_string@DU?$char_traits@D@std@@V?$allocator@D@2@@std@@@2@V?$libc_allocator_with_realloc@U?$pair@$$CBV?$basic_string@DU?$char_traits@D@std@@V?$allocator@D@2@@std@@V12@@std@@@8@@google@@QAE@XZ 1001cde0 f i PatchMW2LocalizedStrings.obj
 0001:0001be30       ?destroy_buckets@?$dense_hashtable@U?$pair@$$CBV?$basic_string@DU?$char_traits@D@std@@V?$allocator@D@2@@std@@V12@@std@@V?$basic_string@DU?$char_traits@D@std@@V?$allocator@D@2@@2@V?$hash_compare@V?$basic_string@DU?$char_traits@D@std@@V?$allocator@D@2@@std@@U?$less@V?$basic_string@DU?$char_traits@D@std@@V?$allocator@D@2@@std@@@2@@stdext@@USelectKey@?$dense_hash_map@V?$basic_string@DU?$char_traits@D@std@@V?$allocator@D@2@@std@@V12@V?$hash_compare@V?$basic_string@DU?$char_traits@D@std@@V?$allocator@D@2@@std@@U?$less@V?$basic_string@DU?$char_traits@D@std@@V?$allocator@D@2@@std@@@2@@stdext@@U?$equal_to@V?$basic_string@DU?$char_traits@D@std@@V?$allocator@D@2@@std@@@2@V?$libc_allocator_with_realloc@U?$pair@$$CBV?$basic_string@DU?$char_traits@D@std@@V?$allocator@D@2@@std@@V12@@std@@@google@@@google@@USetKey@78@U?$equal_to@V?$basic_string@DU?$char_traits@D@std@@V?$allocator@D@2@@std@@@2@V?$libc_allocator_with_realloc@U?$pair@$$CBV?$basic_string@DU?$char_traits@D@std@@V?$allocator@D@2@@std@@V12@@std@@@8@@google@@AAEXII@Z 1001ce30 f i PatchMW2LocalizedStrings.obj
 0001:0001be70       ?deallocate@?$libc_allocator_with_realloc@U?$pair@$$CBKPAUCModelAllocData@@@std@@@google@@QAEXPAU?$pair@$$CBKPAUCModelAllocData@@@std@@I@Z 1001ce70 f i PatchMW2CModels.obj
 0001:0001be70       ?deallocate@?$libc_allocator_with_realloc@U?$pair@$$CBV?$basic_string@DU?$char_traits@D@std@@V?$allocator@D@2@@std@@PAUstringTable_s@@@std@@@google@@QAEXPAU?$pair@$$CBV?$basic_string@DU?$char_traits@D@std@@V?$allocator@D@2@@std@@PAUstringTable_s@@@std@@I@Z 1001ce70 f i PatchMW2StringTable.obj
 0001:0001be70       ?deallocate@?$libc_allocator_with_realloc@U?$pair@$$CBV?$basic_string@DU?$char_traits@D@std@@V?$allocator@D@2@@std@@G@std@@@google@@QAEXPAU?$pair@$$CBV?$basic_string@DU?$char_traits@D@std@@V?$allocator@D@2@@std@@G@std@@I@Z 1001ce70 f i PatchMW2StringList.obj
 0001:0001be70       ?deallocate@?$libc_allocator_with_realloc@U?$pair@$$CBV?$basic_string@DU?$char_traits@D@std@@V?$allocator@D@2@@std@@V12@@std@@@google@@QAEXPAU?$pair@$$CBV?$basic_string@DU?$char_traits@D@std@@V?$allocator@D@2@@std@@V12@@std@@I@Z 1001ce70 f i PatchMW2LocalizedStrings.obj
 0001:0001be70       ?deallocate@?$libc_allocator_with_realloc@U?$pair@$$CBV?$basic_string@DU?$char_traits@D@std@@V?$allocator@D@2@@std@@PAUXModel@@@std@@@google@@QAEXPAU?$pair@$$CBV?$basic_string@DU?$char_traits@D@std@@V?$allocator@D@2@@std@@PAUXModel@@@std@@I@Z 1001ce70 f i PatchMW2WeaponCamos.obj
 0001:0001be70       ?deallocate@?$libc_allocator_with_realloc@U?$pair@$$CBV?$basic_string@DU?$char_traits@D@std@@V?$allocator@D@2@@std@@PAUMaterial@@@std@@@google@@QAEXPAU?$pair@$$CBV?$basic_string@DU?$char_traits@D@std@@V?$allocator@D@2@@std@@PAUMaterial@@@std@@I@Z 1001ce70 f i PatchMW2Materialism.obj
 0001:0001be70       ?deallocate@?$libc_allocator_with_realloc@U?$pair@$$CBKPAX@std@@@google@@QAEXPAU?$pair@$$CBKPAX@std@@I@Z 1001ce70 f i PatchMW2CModels.obj
 0001:0001be90       ?min_buckets@?$sh_hashtable_settings@V?$basic_string@DU?$char_traits@D@std@@V?$allocator@D@2@@std@@V?$hash_compare@V?$basic_string@DU?$char_traits@D@std@@V?$allocator@D@2@@std@@U?$less@V?$basic_string@DU?$char_traits@D@std@@V?$allocator@D@2@@std@@@2@@stdext@@I$03@@QAEIII@Z 1001ce90 f i PatchMW2LocalizedStrings.obj
 0001:0001be90       ?min_buckets@?$sh_hashtable_settings@KV?$hash_compare@KU?$less@K@std@@@stdext@@I$03@@QAEIII@Z 1001ce90 f i PatchMW2CModels.obj
 0001:0001bf20       ?shrink_size@?$sh_hashtable_settings@KV?$hash_compare@KU?$less@K@std@@@stdext@@I$03@@QBEII@Z 1001cf20 f i PatchMW2CModels.obj
 0001:0001bf20       ?shrink_size@?$sh_hashtable_settings@V?$basic_string@DU?$char_traits@D@std@@V?$allocator@D@2@@std@@V?$hash_compare@V?$basic_string@DU?$char_traits@D@std@@V?$allocator@D@2@@std@@U?$less@V?$basic_string@DU?$char_traits@D@std@@V?$allocator@D@2@@std@@@2@@stdext@@I$03@@QBEII@Z 1001cf20 f i PatchMW2LocalizedStrings.obj
 0001:0001bf60       ?insert_at@?$dense_hashtable@U?$pair@$$CBV?$basic_string@DU?$char_traits@D@std@@V?$allocator@D@2@@std@@V12@@std@@V?$basic_string@DU?$char_traits@D@std@@V?$allocator@D@2@@2@V?$hash_compare@V?$basic_string@DU?$char_traits@D@std@@V?$allocator@D@2@@std@@U?$less@V?$basic_string@DU?$char_traits@D@std@@V?$allocator@D@2@@std@@@2@@stdext@@USelectKey@?$dense_hash_map@V?$basic_string@DU?$char_traits@D@std@@V?$allocator@D@2@@std@@V12@V?$hash_compare@V?$basic_string@DU?$char_traits@D@std@@V?$allocator@D@2@@std@@U?$less@V?$basic_string@DU?$char_traits@D@std@@V?$allocator@D@2@@std@@@2@@stdext@@U?$equal_to@V?$basic_string@DU?$char_traits@D@std@@V?$allocator@D@2@@std@@@2@V?$libc_allocator_with_realloc@U?$pair@$$CBV?$basic_string@DU?$char_traits@D@std@@V?$allocator@D@2@@std@@V12@@std@@@google@@@google@@USetKey@78@U?$equal_to@V?$basic_string@DU?$char_traits@D@std@@V?$allocator@D@2@@std@@@2@V?$libc_allocator_with_realloc@U?$pair@$$CBV?$basic_string@DU?$char_traits@D@std@@V?$allocator@D@2@@std@@V12@@std@@@8@@google@@AAE?AU?$dense_hashtable_iterator@U?$pair@$$CBV?$basic_string@DU?$char_traits@D@std@@V?$allocator@D@2@@std@@V12@@std@@V?$basic_string@DU?$char_traits@D@std@@V?$allocator@D@2@@2@V?$hash_compare@V?$basic_string@DU?$char_traits@D@std@@V?$allocator@D@2@@std@@U?$less@V?$basic_string@DU?$char_traits@D@std@@V?$allocator@D@2@@std@@@2@@stdext@@USelectKey@?$dense_hash_map@V?$basic_string@DU?$char_traits@D@std@@V?$allocator@D@2@@std@@V12@V?$hash_compare@V?$basic_string@DU?$char_traits@D@std@@V?$allocator@D@2@@std@@U?$less@V?$basic_string@DU?$char_traits@D@std@@V?$allocator@D@2@@std@@@2@@stdext@@U?$equal_to@V?$basic_string@DU?$char_traits@D@std@@V?$allocator@D@2@@std@@@2@V?$libc_allocator_with_realloc@U?$pair@$$CBV?$basic_string@DU?$char_traits@D@std@@V?$allocator@D@2@@std@@V12@@std@@@google@@@google@@USetKey@78@U?$equal_to@V?$basic_string@DU?$char_traits@D@std@@V?$allocator@D@2@@std@@@2@V?$libc_allocator_with_realloc@U?$pair@$$CBV?$basic_string@DU?$char_traits@D@std@@V?$allocator@D@2@@std@@V12@@std@@@8@@2@ABU?$pair@$$CBV?$basic_string@DU?$char_traits@D@std@@V?$allocator@D@2@@std@@V12@@std@@I@Z 1001cf60 f i PatchMW2LocalizedStrings.obj
 0001:0001c070       ?insert_noresize@?$dense_hashtable@U?$pair@$$CBV?$basic_string@DU?$char_traits@D@std@@V?$allocator@D@2@@std@@V12@@std@@V?$basic_string@DU?$char_traits@D@std@@V?$allocator@D@2@@2@V?$hash_compare@V?$basic_string@DU?$char_traits@D@std@@V?$allocator@D@2@@std@@U?$less@V?$basic_string@DU?$char_traits@D@std@@V?$allocator@D@2@@std@@@2@@stdext@@USelectKey@?$dense_hash_map@V?$basic_string@DU?$char_traits@D@std@@V?$allocator@D@2@@std@@V12@V?$hash_compare@V?$basic_string@DU?$char_traits@D@std@@V?$allocator@D@2@@std@@U?$less@V?$basic_string@DU?$char_traits@D@std@@V?$allocator@D@2@@std@@@2@@stdext@@U?$equal_to@V?$basic_string@DU?$char_traits@D@std@@V?$allocator@D@2@@std@@@2@V?$libc_allocator_with_realloc@U?$pair@$$CBV?$basic_string@DU?$char_traits@D@std@@V?$allocator@D@2@@std@@V12@@std@@@google@@@google@@USetKey@78@U?$equal_to@V?$basic_string@DU?$char_traits@D@std@@V?$allocator@D@2@@std@@@2@V?$libc_allocator_with_realloc@U?$pair@$$CBV?$basic_string@DU?$char_traits@D@std@@V?$allocator@D@2@@std@@V12@@std@@@8@@google@@AAE?AU?$pair@U?$dense_hashtable_iterator@U?$pair@$$CBV?$basic_string@DU?$char_traits@D@std@@V?$allocator@D@2@@std@@V12@@std@@V?$basic_string@DU?$char_traits@D@std@@V?$allocator@D@2@@2@V?$hash_compare@V?$basic_string@DU?$char_traits@D@std@@V?$allocator@D@2@@std@@U?$less@V?$basic_string@DU?$char_traits@D@std@@V?$allocator@D@2@@std@@@2@@stdext@@USelectKey@?$dense_hash_map@V?$basic_string@DU?$char_traits@D@std@@V?$allocator@D@2@@std@@V12@V?$hash_compare@V?$basic_string@DU?$char_traits@D@std@@V?$allocator@D@2@@std@@U?$less@V?$basic_string@DU?$char_traits@D@std@@V?$allocator@D@2@@std@@@2@@stdext@@U?$equal_to@V?$basic_string@DU?$char_traits@D@std@@V?$allocator@D@2@@std@@@2@V?$libc_allocator_with_realloc@U?$pair@$$CBV?$basic_string@DU?$char_traits@D@std@@V?$allocator@D@2@@std@@V12@@std@@@google@@@google@@USetKey@78@U?$equal_to@V?$basic_string@DU?$char_traits@D@std@@V?$allocator@D@2@@std@@@2@V?$libc_allocator_with_realloc@U?$pair@$$CBV?$basic_string@DU?$char_traits@D@std@@V?$allocator@D@2@@std@@V12@@std@@@8@@google@@_N@std@@ABU?$pair@$$CBV?$basic_string@DU?$char_traits@D@std@@V?$allocator@D@2@@std@@V12@@4@@Z 1001d070 f i PatchMW2LocalizedStrings.obj
 0001:0001c110       ??RDefaultValue@?$dense_hash_map@V?$basic_string@DU?$char_traits@D@std@@V?$allocator@D@2@@std@@V12@V?$hash_compare@V?$basic_string@DU?$char_traits@D@std@@V?$allocator@D@2@@std@@U?$less@V?$basic_string@DU?$char_traits@D@std@@V?$allocator@D@2@@std@@@2@@stdext@@U?$equal_to@V?$basic_string@DU?$char_traits@D@std@@V?$allocator@D@2@@std@@@2@V?$libc_allocator_with_realloc@U?$pair@$$CBV?$basic_string@DU?$char_traits@D@std@@V?$allocator@D@2@@std@@V12@@std@@@google@@@google@@QAE?AU?$pair@$$CBV?$basic_string@DU?$char_traits@D@std@@V?$allocator@D@2@@std@@V12@@std@@ABV?$basic_string@DU?$char_traits@D@std@@V?$allocator@D@2@@4@@Z 1001d110 f i PatchMW2LocalizedStrings.obj
 0001:0001c1b0       ?max_size@?$dense_hashtable@U?$pair@$$CBV?$basic_string@DU?$char_traits@D@std@@V?$allocator@D@2@@std@@V12@@std@@V?$basic_string@DU?$char_traits@D@std@@V?$allocator@D@2@@2@V?$hash_compare@V?$basic_string@DU?$char_traits@D@std@@V?$allocator@D@2@@std@@U?$less@V?$basic_string@DU?$char_traits@D@std@@V?$allocator@D@2@@std@@@2@@stdext@@USelectKey@?$dense_hash_map@V?$basic_string@DU?$char_traits@D@std@@V?$allocator@D@2@@std@@V12@V?$hash_compare@V?$basic_string@DU?$char_traits@D@std@@V?$allocator@D@2@@std@@U?$less@V?$basic_string@DU?$char_traits@D@std@@V?$allocator@D@2@@std@@@2@@stdext@@U?$equal_to@V?$basic_string@DU?$char_traits@D@std@@V?$allocator@D@2@@std@@@2@V?$libc_allocator_with_realloc@U?$pair@$$CBV?$basic_string@DU?$char_traits@D@std@@V?$allocator@D@2@@std@@V12@@std@@@google@@@google@@USetKey@78@U?$equal_to@V?$basic_string@DU?$char_traits@D@std@@V?$allocator@D@2@@std@@@2@V?$libc_allocator_with_realloc@U?$pair@$$CBV?$basic_string@DU?$char_traits@D@std@@V?$allocator@D@2@@std@@V12@@std@@@8@@google@@QBEIXZ 1001d1b0 f i PatchMW2LocalizedStrings.obj
 0001:0001c1d0       ?maybe_shrink@?$dense_hashtable@U?$pair@$$CBV?$basic_string@DU?$char_traits@D@std@@V?$allocator@D@2@@std@@V12@@std@@V?$basic_string@DU?$char_traits@D@std@@V?$allocator@D@2@@2@V?$hash_compare@V?$basic_string@DU?$char_traits@D@std@@V?$allocator@D@2@@std@@U?$less@V?$basic_string@DU?$char_traits@D@std@@V?$allocator@D@2@@std@@@2@@stdext@@USelectKey@?$dense_hash_map@V?$basic_string@DU?$char_traits@D@std@@V?$allocator@D@2@@std@@V12@V?$hash_compare@V?$basic_string@DU?$char_traits@D@std@@V?$allocator@D@2@@std@@U?$less@V?$basic_string@DU?$char_traits@D@std@@V?$allocator@D@2@@std@@@2@@stdext@@U?$equal_to@V?$basic_string@DU?$char_traits@D@std@@V?$allocator@D@2@@std@@@2@V?$libc_allocator_with_realloc@U?$pair@$$CBV?$basic_string@DU?$char_traits@D@std@@V?$allocator@D@2@@std@@V12@@std@@@google@@@google@@USetKey@78@U?$equal_to@V?$basic_string@DU?$char_traits@D@std@@V?$allocator@D@2@@std@@@2@V?$libc_allocator_with_realloc@U?$pair@$$CBV?$basic_string@DU?$char_traits@D@std@@V?$allocator@D@2@@std@@V12@@std@@@8@@google@@AAE_NXZ 1001d1d0 f i PatchMW2LocalizedStrings.obj
 0001:0001c330       ??0?$dense_hashtable@U?$pair@$$CBV?$basic_string@DU?$char_traits@D@std@@V?$allocator@D@2@@std@@V12@@std@@V?$basic_string@DU?$char_traits@D@std@@V?$allocator@D@2@@2@V?$hash_compare@V?$basic_string@DU?$char_traits@D@std@@V?$allocator@D@2@@std@@U?$less@V?$basic_string@DU?$char_traits@D@std@@V?$allocator@D@2@@std@@@2@@stdext@@USelectKey@?$dense_hash_map@V?$basic_string@DU?$char_traits@D@std@@V?$allocator@D@2@@std@@V12@V?$hash_compare@V?$basic_string@DU?$char_traits@D@std@@V?$allocator@D@2@@std@@U?$less@V?$basic_string@DU?$char_traits@D@std@@V?$allocator@D@2@@std@@@2@@stdext@@U?$equal_to@V?$basic_string@DU?$char_traits@D@std@@V?$allocator@D@2@@std@@@2@V?$libc_allocator_with_realloc@U?$pair@$$CBV?$basic_string@DU?$char_traits@D@std@@V?$allocator@D@2@@std@@V12@@std@@@google@@@google@@USetKey@78@U?$equal_to@V?$basic_string@DU?$char_traits@D@std@@V?$allocator@D@2@@std@@@2@V?$libc_allocator_with_realloc@U?$pair@$$CBV?$basic_string@DU?$char_traits@D@std@@V?$allocator@D@2@@std@@V12@@std@@@8@@google@@QAE@ABV01@I@Z 1001d330 f i PatchMW2LocalizedStrings.obj
 0001:0001c430       ?reset_thresholds@?$sh_hashtable_settings@KV?$hash_compare@KU?$less@K@std@@@stdext@@I$03@@QAEXI@Z 1001d430 f i PatchMW2CModels.obj
 0001:0001c430       ?reset_thresholds@?$sh_hashtable_settings@V?$basic_string@DU?$char_traits@D@std@@V?$allocator@D@2@@std@@V?$hash_compare@V?$basic_string@DU?$char_traits@D@std@@V?$allocator@D@2@@std@@U?$less@V?$basic_string@DU?$char_traits@D@std@@V?$allocator@D@2@@std@@@2@@stdext@@I$03@@QAEXI@Z 1001d430 f i PatchMW2LocalizedStrings.obj
 0001:0001c480       ?set_shrink_threshold@?$sh_hashtable_settings@V?$basic_string@DU?$char_traits@D@std@@V?$allocator@D@2@@std@@V?$hash_compare@V?$basic_string@DU?$char_traits@D@std@@V?$allocator@D@2@@std@@U?$less@V?$basic_string@DU?$char_traits@D@std@@V?$allocator@D@2@@std@@@2@@stdext@@I$03@@QAEXI@Z 1001d480 f i PatchMW2LocalizedStrings.obj
 0001:0001c480       ?set_shrink_threshold@?$sh_hashtable_settings@KV?$hash_compare@KU?$less@K@std@@@stdext@@I$03@@QAEXI@Z 1001d480 f i PatchMW2CModels.obj
 0001:0001c480       ?SetICallback@CCallbackBase@@QAEXH@Z 1001d480 f i SteamBase.obj
 0001:0001c4a0       ?swap@?$dense_hashtable@U?$pair@$$CBV?$basic_string@DU?$char_traits@D@std@@V?$allocator@D@2@@std@@V12@@std@@V?$basic_string@DU?$char_traits@D@std@@V?$allocator@D@2@@2@V?$hash_compare@V?$basic_string@DU?$char_traits@D@std@@V?$allocator@D@2@@std@@U?$less@V?$basic_string@DU?$char_traits@D@std@@V?$allocator@D@2@@std@@@2@@stdext@@USelectKey@?$dense_hash_map@V?$basic_string@DU?$char_traits@D@std@@V?$allocator@D@2@@std@@V12@V?$hash_compare@V?$basic_string@DU?$char_traits@D@std@@V?$allocator@D@2@@std@@U?$less@V?$basic_string@DU?$char_traits@D@std@@V?$allocator@D@2@@std@@@2@@stdext@@U?$equal_to@V?$basic_string@DU?$char_traits@D@std@@V?$allocator@D@2@@std@@@2@V?$libc_allocator_with_realloc@U?$pair@$$CBV?$basic_string@DU?$char_traits@D@std@@V?$allocator@D@2@@std@@V12@@std@@@google@@@google@@USetKey@78@U?$equal_to@V?$basic_string@DU?$char_traits@D@std@@V?$allocator@D@2@@std@@@2@V?$libc_allocator_with_realloc@U?$pair@$$CBV?$basic_string@DU?$char_traits@D@std@@V?$allocator@D@2@@std@@V12@@std@@@8@@google@@QAEXAAV12@@Z 1001d4a0 f i PatchMW2LocalizedStrings.obj
 0001:0001c5d0       ??0?$pair@$$CBV?$basic_string@DU?$char_traits@D@std@@V?$allocator@D@2@@std@@V12@@std@@QAE@XZ 1001d5d0 f i PatchMW2LocalizedStrings.obj
 0001:0001c5f0       ??0?$_Pair_base@$$CBV?$basic_string@DU?$char_traits@D@std@@V?$allocator@D@2@@std@@V12@@std@@QAE@XZ 1001d5f0 f i PatchMW2LocalizedStrings.obj
 0001:0001c640       ?consider_shrink@?$sh_hashtable_settings@V?$basic_string@DU?$char_traits@D@std@@V?$allocator@D@2@@std@@V?$hash_compare@V?$basic_string@DU?$char_traits@D@std@@V?$allocator@D@2@@std@@U?$less@V?$basic_string@DU?$char_traits@D@std@@V?$allocator@D@2@@std@@@2@@stdext@@I$03@@QBE_NXZ 1001d640 f i PatchMW2LocalizedStrings.obj
 0001:0001c640       ?consider_shrink@?$sh_hashtable_settings@KV?$hash_compare@KU?$less@K@std@@@stdext@@I$03@@QBE_NXZ 1001d640 f i PatchMW2CModels.obj
 0001:0001c660       ??0?$dense_hashtable_iterator@U?$pair@$$CBV?$basic_string@DU?$char_traits@D@std@@V?$allocator@D@2@@std@@V12@@std@@V?$basic_string@DU?$char_traits@D@std@@V?$allocator@D@2@@2@V?$hash_compare@V?$basic_string@DU?$char_traits@D@std@@V?$allocator@D@2@@std@@U?$less@V?$basic_string@DU?$char_traits@D@std@@V?$allocator@D@2@@std@@@2@@stdext@@USelectKey@?$dense_hash_map@V?$basic_string@DU?$char_traits@D@std@@V?$allocator@D@2@@std@@V12@V?$hash_compare@V?$basic_string@DU?$char_traits@D@std@@V?$allocator@D@2@@std@@U?$less@V?$basic_string@DU?$char_traits@D@std@@V?$allocator@D@2@@std@@@2@@stdext@@U?$equal_to@V?$basic_string@DU?$char_traits@D@std@@V?$allocator@D@2@@std@@@2@V?$libc_allocator_with_realloc@U?$pair@$$CBV?$basic_string@DU?$char_traits@D@std@@V?$allocator@D@2@@std@@V12@@std@@@google@@@google@@USetKey@78@U?$equal_to@V?$basic_string@DU?$char_traits@D@std@@V?$allocator@D@2@@std@@@2@V?$libc_allocator_with_realloc@U?$pair@$$CBV?$basic_string@DU?$char_traits@D@std@@V?$allocator@D@2@@std@@V12@@std@@@8@@google@@QAE@PBV?$dense_hashtable@U?$pair@$$CBV?$basic_string@DU?$char_traits@D@std@@V?$allocator@D@2@@std@@V12@@std@@V?$basic_string@DU?$char_traits@D@std@@V?$allocator@D@2@@2@V?$hash_compare@V?$basic_string@DU?$char_traits@D@std@@V?$allocator@D@2@@std@@U?$less@V?$basic_string@DU?$char_traits@D@std@@V?$allocator@D@2@@std@@@2@@stdext@@USelectKey@?$dense_hash_map@V?$basic_string@DU?$char_traits@D@std@@V?$allocator@D@2@@std@@V12@V?$hash_compare@V?$basic_string@DU?$char_traits@D@std@@V?$allocator@D@2@@std@@U?$less@V?$basic_string@DU?$char_traits@D@std@@V?$allocator@D@2@@std@@@2@@stdext@@U?$equal_to@V?$basic_string@DU?$char_traits@D@std@@V?$allocator@D@2@@std@@@2@V?$libc_allocator_with_realloc@U?$pair@$$CBV?$basic_string@DU?$char_traits@D@std@@V?$allocator@D@2@@std@@V12@@std@@@google@@@google@@USetKey@78@U?$equal_to@V?$basic_string@DU?$char_traits@D@std@@V?$allocator@D@2@@std@@@2@V?$libc_allocator_with_realloc@U?$pair@$$CBV?$basic_string@DU?$char_traits@D@std@@V?$allocator@D@2@@std@@V12@@std@@@8@@1@PAU?$pair@$$CBV?$basic_string@DU?$char_traits@D@std@@V?$allocator@D@2@@std@@V12@@std@@1_N@Z 1001d660 f i PatchMW2LocalizedStrings.obj
 0001:0001c660       ??0?$dense_hashtable_const_iterator@U?$pair@$$CBV?$basic_string@DU?$char_traits@D@std@@V?$allocator@D@2@@std@@V12@@std@@V?$basic_string@DU?$char_traits@D@std@@V?$allocator@D@2@@2@V?$hash_compare@V?$basic_string@DU?$char_traits@D@std@@V?$allocator@D@2@@std@@U?$less@V?$basic_string@DU?$char_traits@D@std@@V?$allocator@D@2@@std@@@2@@stdext@@USelectKey@?$dense_hash_map@V?$basic_string@DU?$char_traits@D@std@@V?$allocator@D@2@@std@@V12@V?$hash_compare@V?$basic_string@DU?$char_traits@D@std@@V?$allocator@D@2@@std@@U?$less@V?$basic_string@DU?$char_traits@D@std@@V?$allocator@D@2@@std@@@2@@stdext@@U?$equal_to@V?$basic_string@DU?$char_traits@D@std@@V?$allocator@D@2@@std@@@2@V?$libc_allocator_with_realloc@U?$pair@$$CBV?$basic_string@DU?$char_traits@D@std@@V?$allocator@D@2@@std@@V12@@std@@@google@@@google@@USetKey@78@U?$equal_to@V?$basic_string@DU?$char_traits@D@std@@V?$allocator@D@2@@std@@@2@V?$libc_allocator_with_realloc@U?$pair@$$CBV?$basic_string@DU?$char_traits@D@std@@V?$allocator@D@2@@std@@V12@@std@@@8@@google@@QAE@PBV?$dense_hashtable@U?$pair@$$CBV?$basic_string@DU?$char_traits@D@std@@V?$allocator@D@2@@std@@V12@@std@@V?$basic_string@DU?$char_traits@D@std@@V?$allocator@D@2@@2@V?$hash_compare@V?$basic_string@DU?$char_traits@D@std@@V?$allocator@D@2@@std@@U?$less@V?$basic_string@DU?$char_traits@D@std@@V?$allocator@D@2@@std@@@2@@stdext@@USelectKey@?$dense_hash_map@V?$basic_string@DU?$char_traits@D@std@@V?$allocator@D@2@@std@@V12@V?$hash_compare@V?$basic_string@DU?$char_traits@D@std@@V?$allocator@D@2@@std@@U?$less@V?$basic_string@DU?$char_traits@D@std@@V?$allocator@D@2@@std@@@2@@stdext@@U?$equal_to@V?$basic_string@DU?$char_traits@D@std@@V?$allocator@D@2@@std@@@2@V?$libc_allocator_with_realloc@U?$pair@$$CBV?$basic_string@DU?$char_traits@D@std@@V?$allocator@D@2@@std@@V12@@std@@@google@@@google@@USetKey@78@U?$equal_to@V?$basic_string@DU?$char_traits@D@std@@V?$allocator@D@2@@std@@@2@V?$libc_allocator_with_realloc@U?$pair@$$CBV?$basic_string@DU?$char_traits@D@std@@V?$allocator@D@2@@std@@V12@@std@@@8@@1@PBU?$pair@$$CBV?$basic_string@DU?$char_traits@D@std@@V?$allocator@D@2@@std@@V12@@std@@1_N@Z 1001d660 f i PatchMW2LocalizedStrings.obj
 0001:0001c6a0       ??0?$pair@U?$dense_hashtable_iterator@U?$pair@$$CBV?$basic_string@DU?$char_traits@D@std@@V?$allocator@D@2@@std@@PAUXModel@@@std@@V?$basic_string@DU?$char_traits@D@std@@V?$allocator@D@2@@2@V?$hash_compare@V?$basic_string@DU?$char_traits@D@std@@V?$allocator@D@2@@std@@U?$less@V?$basic_string@DU?$char_traits@D@std@@V?$allocator@D@2@@std@@@2@@stdext@@USelectKey@?$dense_hash_map@V?$basic_string@DU?$char_traits@D@std@@V?$allocator@D@2@@std@@PAUXModel@@V?$hash_compare@V?$basic_string@DU?$char_traits@D@std@@V?$allocator@D@2@@std@@U?$less@V?$basic_string@DU?$char_traits@D@std@@V?$allocator@D@2@@std@@@2@@stdext@@U?$equal_to@V?$basic_string@DU?$char_traits@D@std@@V?$allocator@D@2@@std@@@2@V?$libc_allocator_with_realloc@U?$pair@$$CBV?$basic_string@DU?$char_traits@D@std@@V?$allocator@D@2@@std@@PAUXModel@@@std@@@google@@@google@@USetKey@78@U?$equal_to@V?$basic_string@DU?$char_traits@D@std@@V?$allocator@D@2@@std@@@2@V?$libc_allocator_with_realloc@U?$pair@$$CBV?$basic_string@DU?$char_traits@D@std@@V?$allocator@D@2@@std@@PAUXModel@@@std@@@8@@google@@_N@std@@QAE@$$QAU?$dense_hashtable_iterator@U?$pair@$$CBV?$basic_string@DU?$char_traits@D@std@@V?$allocator@D@2@@std@@PAUXModel@@@std@@V?$basic_string@DU?$char_traits@D@std@@V?$allocator@D@2@@2@V?$hash_compare@V?$basic_string@DU?$char_traits@D@std@@V?$allocator@D@2@@std@@U?$less@V?$basic_string@DU?$char_traits@D@std@@V?$allocator@D@2@@std@@@2@@stdext@@USelectKey@?$dense_hash_map@V?$basic_string@DU?$char_traits@D@std@@V?$allocator@D@2@@std@@PAUXModel@@V?$hash_compare@V?$basic_string@DU?$char_traits@D@std@@V?$allocator@D@2@@std@@U?$less@V?$basic_string@DU?$char_traits@D@std@@V?$allocator@D@2@@std@@@2@@stdext@@U?$equal_to@V?$basic_string@DU?$char_traits@D@std@@V?$allocator@D@2@@std@@@2@V?$libc_allocator_with_realloc@U?$pair@$$CBV?$basic_string@DU?$char_traits@D@std@@V?$allocator@D@2@@std@@PAUXModel@@@std@@@google@@@google@@USetKey@78@U?$equal_to@V?$basic_string@DU?$char_traits@D@std@@V?$allocator@D@2@@std@@@2@V?$libc_allocator_with_realloc@U?$pair@$$CBV?$basic_string@DU?$char_traits@D@std@@V?$allocator@D@2@@std@@PAUXModel@@@std@@@8@@google@@$$QA_N@Z 1001d6a0 f i PatchMW2WeaponCamos.obj
 0001:0001c6a0       ??0?$pair@U?$dense_hashtable_iterator@U?$pair@$$CBV?$basic_string@DU?$char_traits@D@std@@V?$allocator@D@2@@std@@PAUMaterial@@@std@@V?$basic_string@DU?$char_traits@D@std@@V?$allocator@D@2@@2@V?$hash_compare@V?$basic_string@DU?$char_traits@D@std@@V?$allocator@D@2@@std@@U?$less@V?$basic_string@DU?$char_traits@D@std@@V?$allocator@D@2@@std@@@2@@stdext@@USelectKey@?$dense_hash_map@V?$basic_string@DU?$char_traits@D@std@@V?$allocator@D@2@@std@@PAUMaterial@@V?$hash_compare@V?$basic_string@DU?$char_traits@D@std@@V?$allocator@D@2@@std@@U?$less@V?$basic_string@DU?$char_traits@D@std@@V?$allocator@D@2@@std@@@2@@stdext@@U?$equal_to@V?$basic_string@DU?$char_traits@D@std@@V?$allocator@D@2@@std@@@2@V?$libc_allocator_with_realloc@U?$pair@$$CBV?$basic_string@DU?$char_traits@D@std@@V?$allocator@D@2@@std@@PAUMaterial@@@std@@@google@@@google@@USetKey@78@U?$equal_to@V?$basic_string@DU?$char_traits@D@std@@V?$allocator@D@2@@std@@@2@V?$libc_allocator_with_realloc@U?$pair@$$CBV?$basic_string@DU?$char_traits@D@std@@V?$allocator@D@2@@std@@PAUMaterial@@@std@@@8@@google@@_N@std@@QAE@$$QAU?$dense_hashtable_iterator@U?$pair@$$CBV?$basic_string@DU?$char_traits@D@std@@V?$allocator@D@2@@std@@PAUMaterial@@@std@@V?$basic_string@DU?$char_traits@D@std@@V?$allocator@D@2@@2@V?$hash_compare@V?$basic_string@DU?$char_traits@D@std@@V?$allocator@D@2@@std@@U?$less@V?$basic_string@DU?$char_traits@D@std@@V?$allocator@D@2@@std@@@2@@stdext@@USelectKey@?$dense_hash_map@V?$basic_string@DU?$char_traits@D@std@@V?$allocator@D@2@@std@@PAUMaterial@@V?$hash_compare@V?$basic_string@DU?$char_traits@D@std@@V?$allocator@D@2@@std@@U?$less@V?$basic_string@DU?$char_traits@D@std@@V?$allocator@D@2@@std@@@2@@stdext@@U?$equal_to@V?$basic_string@DU?$char_traits@D@std@@V?$allocator@D@2@@std@@@2@V?$libc_allocator_with_realloc@U?$pair@$$CBV?$basic_string@DU?$char_traits@D@std@@V?$allocator@D@2@@std@@PAUMaterial@@@std@@@google@@@google@@USetKey@78@U?$equal_to@V?$basic_string@DU?$char_traits@D@std@@V?$allocator@D@2@@std@@@2@V?$libc_allocator_with_realloc@U?$pair@$$CBV?$basic_string@DU?$char_traits@D@std@@V?$allocator@D@2@@std@@PAUMaterial@@@std@@@8@@google@@$$QA_N@Z 1001d6a0 f i PatchMW2Materialism.obj
 0001:0001c6a0       ??0?$pair@U?$dense_hashtable_iterator@U?$pair@$$CBV?$basic_string@DU?$char_traits@D@std@@V?$allocator@D@2@@std@@G@std@@V?$basic_string@DU?$char_traits@D@std@@V?$allocator@D@2@@2@V?$hash_compare@V?$basic_string@DU?$char_traits@D@std@@V?$allocator@D@2@@std@@U?$less@V?$basic_string@DU?$char_traits@D@std@@V?$allocator@D@2@@std@@@2@@stdext@@USelectKey@?$dense_hash_map@V?$basic_string@DU?$char_traits@D@std@@V?$allocator@D@2@@std@@GV?$hash_compare@V?$basic_string@DU?$char_traits@D@std@@V?$allocator@D@2@@std@@U?$less@V?$basic_string@DU?$char_traits@D@std@@V?$allocator@D@2@@std@@@2@@stdext@@U?$equal_to@V?$basic_string@DU?$char_traits@D@std@@V?$allocator@D@2@@std@@@2@V?$libc_allocator_with_realloc@U?$pair@$$CBV?$basic_string@DU?$char_traits@D@std@@V?$allocator@D@2@@std@@G@std@@@google@@@google@@USetKey@78@U?$equal_to@V?$basic_string@DU?$char_traits@D@std@@V?$allocator@D@2@@std@@@2@V?$libc_allocator_with_realloc@U?$pair@$$CBV?$basic_string@DU?$char_traits@D@std@@V?$allocator@D@2@@std@@G@std@@@8@@google@@_N@std@@QAE@$$QAU?$dense_hashtable_iterator@U?$pair@$$CBV?$basic_string@DU?$char_traits@D@std@@V?$allocator@D@2@@std@@G@std@@V?$basic_string@DU?$char_traits@D@std@@V?$allocator@D@2@@2@V?$hash_compare@V?$basic_string@DU?$char_traits@D@std@@V?$allocator@D@2@@std@@U?$less@V?$basic_string@DU?$char_traits@D@std@@V?$allocator@D@2@@std@@@2@@stdext@@USelectKey@?$dense_hash_map@V?$basic_string@DU?$char_traits@D@std@@V?$allocator@D@2@@std@@GV?$hash_compare@V?$basic_string@DU?$char_traits@D@std@@V?$allocator@D@2@@std@@U?$less@V?$basic_string@DU?$char_traits@D@std@@V?$allocator@D@2@@std@@@2@@stdext@@U?$equal_to@V?$basic_string@DU?$char_traits@D@std@@V?$allocator@D@2@@std@@@2@V?$libc_allocator_with_realloc@U?$pair@$$CBV?$basic_string@DU?$char_traits@D@std@@V?$allocator@D@2@@std@@G@std@@@google@@@google@@USetKey@78@U?$equal_to@V?$basic_string@DU?$char_traits@D@std@@V?$allocator@D@2@@std@@@2@V?$libc_allocator_with_realloc@U?$pair@$$CBV?$basic_string@DU?$char_traits@D@std@@V?$allocator@D@2@@std@@G@std@@@8@@google@@$$QA_N@Z 1001d6a0 f i PatchMW2StringList.obj
 0001:0001c6a0       ??0?$pair@U?$dense_hashtable_iterator@U?$pair@$$CBKPAUCModelAllocData@@@std@@KV?$hash_compare@KU?$less@K@std@@@stdext@@USelectKey@?$dense_hash_map@KPAUCModelAllocData@@V?$hash_compare@KU?$less@K@std@@@stdext@@U?$equal_to@K@std@@V?$libc_allocator_with_realloc@U?$pair@$$CBKPAUCModelAllocData@@@std@@@google@@@google@@USetKey@67@U?$equal_to@K@2@V?$libc_allocator_with_realloc@U?$pair@$$CBKPAUCModelAllocData@@@std@@@7@@google@@_N@std@@QAE@$$QAU?$dense_hashtable_iterator@U?$pair@$$CBKPAUCModelAllocData@@@std@@KV?$hash_compare@KU?$less@K@std@@@stdext@@USelectKey@?$dense_hash_map@KPAUCModelAllocData@@V?$hash_compare@KU?$less@K@std@@@stdext@@U?$equal_to@K@std@@V?$libc_allocator_with_realloc@U?$pair@$$CBKPAUCModelAllocData@@@std@@@google@@@google@@USetKey@67@U?$equal_to@K@2@V?$libc_allocator_with_realloc@U?$pair@$$CBKPAUCModelAllocData@@@std@@@7@@google@@$$QA_N@Z 1001d6a0 f i PatchMW2CModels.obj
 0001:0001c6a0       ??0?$pair@U?$dense_hashtable_iterator@U?$pair@$$CBV?$basic_string@DU?$char_traits@D@std@@V?$allocator@D@2@@std@@V12@@std@@V?$basic_string@DU?$char_traits@D@std@@V?$allocator@D@2@@2@V?$hash_compare@V?$basic_string@DU?$char_traits@D@std@@V?$allocator@D@2@@std@@U?$less@V?$basic_string@DU?$char_traits@D@std@@V?$allocator@D@2@@std@@@2@@stdext@@USelectKey@?$dense_hash_map@V?$basic_string@DU?$char_traits@D@std@@V?$allocator@D@2@@std@@V12@V?$hash_compare@V?$basic_string@DU?$char_traits@D@std@@V?$allocator@D@2@@std@@U?$less@V?$basic_string@DU?$char_traits@D@std@@V?$allocator@D@2@@std@@@2@@stdext@@U?$equal_to@V?$basic_string@DU?$char_traits@D@std@@V?$allocator@D@2@@std@@@2@V?$libc_allocator_with_realloc@U?$pair@$$CBV?$basic_string@DU?$char_traits@D@std@@V?$allocator@D@2@@std@@V12@@std@@@google@@@google@@USetKey@78@U?$equal_to@V?$basic_string@DU?$char_traits@D@std@@V?$allocator@D@2@@std@@@2@V?$libc_allocator_with_realloc@U?$pair@$$CBV?$basic_string@DU?$char_traits@D@std@@V?$allocator@D@2@@std@@V12@@std@@@8@@google@@_N@std@@QAE@$$QAU?$dense_hashtable_iterator@U?$pair@$$CBV?$basic_string@DU?$char_traits@D@std@@V?$allocator@D@2@@std@@V12@@std@@V?$basic_string@DU?$char_traits@D@std@@V?$allocator@D@2@@2@V?$hash_compare@V?$basic_string@DU?$char_traits@D@std@@V?$allocator@D@2@@std@@U?$less@V?$basic_string@DU?$char_traits@D@std@@V?$allocator@D@2@@std@@@2@@stdext@@USelectKey@?$dense_hash_map@V?$basic_string@DU?$char_traits@D@std@@V?$allocator@D@2@@std@@V12@V?$hash_compare@V?$basic_string@DU?$char_traits@D@std@@V?$allocator@D@2@@std@@U?$less@V?$basic_string@DU?$char_traits@D@std@@V?$allocator@D@2@@std@@@2@@stdext@@U?$equal_to@V?$basic_string@DU?$char_traits@D@std@@V?$allocator@D@2@@std@@@2@V?$libc_allocator_with_realloc@U?$pair@$$CBV?$basic_string@DU?$char_traits@D@std@@V?$allocator@D@2@@std@@V12@@std@@@google@@@google@@USetKey@78@U?$equal_to@V?$basic_string@DU?$char_traits@D@std@@V?$allocator@D@2@@std@@@2@V?$libc_allocator_with_realloc@U?$pair@$$CBV?$basic_string@DU?$char_traits@D@std@@V?$allocator@D@2@@std@@V12@@std@@@8@@google@@$$QA_N@Z 1001d6a0 f i PatchMW2LocalizedStrings.obj
 0001:0001c6a0       ??0?$pair@U?$dense_hashtable_iterator@U?$pair@$$CBKPAX@std@@KV?$hash_compare@KU?$less@K@std@@@stdext@@USelectKey@?$dense_hash_map@KPAXV?$hash_compare@KU?$less@K@std@@@stdext@@U?$equal_to@K@std@@V?$libc_allocator_with_realloc@U?$pair@$$CBKPAX@std@@@google@@@google@@USetKey@67@U?$equal_to@K@2@V?$libc_allocator_with_realloc@U?$pair@$$CBKPAX@std@@@7@@google@@_N@std@@QAE@$$QAU?$dense_hashtable_iterator@U?$pair@$$CBKPAX@std@@KV?$hash_compare@KU?$less@K@std@@@stdext@@USelectKey@?$dense_hash_map@KPAXV?$hash_compare@KU?$less@K@std@@@stdext@@U?$equal_to@K@std@@V?$libc_allocator_with_realloc@U?$pair@$$CBKPAX@std@@@google@@@google@@USetKey@67@U?$equal_to@K@2@V?$libc_allocator_with_realloc@U?$pair@$$CBKPAX@std@@@7@@google@@$$QA_N@Z 1001d6a0 f i PatchMW2CModels.obj
 0001:0001c6a0       ??0?$pair@U?$dense_hashtable_iterator@U?$pair@$$CBV?$basic_string@DU?$char_traits@D@std@@V?$allocator@D@2@@std@@PAUstringTable_s@@@std@@V?$basic_string@DU?$char_traits@D@std@@V?$allocator@D@2@@2@V?$hash_compare@V?$basic_string@DU?$char_traits@D@std@@V?$allocator@D@2@@std@@U?$less@V?$basic_string@DU?$char_traits@D@std@@V?$allocator@D@2@@std@@@2@@stdext@@USelectKey@?$dense_hash_map@V?$basic_string@DU?$char_traits@D@std@@V?$allocator@D@2@@std@@PAUstringTable_s@@V?$hash_compare@V?$basic_string@DU?$char_traits@D@std@@V?$allocator@D@2@@std@@U?$less@V?$basic_string@DU?$char_traits@D@std@@V?$allocator@D@2@@std@@@2@@stdext@@U?$equal_to@V?$basic_string@DU?$char_traits@D@std@@V?$allocator@D@2@@std@@@2@V?$libc_allocator_with_realloc@U?$pair@$$CBV?$basic_string@DU?$char_traits@D@std@@V?$allocator@D@2@@std@@PAUstringTable_s@@@std@@@google@@@google@@USetKey@78@U?$equal_to@V?$basic_string@DU?$char_traits@D@std@@V?$allocator@D@2@@std@@@2@V?$libc_allocator_with_realloc@U?$pair@$$CBV?$basic_string@DU?$char_traits@D@std@@V?$allocator@D@2@@std@@PAUstringTable_s@@@std@@@8@@google@@_N@std@@QAE@$$QAU?$dense_hashtable_iterator@U?$pair@$$CBV?$basic_string@DU?$char_traits@D@std@@V?$allocator@D@2@@std@@PAUstringTable_s@@@std@@V?$basic_string@DU?$char_traits@D@std@@V?$allocator@D@2@@2@V?$hash_compare@V?$basic_string@DU?$char_traits@D@std@@V?$allocator@D@2@@std@@U?$less@V?$basic_string@DU?$char_traits@D@std@@V?$allocator@D@2@@std@@@2@@stdext@@USelectKey@?$dense_hash_map@V?$basic_string@DU?$char_traits@D@std@@V?$allocator@D@2@@std@@PAUstringTable_s@@V?$hash_compare@V?$basic_string@DU?$char_traits@D@std@@V?$allocator@D@2@@std@@U?$less@V?$basic_string@DU?$char_traits@D@std@@V?$allocator@D@2@@std@@@2@@stdext@@U?$equal_to@V?$basic_string@DU?$char_traits@D@std@@V?$allocator@D@2@@std@@@2@V?$libc_allocator_with_realloc@U?$pair@$$CBV?$basic_string@DU?$char_traits@D@std@@V?$allocator@D@2@@std@@PAUstringTable_s@@@std@@@google@@@google@@USetKey@78@U?$equal_to@V?$basic_string@DU?$char_traits@D@std@@V?$allocator@D@2@@std@@@2@V?$libc_allocator_with_realloc@U?$pair@$$CBV?$basic_string@DU?$char_traits@D@std@@V?$allocator@D@2@@std@@PAUstringTable_s@@@std@@@8@@google@@$$QA_N@Z 1001d6a0 f i PatchMW2StringTable.obj
 0001:0001c6e0       ?copy_from@?$dense_hashtable@U?$pair@$$CBV?$basic_string@DU?$char_traits@D@std@@V?$allocator@D@2@@std@@V12@@std@@V?$basic_string@DU?$char_traits@D@std@@V?$allocator@D@2@@2@V?$hash_compare@V?$basic_string@DU?$char_traits@D@std@@V?$allocator@D@2@@std@@U?$less@V?$basic_string@DU?$char_traits@D@std@@V?$allocator@D@2@@std@@@2@@stdext@@USelectKey@?$dense_hash_map@V?$basic_string@DU?$char_traits@D@std@@V?$allocator@D@2@@std@@V12@V?$hash_compare@V?$basic_string@DU?$char_traits@D@std@@V?$allocator@D@2@@std@@U?$less@V?$basic_string@DU?$char_traits@D@std@@V?$allocator@D@2@@std@@@2@@stdext@@U?$equal_to@V?$basic_string@DU?$char_traits@D@std@@V?$allocator@D@2@@std@@@2@V?$libc_allocator_with_realloc@U?$pair@$$CBV?$basic_string@DU?$char_traits@D@std@@V?$allocator@D@2@@std@@V12@@std@@@google@@@google@@USetKey@78@U?$equal_to@V?$basic_string@DU?$char_traits@D@std@@V?$allocator@D@2@@std@@@2@V?$libc_allocator_with_realloc@U?$pair@$$CBV?$basic_string@DU?$char_traits@D@std@@V?$allocator@D@2@@std@@V12@@std@@@8@@google@@AAEXABV12@I@Z 1001d6e0 f i PatchMW2LocalizedStrings.obj
 0001:0001c7f0       ?max_size@?$libc_allocator_with_realloc@U?$pair@$$CBV?$basic_string@DU?$char_traits@D@std@@V?$allocator@D@2@@std@@V12@@std@@@google@@QBEIXZ 1001d7f0 f i PatchMW2LocalizedStrings.obj
 0001:0001c800       ?shrink_threshold@?$sh_hashtable_settings@KV?$hash_compare@KU?$less@K@std@@@stdext@@I$03@@QBEIXZ 1001d800 f i PatchMW2CModels.obj
 0001:0001c800       ?shrink_threshold@?$sh_hashtable_settings@V?$basic_string@DU?$char_traits@D@std@@V?$allocator@D@2@@std@@V?$hash_compare@V?$basic_string@DU?$char_traits@D@std@@V?$allocator@D@2@@std@@U?$less@V?$basic_string@DU?$char_traits@D@std@@V?$allocator@D@2@@std@@@2@@stdext@@I$03@@QBEIXZ 1001d800 f i PatchMW2LocalizedStrings.obj
 0001:0001c800       ?size@?$_Tree@V?$_Tmap_traits@V?$basic_string@DU?$char_traits@D@std@@V?$allocator@D@2@@std@@HU?$less@V?$basic_string@DU?$char_traits@D@std@@V?$allocator@D@2@@std@@@2@V?$allocator@U?$pair@$$CBV?$basic_string@DU?$char_traits@D@std@@V?$allocator@D@2@@std@@H@std@@@2@$0A@@std@@@std@@QBEIXZ 1001d800 f i PatchMW2RemoteConsoleSV.obj
 0001:0001c800       ?size@?$_Tree@V?$_Tmap_traits@V?$basic_string@DU?$char_traits@D@std@@V?$allocator@D@2@@std@@Uscr_funcdef_t@@U?$less@V?$basic_string@DU?$char_traits@D@std@@V?$allocator@D@2@@std@@@2@V?$allocator@U?$pair@$$CBV?$basic_string@DU?$char_traits@D@std@@V?$allocator@D@2@@std@@Uscr_funcdef_t@@@std@@@2@$0A@@std@@@std@@QBEIXZ 1001d800 f i Script.obj
 0001:0001c800       ?GetICallback@CCallbackBase@@QAEHXZ 1001d800 f i SteamBase.obj
 0001:0001c800       ?size@?$_Tree@V?$_Tmap_traits@_K_JU?$less@_K@std@@V?$allocator@U?$pair@$$CB_K_J@std@@@2@$0A@@std@@@std@@QBEIXZ 1001d800 f i PatchMW2PreAuthenticate.obj
 0001:0001c820       ??0ValInfo@?$dense_hashtable@U?$pair@$$CBV?$basic_string@DU?$char_traits@D@std@@V?$allocator@D@2@@std@@V12@@std@@V?$basic_string@DU?$char_traits@D@std@@V?$allocator@D@2@@2@V?$hash_compare@V?$basic_string@DU?$char_traits@D@std@@V?$allocator@D@2@@std@@U?$less@V?$basic_string@DU?$char_traits@D@std@@V?$allocator@D@2@@std@@@2@@stdext@@USelectKey@?$dense_hash_map@V?$basic_string@DU?$char_traits@D@std@@V?$allocator@D@2@@std@@V12@V?$hash_compare@V?$basic_string@DU?$char_traits@D@std@@V?$allocator@D@2@@std@@U?$less@V?$basic_string@DU?$char_traits@D@std@@V?$allocator@D@2@@std@@@2@@stdext@@U?$equal_to@V?$basic_string@DU?$char_traits@D@std@@V?$allocator@D@2@@std@@@2@V?$libc_allocator_with_realloc@U?$pair@$$CBV?$basic_string@DU?$char_traits@D@std@@V?$allocator@D@2@@std@@V12@@std@@@google@@@google@@USetKey@78@U?$equal_to@V?$basic_string@DU?$char_traits@D@std@@V?$allocator@D@2@@std@@@2@V?$libc_allocator_with_realloc@U?$pair@$$CBV?$basic_string@DU?$char_traits@D@std@@V?$allocator@D@2@@std@@V12@@std@@@8@@google@@QAE@ABV012@@Z 1001d820 f i PatchMW2LocalizedStrings.obj
 0001:0001c880       ??0?$alloc_impl@V?$libc_allocator_with_realloc@U?$pair@$$CBV?$basic_string@DU?$char_traits@D@std@@V?$allocator@D@2@@std@@G@std@@@google@@@?$dense_hashtable@U?$pair@$$CBV?$basic_string@DU?$char_traits@D@std@@V?$allocator@D@2@@std@@G@std@@V?$basic_string@DU?$char_traits@D@std@@V?$allocator@D@2@@2@V?$hash_compare@V?$basic_string@DU?$char_traits@D@std@@V?$allocator@D@2@@std@@U?$less@V?$basic_string@DU?$char_traits@D@std@@V?$allocator@D@2@@std@@@2@@stdext@@USelectKey@?$dense_hash_map@V?$basic_string@DU?$char_traits@D@std@@V?$allocator@D@2@@std@@GV?$hash_compare@V?$basic_string@DU?$char_traits@D@std@@V?$allocator@D@2@@std@@U?$less@V?$basic_string@DU?$char_traits@D@std@@V?$allocator@D@2@@std@@@2@@stdext@@U?$equal_to@V?$basic_string@DU?$char_traits@D@std@@V?$allocator@D@2@@std@@@2@V?$libc_allocator_with_realloc@U?$pair@$$CBV?$basic_string@DU?$char_traits@D@std@@V?$allocator@D@2@@std@@G@std@@@google@@@google@@USetKey@78@U?$equal_to@V?$basic_string@DU?$char_traits@D@std@@V?$allocator@D@2@@std@@@2@V?$libc_allocator_with_realloc@U?$pair@$$CBV?$basic_string@DU?$char_traits@D@std@@V?$allocator@D@2@@std@@G@std@@@8@@google@@QAE@ABV?$libc_allocator_with_realloc@U?$pair@$$CBV?$basic_string@DU?$char_traits@D@std@@V?$allocator@D@2@@std@@G@std@@@2@@Z 1001d880 f i PatchMW2StringList.obj
 0001:0001c880       ??0?$alloc_impl@V?$libc_allocator_with_realloc@U?$pair@$$CBV?$basic_string@DU?$char_traits@D@std@@V?$allocator@D@2@@std@@G@std@@@google@@@?$dense_hashtable@U?$pair@$$CBV?$basic_string@DU?$char_traits@D@std@@V?$allocator@D@2@@std@@G@std@@V?$basic_string@DU?$char_traits@D@std@@V?$allocator@D@2@@2@V?$hash_compare@V?$basic_string@DU?$char_traits@D@std@@V?$allocator@D@2@@std@@U?$less@V?$basic_string@DU?$char_traits@D@std@@V?$allocator@D@2@@std@@@2@@stdext@@USelectKey@?$dense_hash_map@V?$basic_string@DU?$char_traits@D@std@@V?$allocator@D@2@@std@@GV?$hash_compare@V?$basic_string@DU?$char_traits@D@std@@V?$allocator@D@2@@std@@U?$less@V?$basic_string@DU?$char_traits@D@std@@V?$allocator@D@2@@std@@@2@@stdext@@U?$equal_to@V?$basic_string@DU?$char_traits@D@std@@V?$allocator@D@2@@std@@@2@V?$libc_allocator_with_realloc@U?$pair@$$CBV?$basic_string@DU?$char_traits@D@std@@V?$allocator@D@2@@std@@G@std@@@google@@@google@@USetKey@78@U?$equal_to@V?$basic_string@DU?$char_traits@D@std@@V?$allocator@D@2@@std@@@2@V?$libc_allocator_with_realloc@U?$pair@$$CBV?$basic_string@DU?$char_traits@D@std@@V?$allocator@D@2@@std@@G@std@@@8@@google@@QAE@ABV012@@Z 1001d880 f i PatchMW2StringList.obj
 0001:0001c880       ??0?$alloc_impl@V?$libc_allocator_with_realloc@U?$pair@$$CBV?$basic_string@DU?$char_traits@D@std@@V?$allocator@D@2@@std@@PAUXModel@@@std@@@google@@@?$dense_hashtable@U?$pair@$$CBV?$basic_string@DU?$char_traits@D@std@@V?$allocator@D@2@@std@@PAUXModel@@@std@@V?$basic_string@DU?$char_traits@D@std@@V?$allocator@D@2@@2@V?$hash_compare@V?$basic_string@DU?$char_traits@D@std@@V?$allocator@D@2@@std@@U?$less@V?$basic_string@DU?$char_traits@D@std@@V?$allocator@D@2@@std@@@2@@stdext@@USelectKey@?$dense_hash_map@V?$basic_string@DU?$char_traits@D@std@@V?$allocator@D@2@@std@@PAUXModel@@V?$hash_compare@V?$basic_string@DU?$char_traits@D@std@@V?$allocator@D@2@@std@@U?$less@V?$basic_string@DU?$char_traits@D@std@@V?$allocator@D@2@@std@@@2@@stdext@@U?$equal_to@V?$basic_string@DU?$char_traits@D@std@@V?$allocator@D@2@@std@@@2@V?$libc_allocator_with_realloc@U?$pair@$$CBV?$basic_string@DU?$char_traits@D@std@@V?$allocator@D@2@@std@@PAUXModel@@@std@@@google@@@google@@USetKey@78@U?$equal_to@V?$basic_string@DU?$char_traits@D@std@@V?$allocator@D@2@@std@@@2@V?$libc_allocator_with_realloc@U?$pair@$$CBV?$basic_string@DU?$char_traits@D@std@@V?$allocator@D@2@@std@@PAUXModel@@@std@@@8@@google@@QAE@ABV?$libc_allocator_with_realloc@U?$pair@$$CBV?$basic_string@DU?$char_traits@D@std@@V?$allocator@D@2@@std@@PAUXModel@@@std@@@2@@Z 1001d880 f i PatchMW2WeaponCamos.obj
 0001:0001c880       ??0?$alloc_impl@V?$libc_allocator_with_realloc@U?$pair@$$CBV?$basic_string@DU?$char_traits@D@std@@V?$allocator@D@2@@std@@PAUXModel@@@std@@@google@@@?$dense_hashtable@U?$pair@$$CBV?$basic_string@DU?$char_traits@D@std@@V?$allocator@D@2@@std@@PAUXModel@@@std@@V?$basic_string@DU?$char_traits@D@std@@V?$allocator@D@2@@2@V?$hash_compare@V?$basic_string@DU?$char_traits@D@std@@V?$allocator@D@2@@std@@U?$less@V?$basic_string@DU?$char_traits@D@std@@V?$allocator@D@2@@std@@@2@@stdext@@USelectKey@?$dense_hash_map@V?$basic_string@DU?$char_traits@D@std@@V?$allocator@D@2@@std@@PAUXModel@@V?$hash_compare@V?$basic_string@DU?$char_traits@D@std@@V?$allocator@D@2@@std@@U?$less@V?$basic_string@DU?$char_traits@D@std@@V?$allocator@D@2@@std@@@2@@stdext@@U?$equal_to@V?$basic_string@DU?$char_traits@D@std@@V?$allocator@D@2@@std@@@2@V?$libc_allocator_with_realloc@U?$pair@$$CBV?$basic_string@DU?$char_traits@D@std@@V?$allocator@D@2@@std@@PAUXModel@@@std@@@google@@@google@@USetKey@78@U?$equal_to@V?$basic_string@DU?$char_traits@D@std@@V?$allocator@D@2@@std@@@2@V?$libc_allocator_with_realloc@U?$pair@$$CBV?$basic_string@DU?$char_traits@D@std@@V?$allocator@D@2@@std@@PAUXModel@@@std@@@8@@google@@QAE@ABV012@@Z 1001d880 f i PatchMW2WeaponCamos.obj
 0001:0001c880       ??0?$alloc_impl@V?$libc_allocator_with_realloc@U?$pair@$$CBV?$basic_string@DU?$char_traits@D@std@@V?$allocator@D@2@@std@@V12@@std@@@google@@@?$dense_hashtable@U?$pair@$$CBV?$basic_string@DU?$char_traits@D@std@@V?$allocator@D@2@@std@@V12@@std@@V?$basic_string@DU?$char_traits@D@std@@V?$allocator@D@2@@2@V?$hash_compare@V?$basic_string@DU?$char_traits@D@std@@V?$allocator@D@2@@std@@U?$less@V?$basic_string@DU?$char_traits@D@std@@V?$allocator@D@2@@std@@@2@@stdext@@USelectKey@?$dense_hash_map@V?$basic_string@DU?$char_traits@D@std@@V?$allocator@D@2@@std@@V12@V?$hash_compare@V?$basic_string@DU?$char_traits@D@std@@V?$allocator@D@2@@std@@U?$less@V?$basic_string@DU?$char_traits@D@std@@V?$allocator@D@2@@std@@@2@@stdext@@U?$equal_to@V?$basic_string@DU?$char_traits@D@std@@V?$allocator@D@2@@std@@@2@V?$libc_allocator_with_realloc@U?$pair@$$CBV?$basic_string@DU?$char_traits@D@std@@V?$allocator@D@2@@std@@V12@@std@@@google@@@google@@USetKey@78@U?$equal_to@V?$basic_string@DU?$char_traits@D@std@@V?$allocator@D@2@@std@@@2@V?$libc_allocator_with_realloc@U?$pair@$$CBV?$basic_string@DU?$char_traits@D@std@@V?$allocator@D@2@@std@@V12@@std@@@8@@google@@QAE@ABV?$libc_allocator_with_realloc@U?$pair@$$CBV?$basic_string@DU?$char_traits@D@std@@V?$allocator@D@2@@std@@V12@@std@@@2@@Z 1001d880 f i PatchMW2LocalizedStrings.obj
 0001:0001c880       ??0?$alloc_impl@V?$libc_allocator_with_realloc@U?$pair@$$CBKPAX@std@@@google@@@?$dense_hashtable@U?$pair@$$CBKPAX@std@@KV?$hash_compare@KU?$less@K@std@@@stdext@@USelectKey@?$dense_hash_map@KPAXV?$hash_compare@KU?$less@K@std@@@stdext@@U?$equal_to@K@std@@V?$libc_allocator_with_realloc@U?$pair@$$CBKPAX@std@@@google@@@google@@USetKey@67@U?$equal_to@K@2@V?$libc_allocator_with_realloc@U?$pair@$$CBKPAX@std@@@7@@google@@QAE@ABV?$libc_allocator_with_realloc@U?$pair@$$CBKPAX@std@@@2@@Z 1001d880 f i PatchMW2CModels.obj
 0001:0001c880       ??0?$alloc_impl@V?$libc_allocator_with_realloc@U?$pair@$$CBKPAUCModelAllocData@@@std@@@google@@@?$dense_hashtable@U?$pair@$$CBKPAUCModelAllocData@@@std@@KV?$hash_compare@KU?$less@K@std@@@stdext@@USelectKey@?$dense_hash_map@KPAUCModelAllocData@@V?$hash_compare@KU?$less@K@std@@@stdext@@U?$equal_to@K@std@@V?$libc_allocator_with_realloc@U?$pair@$$CBKPAUCModelAllocData@@@std@@@google@@@google@@USetKey@67@U?$equal_to@K@2@V?$libc_allocator_with_realloc@U?$pair@$$CBKPAUCModelAllocData@@@std@@@7@@google@@QAE@ABV012@@Z 1001d880 f i PatchMW2CModels.obj
 0001:0001c880       ??0?$alloc_impl@V?$libc_allocator_with_realloc@U?$pair@$$CBV?$basic_string@DU?$char_traits@D@std@@V?$allocator@D@2@@std@@PAUstringTable_s@@@std@@@google@@@?$dense_hashtable@U?$pair@$$CBV?$basic_string@DU?$char_traits@D@std@@V?$allocator@D@2@@std@@PAUstringTable_s@@@std@@V?$basic_string@DU?$char_traits@D@std@@V?$allocator@D@2@@2@V?$hash_compare@V?$basic_string@DU?$char_traits@D@std@@V?$allocator@D@2@@std@@U?$less@V?$basic_string@DU?$char_traits@D@std@@V?$allocator@D@2@@std@@@2@@stdext@@USelectKey@?$dense_hash_map@V?$basic_string@DU?$char_traits@D@std@@V?$allocator@D@2@@std@@PAUstringTable_s@@V?$hash_compare@V?$basic_string@DU?$char_traits@D@std@@V?$allocator@D@2@@std@@U?$less@V?$basic_string@DU?$char_traits@D@std@@V?$allocator@D@2@@std@@@2@@stdext@@U?$equal_to@V?$basic_string@DU?$char_traits@D@std@@V?$allocator@D@2@@std@@@2@V?$libc_allocator_with_realloc@U?$pair@$$CBV?$basic_string@DU?$char_traits@D@std@@V?$allocator@D@2@@std@@PAUstringTable_s@@@std@@@google@@@google@@USetKey@78@U?$equal_to@V?$basic_string@DU?$char_traits@D@std@@V?$allocator@D@2@@std@@@2@V?$libc_allocator_with_realloc@U?$pair@$$CBV?$basic_string@DU?$char_traits@D@std@@V?$allocator@D@2@@std@@PAUstringTable_s@@@std@@@8@@google@@QAE@ABV?$libc_allocator_with_realloc@U?$pair@$$CBV?$basic_string@DU?$char_traits@D@std@@V?$allocator@D@2@@std@@PAUstringTable_s@@@std@@@2@@Z 1001d880 f i PatchMW2StringTable.obj
 0001:0001c880       ??0?$alloc_impl@V?$libc_allocator_with_realloc@U?$pair@$$CBV?$basic_string@DU?$char_traits@D@std@@V?$allocator@D@2@@std@@V12@@std@@@google@@@?$dense_hashtable@U?$pair@$$CBV?$basic_string@DU?$char_traits@D@std@@V?$allocator@D@2@@std@@V12@@std@@V?$basic_string@DU?$char_traits@D@std@@V?$allocator@D@2@@2@V?$hash_compare@V?$basic_string@DU?$char_traits@D@std@@V?$allocator@D@2@@std@@U?$less@V?$basic_string@DU?$char_traits@D@std@@V?$allocator@D@2@@std@@@2@@stdext@@USelectKey@?$dense_hash_map@V?$basic_string@DU?$char_traits@D@std@@V?$allocator@D@2@@std@@V12@V?$hash_compare@V?$basic_string@DU?$char_traits@D@std@@V?$allocator@D@2@@std@@U?$less@V?$basic_string@DU?$char_traits@D@std@@V?$allocator@D@2@@std@@@2@@stdext@@U?$equal_to@V?$basic_string@DU?$char_traits@D@std@@V?$allocator@D@2@@std@@@2@V?$libc_allocator_with_realloc@U?$pair@$$CBV?$basic_string@DU?$char_traits@D@std@@V?$allocator@D@2@@std@@V12@@std@@@google@@@google@@USetKey@78@U?$equal_to@V?$basic_string@DU?$char_traits@D@std@@V?$allocator@D@2@@std@@@2@V?$libc_allocator_with_realloc@U?$pair@$$CBV?$basic_string@DU?$char_traits@D@std@@V?$allocator@D@2@@std@@V12@@std@@@8@@google@@QAE@ABV012@@Z 1001d880 f i PatchMW2LocalizedStrings.obj
 0001:0001c880       ??0?$alloc_impl@V?$libc_allocator_with_realloc@U?$pair@$$CBV?$basic_string@DU?$char_traits@D@std@@V?$allocator@D@2@@std@@PAUMaterial@@@std@@@google@@@?$dense_hashtable@U?$pair@$$CBV?$basic_string@DU?$char_traits@D@std@@V?$allocator@D@2@@std@@PAUMaterial@@@std@@V?$basic_string@DU?$char_traits@D@std@@V?$allocator@D@2@@2@V?$hash_compare@V?$basic_string@DU?$char_traits@D@std@@V?$allocator@D@2@@std@@U?$less@V?$basic_string@DU?$char_traits@D@std@@V?$allocator@D@2@@std@@@2@@stdext@@USelectKey@?$dense_hash_map@V?$basic_string@DU?$char_traits@D@std@@V?$allocator@D@2@@std@@PAUMaterial@@V?$hash_compare@V?$basic_string@DU?$char_traits@D@std@@V?$allocator@D@2@@std@@U?$less@V?$basic_string@DU?$char_traits@D@std@@V?$allocator@D@2@@std@@@2@@stdext@@U?$equal_to@V?$basic_string@DU?$char_traits@D@std@@V?$allocator@D@2@@std@@@2@V?$libc_allocator_with_realloc@U?$pair@$$CBV?$basic_string@DU?$char_traits@D@std@@V?$allocator@D@2@@std@@PAUMaterial@@@std@@@google@@@google@@USetKey@78@U?$equal_to@V?$basic_string@DU?$char_traits@D@std@@V?$allocator@D@2@@std@@@2@V?$libc_allocator_with_realloc@U?$pair@$$CBV?$basic_string@DU?$char_traits@D@std@@V?$allocator@D@2@@std@@PAUMaterial@@@std@@@8@@google@@QAE@ABV012@@Z 1001d880 f i PatchMW2Materialism.obj
 0001:0001c880       ??0?$alloc_impl@V?$libc_allocator_with_realloc@U?$pair@$$CBV?$basic_string@DU?$char_traits@D@std@@V?$allocator@D@2@@std@@PAUstringTable_s@@@std@@@google@@@?$dense_hashtable@U?$pair@$$CBV?$basic_string@DU?$char_traits@D@std@@V?$allocator@D@2@@std@@PAUstringTable_s@@@std@@V?$basic_string@DU?$char_traits@D@std@@V?$allocator@D@2@@2@V?$hash_compare@V?$basic_string@DU?$char_traits@D@std@@V?$allocator@D@2@@std@@U?$less@V?$basic_string@DU?$char_traits@D@std@@V?$allocator@D@2@@std@@@2@@stdext@@USelectKey@?$dense_hash_map@V?$basic_string@DU?$char_traits@D@std@@V?$allocator@D@2@@std@@PAUstringTable_s@@V?$hash_compare@V?$basic_string@DU?$char_traits@D@std@@V?$allocator@D@2@@std@@U?$less@V?$basic_string@DU?$char_traits@D@std@@V?$allocator@D@2@@std@@@2@@stdext@@U?$equal_to@V?$basic_string@DU?$char_traits@D@std@@V?$allocator@D@2@@std@@@2@V?$libc_allocator_with_realloc@U?$pair@$$CBV?$basic_string@DU?$char_traits@D@std@@V?$allocator@D@2@@std@@PAUstringTable_s@@@std@@@google@@@google@@USetKey@78@U?$equal_to@V?$basic_string@DU?$char_traits@D@std@@V?$allocator@D@2@@std@@@2@V?$libc_allocator_with_realloc@U?$pair@$$CBV?$basic_string@DU?$char_traits@D@std@@V?$allocator@D@2@@std@@PAUstringTable_s@@@std@@@8@@google@@QAE@ABV012@@Z 1001d880 f i PatchMW2StringTable.obj
 0001:0001c880       ??0?$alloc_impl@V?$libc_allocator_with_realloc@U?$pair@$$CBKPAUCModelAllocData@@@std@@@google@@@?$dense_hashtable@U?$pair@$$CBKPAUCModelAllocData@@@std@@KV?$hash_compare@KU?$less@K@std@@@stdext@@USelectKey@?$dense_hash_map@KPAUCModelAllocData@@V?$hash_compare@KU?$less@K@std@@@stdext@@U?$equal_to@K@std@@V?$libc_allocator_with_realloc@U?$pair@$$CBKPAUCModelAllocData@@@std@@@google@@@google@@USetKey@67@U?$equal_to@K@2@V?$libc_allocator_with_realloc@U?$pair@$$CBKPAUCModelAllocData@@@std@@@7@@google@@QAE@ABV?$libc_allocator_with_realloc@U?$pair@$$CBKPAUCModelAllocData@@@std@@@2@@Z 1001d880 f i PatchMW2CModels.obj
 0001:0001c880       ??0?$alloc_impl@V?$libc_allocator_with_realloc@U?$pair@$$CBV?$basic_string@DU?$char_traits@D@std@@V?$allocator@D@2@@std@@PAUMaterial@@@std@@@google@@@?$dense_hashtable@U?$pair@$$CBV?$basic_string@DU?$char_traits@D@std@@V?$allocator@D@2@@std@@PAUMaterial@@@std@@V?$basic_string@DU?$char_traits@D@std@@V?$allocator@D@2@@2@V?$hash_compare@V?$basic_string@DU?$char_traits@D@std@@V?$allocator@D@2@@std@@U?$less@V?$basic_string@DU?$char_traits@D@std@@V?$allocator@D@2@@std@@@2@@stdext@@USelectKey@?$dense_hash_map@V?$basic_string@DU?$char_traits@D@std@@V?$allocator@D@2@@std@@PAUMaterial@@V?$hash_compare@V?$basic_string@DU?$char_traits@D@std@@V?$allocator@D@2@@std@@U?$less@V?$basic_string@DU?$char_traits@D@std@@V?$allocator@D@2@@std@@@2@@stdext@@U?$equal_to@V?$basic_string@DU?$char_traits@D@std@@V?$allocator@D@2@@std@@@2@V?$libc_allocator_with_realloc@U?$pair@$$CBV?$basic_string@DU?$char_traits@D@std@@V?$allocator@D@2@@std@@PAUMaterial@@@std@@@google@@@google@@USetKey@78@U?$equal_to@V?$basic_string@DU?$char_traits@D@std@@V?$allocator@D@2@@std@@@2@V?$libc_allocator_with_realloc@U?$pair@$$CBV?$basic_string@DU?$char_traits@D@std@@V?$allocator@D@2@@std@@PAUMaterial@@@std@@@8@@google@@QAE@ABV?$libc_allocator_with_realloc@U?$pair@$$CBV?$basic_string@DU?$char_traits@D@std@@V?$allocator@D@2@@std@@PAUMaterial@@@std@@@2@@Z 1001d880 f i PatchMW2Materialism.obj
 0001:0001c880       ??0?$alloc_impl@V?$libc_allocator_with_realloc@U?$pair@$$CBKPAX@std@@@google@@@?$dense_hashtable@U?$pair@$$CBKPAX@std@@KV?$hash_compare@KU?$less@K@std@@@stdext@@USelectKey@?$dense_hash_map@KPAXV?$hash_compare@KU?$less@K@std@@@stdext@@U?$equal_to@K@std@@V?$libc_allocator_with_realloc@U?$pair@$$CBKPAX@std@@@google@@@google@@USetKey@67@U?$equal_to@K@2@V?$libc_allocator_with_realloc@U?$pair@$$CBKPAX@std@@@7@@google@@QAE@ABV012@@Z 1001d880 f i PatchMW2CModels.obj
 0001:0001c8a0       ?advance_past_empty_and_deleted@?$dense_hashtable_const_iterator@U?$pair@$$CBV?$basic_string@DU?$char_traits@D@std@@V?$allocator@D@2@@std@@V12@@std@@V?$basic_string@DU?$char_traits@D@std@@V?$allocator@D@2@@2@V?$hash_compare@V?$basic_string@DU?$char_traits@D@std@@V?$allocator@D@2@@std@@U?$less@V?$basic_string@DU?$char_traits@D@std@@V?$allocator@D@2@@std@@@2@@stdext@@USelectKey@?$dense_hash_map@V?$basic_string@DU?$char_traits@D@std@@V?$allocator@D@2@@std@@V12@V?$hash_compare@V?$basic_string@DU?$char_traits@D@std@@V?$allocator@D@2@@std@@U?$less@V?$basic_string@DU?$char_traits@D@std@@V?$allocator@D@2@@std@@@2@@stdext@@U?$equal_to@V?$basic_string@DU?$char_traits@D@std@@V?$allocator@D@2@@std@@@2@V?$libc_allocator_with_realloc@U?$pair@$$CBV?$basic_string@DU?$char_traits@D@std@@V?$allocator@D@2@@std@@V12@@std@@@google@@@google@@USetKey@78@U?$equal_to@V?$basic_string@DU?$char_traits@D@std@@V?$allocator@D@2@@std@@@2@V?$libc_allocator_with_realloc@U?$pair@$$CBV?$basic_string@DU?$char_traits@D@std@@V?$allocator@D@2@@std@@V12@@std@@@8@@google@@QAEXXZ 1001d8a0 f i PatchMW2LocalizedStrings.obj
 0001:0001c8a0       ?advance_past_empty_and_deleted@?$dense_hashtable_iterator@U?$pair@$$CBV?$basic_string@DU?$char_traits@D@std@@V?$allocator@D@2@@std@@V12@@std@@V?$basic_string@DU?$char_traits@D@std@@V?$allocator@D@2@@2@V?$hash_compare@V?$basic_string@DU?$char_traits@D@std@@V?$allocator@D@2@@std@@U?$less@V?$basic_string@DU?$char_traits@D@std@@V?$allocator@D@2@@std@@@2@@stdext@@USelectKey@?$dense_hash_map@V?$basic_string@DU?$char_traits@D@std@@V?$allocator@D@2@@std@@V12@V?$hash_compare@V?$basic_string@DU?$char_traits@D@std@@V?$allocator@D@2@@std@@U?$less@V?$basic_string@DU?$char_traits@D@std@@V?$allocator@D@2@@std@@@2@@stdext@@U?$equal_to@V?$basic_string@DU?$char_traits@D@std@@V?$allocator@D@2@@std@@@2@V?$libc_allocator_with_realloc@U?$pair@$$CBV?$basic_string@DU?$char_traits@D@std@@V?$allocator@D@2@@std@@V12@@std@@@google@@@google@@USetKey@78@U?$equal_to@V?$basic_string@DU?$char_traits@D@std@@V?$allocator@D@2@@std@@@2@V?$libc_allocator_with_realloc@U?$pair@$$CBV?$basic_string@DU?$char_traits@D@std@@V?$allocator@D@2@@std@@V12@@std@@@8@@google@@QAEXXZ 1001d8a0 f i PatchMW2LocalizedStrings.obj
 0001:0001c900       ??0?$_Pair_base@U?$dense_hashtable_iterator@U?$pair@$$CBV?$basic_string@DU?$char_traits@D@std@@V?$allocator@D@2@@std@@PAUstringTable_s@@@std@@V?$basic_string@DU?$char_traits@D@std@@V?$allocator@D@2@@2@V?$hash_compare@V?$basic_string@DU?$char_traits@D@std@@V?$allocator@D@2@@std@@U?$less@V?$basic_string@DU?$char_traits@D@std@@V?$allocator@D@2@@std@@@2@@stdext@@USelectKey@?$dense_hash_map@V?$basic_string@DU?$char_traits@D@std@@V?$allocator@D@2@@std@@PAUstringTable_s@@V?$hash_compare@V?$basic_string@DU?$char_traits@D@std@@V?$allocator@D@2@@std@@U?$less@V?$basic_string@DU?$char_traits@D@std@@V?$allocator@D@2@@std@@@2@@stdext@@U?$equal_to@V?$basic_string@DU?$char_traits@D@std@@V?$allocator@D@2@@std@@@2@V?$libc_allocator_with_realloc@U?$pair@$$CBV?$basic_string@DU?$char_traits@D@std@@V?$allocator@D@2@@std@@PAUstringTable_s@@@std@@@google@@@google@@USetKey@78@U?$equal_to@V?$basic_string@DU?$char_traits@D@std@@V?$allocator@D@2@@std@@@2@V?$libc_allocator_with_realloc@U?$pair@$$CBV?$basic_string@DU?$char_traits@D@std@@V?$allocator@D@2@@std@@PAUstringTable_s@@@std@@@8@@google@@_N@std@@QAE@$$QAU?$dense_hashtable_iterator@U?$pair@$$CBV?$basic_string@DU?$char_traits@D@std@@V?$allocator@D@2@@std@@PAUstringTable_s@@@std@@V?$basic_string@DU?$char_traits@D@std@@V?$allocator@D@2@@2@V?$hash_compare@V?$basic_string@DU?$char_traits@D@std@@V?$allocator@D@2@@std@@U?$less@V?$basic_string@DU?$char_traits@D@std@@V?$allocator@D@2@@std@@@2@@stdext@@USelectKey@?$dense_hash_map@V?$basic_string@DU?$char_traits@D@std@@V?$allocator@D@2@@std@@PAUstringTable_s@@V?$hash_compare@V?$basic_string@DU?$char_traits@D@std@@V?$allocator@D@2@@std@@U?$less@V?$basic_string@DU?$char_traits@D@std@@V?$allocator@D@2@@std@@@2@@stdext@@U?$equal_to@V?$basic_string@DU?$char_traits@D@std@@V?$allocator@D@2@@std@@@2@V?$libc_allocator_with_realloc@U?$pair@$$CBV?$basic_string@DU?$char_traits@D@std@@V?$allocator@D@2@@std@@PAUstringTable_s@@@std@@@google@@@google@@USetKey@78@U?$equal_to@V?$basic_string@DU?$char_traits@D@std@@V?$allocator@D@2@@std@@@2@V?$libc_allocator_with_realloc@U?$pair@$$CBV?$basic_string@DU?$char_traits@D@std@@V?$allocator@D@2@@std@@PAUstringTable_s@@@std@@@8@@google@@$$QA_N@Z 1001d900 f i PatchMW2StringTable.obj
 0001:0001c900       ??0?$_Pair_base@U?$dense_hashtable_iterator@U?$pair@$$CBKPAUCModelAllocData@@@std@@KV?$hash_compare@KU?$less@K@std@@@stdext@@USelectKey@?$dense_hash_map@KPAUCModelAllocData@@V?$hash_compare@KU?$less@K@std@@@stdext@@U?$equal_to@K@std@@V?$libc_allocator_with_realloc@U?$pair@$$CBKPAUCModelAllocData@@@std@@@google@@@google@@USetKey@67@U?$equal_to@K@2@V?$libc_allocator_with_realloc@U?$pair@$$CBKPAUCModelAllocData@@@std@@@7@@google@@_N@std@@QAE@$$QAU?$dense_hashtable_iterator@U?$pair@$$CBKPAUCModelAllocData@@@std@@KV?$hash_compare@KU?$less@K@std@@@stdext@@USelectKey@?$dense_hash_map@KPAUCModelAllocData@@V?$hash_compare@KU?$less@K@std@@@stdext@@U?$equal_to@K@std@@V?$libc_allocator_with_realloc@U?$pair@$$CBKPAUCModelAllocData@@@std@@@google@@@google@@USetKey@67@U?$equal_to@K@2@V?$libc_allocator_with_realloc@U?$pair@$$CBKPAUCModelAllocData@@@std@@@7@@google@@$$QA_N@Z 1001d900 f i PatchMW2CModels.obj
 0001:0001c900       ??0?$_Pair_base@U?$dense_hashtable_iterator@U?$pair@$$CBV?$basic_string@DU?$char_traits@D@std@@V?$allocator@D@2@@std@@PAUMaterial@@@std@@V?$basic_string@DU?$char_traits@D@std@@V?$allocator@D@2@@2@V?$hash_compare@V?$basic_string@DU?$char_traits@D@std@@V?$allocator@D@2@@std@@U?$less@V?$basic_string@DU?$char_traits@D@std@@V?$allocator@D@2@@std@@@2@@stdext@@USelectKey@?$dense_hash_map@V?$basic_string@DU?$char_traits@D@std@@V?$allocator@D@2@@std@@PAUMaterial@@V?$hash_compare@V?$basic_string@DU?$char_traits@D@std@@V?$allocator@D@2@@std@@U?$less@V?$basic_string@DU?$char_traits@D@std@@V?$allocator@D@2@@std@@@2@@stdext@@U?$equal_to@V?$basic_string@DU?$char_traits@D@std@@V?$allocator@D@2@@std@@@2@V?$libc_allocator_with_realloc@U?$pair@$$CBV?$basic_string@DU?$char_traits@D@std@@V?$allocator@D@2@@std@@PAUMaterial@@@std@@@google@@@google@@USetKey@78@U?$equal_to@V?$basic_string@DU?$char_traits@D@std@@V?$allocator@D@2@@std@@@2@V?$libc_allocator_with_realloc@U?$pair@$$CBV?$basic_string@DU?$char_traits@D@std@@V?$allocator@D@2@@std@@PAUMaterial@@@std@@@8@@google@@_N@std@@QAE@$$QAU?$dense_hashtable_iterator@U?$pair@$$CBV?$basic_string@DU?$char_traits@D@std@@V?$allocator@D@2@@std@@PAUMaterial@@@std@@V?$basic_string@DU?$char_traits@D@std@@V?$allocator@D@2@@2@V?$hash_compare@V?$basic_string@DU?$char_traits@D@std@@V?$allocator@D@2@@std@@U?$less@V?$basic_string@DU?$char_traits@D@std@@V?$allocator@D@2@@std@@@2@@stdext@@USelectKey@?$dense_hash_map@V?$basic_string@DU?$char_traits@D@std@@V?$allocator@D@2@@std@@PAUMaterial@@V?$hash_compare@V?$basic_string@DU?$char_traits@D@std@@V?$allocator@D@2@@std@@U?$less@V?$basic_string@DU?$char_traits@D@std@@V?$allocator@D@2@@std@@@2@@stdext@@U?$equal_to@V?$basic_string@DU?$char_traits@D@std@@V?$allocator@D@2@@std@@@2@V?$libc_allocator_with_realloc@U?$pair@$$CBV?$basic_string@DU?$char_traits@D@std@@V?$allocator@D@2@@std@@PAUMaterial@@@std@@@google@@@google@@USetKey@78@U?$equal_to@V?$basic_string@DU?$char_traits@D@std@@V?$allocator@D@2@@std@@@2@V?$libc_allocator_with_realloc@U?$pair@$$CBV?$basic_string@DU?$char_traits@D@std@@V?$allocator@D@2@@std@@PAUMaterial@@@std@@@8@@google@@$$QA_N@Z 1001d900 f i PatchMW2Materialism.obj
 0001:0001c900       ??0?$_Pair_base@U?$dense_hashtable_iterator@U?$pair@$$CBV?$basic_string@DU?$char_traits@D@std@@V?$allocator@D@2@@std@@PAUXModel@@@std@@V?$basic_string@DU?$char_traits@D@std@@V?$allocator@D@2@@2@V?$hash_compare@V?$basic_string@DU?$char_traits@D@std@@V?$allocator@D@2@@std@@U?$less@V?$basic_string@DU?$char_traits@D@std@@V?$allocator@D@2@@std@@@2@@stdext@@USelectKey@?$dense_hash_map@V?$basic_string@DU?$char_traits@D@std@@V?$allocator@D@2@@std@@PAUXModel@@V?$hash_compare@V?$basic_string@DU?$char_traits@D@std@@V?$allocator@D@2@@std@@U?$less@V?$basic_string@DU?$char_traits@D@std@@V?$allocator@D@2@@std@@@2@@stdext@@U?$equal_to@V?$basic_string@DU?$char_traits@D@std@@V?$allocator@D@2@@std@@@2@V?$libc_allocator_with_realloc@U?$pair@$$CBV?$basic_string@DU?$char_traits@D@std@@V?$allocator@D@2@@std@@PAUXModel@@@std@@@google@@@google@@USetKey@78@U?$equal_to@V?$basic_string@DU?$char_traits@D@std@@V?$allocator@D@2@@std@@@2@V?$libc_allocator_with_realloc@U?$pair@$$CBV?$basic_string@DU?$char_traits@D@std@@V?$allocator@D@2@@std@@PAUXModel@@@std@@@8@@google@@_N@std@@QAE@$$QAU?$dense_hashtable_iterator@U?$pair@$$CBV?$basic_string@DU?$char_traits@D@std@@V?$allocator@D@2@@std@@PAUXModel@@@std@@V?$basic_string@DU?$char_traits@D@std@@V?$allocator@D@2@@2@V?$hash_compare@V?$basic_string@DU?$char_traits@D@std@@V?$allocator@D@2@@std@@U?$less@V?$basic_string@DU?$char_traits@D@std@@V?$allocator@D@2@@std@@@2@@stdext@@USelectKey@?$dense_hash_map@V?$basic_string@DU?$char_traits@D@std@@V?$allocator@D@2@@std@@PAUXModel@@V?$hash_compare@V?$basic_string@DU?$char_traits@D@std@@V?$allocator@D@2@@std@@U?$less@V?$basic_string@DU?$char_traits@D@std@@V?$allocator@D@2@@std@@@2@@stdext@@U?$equal_to@V?$basic_string@DU?$char_traits@D@std@@V?$allocator@D@2@@std@@@2@V?$libc_allocator_with_realloc@U?$pair@$$CBV?$basic_string@DU?$char_traits@D@std@@V?$allocator@D@2@@std@@PAUXModel@@@std@@@google@@@google@@USetKey@78@U?$equal_to@V?$basic_string@DU?$char_traits@D@std@@V?$allocator@D@2@@std@@@2@V?$libc_allocator_with_realloc@U?$pair@$$CBV?$basic_string@DU?$char_traits@D@std@@V?$allocator@D@2@@std@@PAUXModel@@@std@@@8@@google@@$$QA_N@Z 1001d900 f i PatchMW2WeaponCamos.obj
 0001:0001c900       ??0?$_Pair_base@U?$dense_hashtable_iterator@U?$pair@$$CBV?$basic_string@DU?$char_traits@D@std@@V?$allocator@D@2@@std@@G@std@@V?$basic_string@DU?$char_traits@D@std@@V?$allocator@D@2@@2@V?$hash_compare@V?$basic_string@DU?$char_traits@D@std@@V?$allocator@D@2@@std@@U?$less@V?$basic_string@DU?$char_traits@D@std@@V?$allocator@D@2@@std@@@2@@stdext@@USelectKey@?$dense_hash_map@V?$basic_string@DU?$char_traits@D@std@@V?$allocator@D@2@@std@@GV?$hash_compare@V?$basic_string@DU?$char_traits@D@std@@V?$allocator@D@2@@std@@U?$less@V?$basic_string@DU?$char_traits@D@std@@V?$allocator@D@2@@std@@@2@@stdext@@U?$equal_to@V?$basic_string@DU?$char_traits@D@std@@V?$allocator@D@2@@std@@@2@V?$libc_allocator_with_realloc@U?$pair@$$CBV?$basic_string@DU?$char_traits@D@std@@V?$allocator@D@2@@std@@G@std@@@google@@@google@@USetKey@78@U?$equal_to@V?$basic_string@DU?$char_traits@D@std@@V?$allocator@D@2@@std@@@2@V?$libc_allocator_with_realloc@U?$pair@$$CBV?$basic_string@DU?$char_traits@D@std@@V?$allocator@D@2@@std@@G@std@@@8@@google@@_N@std@@QAE@$$QAU?$dense_hashtable_iterator@U?$pair@$$CBV?$basic_string@DU?$char_traits@D@std@@V?$allocator@D@2@@std@@G@std@@V?$basic_string@DU?$char_traits@D@std@@V?$allocator@D@2@@2@V?$hash_compare@V?$basic_string@DU?$char_traits@D@std@@V?$allocator@D@2@@std@@U?$less@V?$basic_string@DU?$char_traits@D@std@@V?$allocator@D@2@@std@@@2@@stdext@@USelectKey@?$dense_hash_map@V?$basic_string@DU?$char_traits@D@std@@V?$allocator@D@2@@std@@GV?$hash_compare@V?$basic_string@DU?$char_traits@D@std@@V?$allocator@D@2@@std@@U?$less@V?$basic_string@DU?$char_traits@D@std@@V?$allocator@D@2@@std@@@2@@stdext@@U?$equal_to@V?$basic_string@DU?$char_traits@D@std@@V?$allocator@D@2@@std@@@2@V?$libc_allocator_with_realloc@U?$pair@$$CBV?$basic_string@DU?$char_traits@D@std@@V?$allocator@D@2@@std@@G@std@@@google@@@google@@USetKey@78@U?$equal_to@V?$basic_string@DU?$char_traits@D@std@@V?$allocator@D@2@@std@@@2@V?$libc_allocator_with_realloc@U?$pair@$$CBV?$basic_string@DU?$char_traits@D@std@@V?$allocator@D@2@@std@@G@std@@@8@@google@@$$QA_N@Z 1001d900 f i PatchMW2StringList.obj
 0001:0001c900       ??0?$_Pair_base@U?$dense_hashtable_iterator@U?$pair@$$CBKPAX@std@@KV?$hash_compare@KU?$less@K@std@@@stdext@@USelectKey@?$dense_hash_map@KPAXV?$hash_compare@KU?$less@K@std@@@stdext@@U?$equal_to@K@std@@V?$libc_allocator_with_realloc@U?$pair@$$CBKPAX@std@@@google@@@google@@USetKey@67@U?$equal_to@K@2@V?$libc_allocator_with_realloc@U?$pair@$$CBKPAX@std@@@7@@google@@_N@std@@QAE@$$QAU?$dense_hashtable_iterator@U?$pair@$$CBKPAX@std@@KV?$hash_compare@KU?$less@K@std@@@stdext@@USelectKey@?$dense_hash_map@KPAXV?$hash_compare@KU?$less@K@std@@@stdext@@U?$equal_to@K@std@@V?$libc_allocator_with_realloc@U?$pair@$$CBKPAX@std@@@google@@@google@@USetKey@67@U?$equal_to@K@2@V?$libc_allocator_with_realloc@U?$pair@$$CBKPAX@std@@@7@@google@@$$QA_N@Z 1001d900 f i PatchMW2CModels.obj
 0001:0001c900       ??0?$_Pair_base@U?$dense_hashtable_iterator@U?$pair@$$CBV?$basic_string@DU?$char_traits@D@std@@V?$allocator@D@2@@std@@V12@@std@@V?$basic_string@DU?$char_traits@D@std@@V?$allocator@D@2@@2@V?$hash_compare@V?$basic_string@DU?$char_traits@D@std@@V?$allocator@D@2@@std@@U?$less@V?$basic_string@DU?$char_traits@D@std@@V?$allocator@D@2@@std@@@2@@stdext@@USelectKey@?$dense_hash_map@V?$basic_string@DU?$char_traits@D@std@@V?$allocator@D@2@@std@@V12@V?$hash_compare@V?$basic_string@DU?$char_traits@D@std@@V?$allocator@D@2@@std@@U?$less@V?$basic_string@DU?$char_traits@D@std@@V?$allocator@D@2@@std@@@2@@stdext@@U?$equal_to@V?$basic_string@DU?$char_traits@D@std@@V?$allocator@D@2@@std@@@2@V?$libc_allocator_with_realloc@U?$pair@$$CBV?$basic_string@DU?$char_traits@D@std@@V?$allocator@D@2@@std@@V12@@std@@@google@@@google@@USetKey@78@U?$equal_to@V?$basic_string@DU?$char_traits@D@std@@V?$allocator@D@2@@std@@@2@V?$libc_allocator_with_realloc@U?$pair@$$CBV?$basic_string@DU?$char_traits@D@std@@V?$allocator@D@2@@std@@V12@@std@@@8@@google@@_N@std@@QAE@$$QAU?$dense_hashtable_iterator@U?$pair@$$CBV?$basic_string@DU?$char_traits@D@std@@V?$allocator@D@2@@std@@V12@@std@@V?$basic_string@DU?$char_traits@D@std@@V?$allocator@D@2@@2@V?$hash_compare@V?$basic_string@DU?$char_traits@D@std@@V?$allocator@D@2@@std@@U?$less@V?$basic_string@DU?$char_traits@D@std@@V?$allocator@D@2@@std@@@2@@stdext@@USelectKey@?$dense_hash_map@V?$basic_string@DU?$char_traits@D@std@@V?$allocator@D@2@@std@@V12@V?$hash_compare@V?$basic_string@DU?$char_traits@D@std@@V?$allocator@D@2@@std@@U?$less@V?$basic_string@DU?$char_traits@D@std@@V?$allocator@D@2@@std@@@2@@stdext@@U?$equal_to@V?$basic_string@DU?$char_traits@D@std@@V?$allocator@D@2@@std@@@2@V?$libc_allocator_with_realloc@U?$pair@$$CBV?$basic_string@DU?$char_traits@D@std@@V?$allocator@D@2@@std@@V12@@std@@@google@@@google@@USetKey@78@U?$equal_to@V?$basic_string@DU?$char_traits@D@std@@V?$allocator@D@2@@std@@@2@V?$libc_allocator_with_realloc@U?$pair@$$CBV?$basic_string@DU?$char_traits@D@std@@V?$allocator@D@2@@std@@V12@@std@@@8@@google@@$$QA_N@Z 1001d900 f i PatchMW2LocalizedStrings.obj
 0001:0001c950       ?begin@?$dense_hashtable@U?$pair@$$CBV?$basic_string@DU?$char_traits@D@std@@V?$allocator@D@2@@std@@V12@@std@@V?$basic_string@DU?$char_traits@D@std@@V?$allocator@D@2@@2@V?$hash_compare@V?$basic_string@DU?$char_traits@D@std@@V?$allocator@D@2@@std@@U?$less@V?$basic_string@DU?$char_traits@D@std@@V?$allocator@D@2@@std@@@2@@stdext@@USelectKey@?$dense_hash_map@V?$basic_string@DU?$char_traits@D@std@@V?$allocator@D@2@@std@@V12@V?$hash_compare@V?$basic_string@DU?$char_traits@D@std@@V?$allocator@D@2@@std@@U?$less@V?$basic_string@DU?$char_traits@D@std@@V?$allocator@D@2@@std@@@2@@stdext@@U?$equal_to@V?$basic_string@DU?$char_traits@D@std@@V?$allocator@D@2@@std@@@2@V?$libc_allocator_with_realloc@U?$pair@$$CBV?$basic_string@DU?$char_traits@D@std@@V?$allocator@D@2@@std@@V12@@std@@@google@@@google@@USetKey@78@U?$equal_to@V?$basic_string@DU?$char_traits@D@std@@V?$allocator@D@2@@std@@@2@V?$libc_allocator_with_realloc@U?$pair@$$CBV?$basic_string@DU?$char_traits@D@std@@V?$allocator@D@2@@std@@V12@@std@@@8@@google@@QBE?AU?$dense_hashtable_const_iterator@U?$pair@$$CBV?$basic_string@DU?$char_traits@D@std@@V?$allocator@D@2@@std@@V12@@std@@V?$basic_string@DU?$char_traits@D@std@@V?$allocator@D@2@@2@V?$hash_compare@V?$basic_string@DU?$char_traits@D@std@@V?$allocator@D@2@@std@@U?$less@V?$basic_string@DU?$char_traits@D@std@@V?$allocator@D@2@@std@@@2@@stdext@@USelectKey@?$dense_hash_map@V?$basic_string@DU?$char_traits@D@std@@V?$allocator@D@2@@std@@V12@V?$hash_compare@V?$basic_string@DU?$char_traits@D@std@@V?$allocator@D@2@@std@@U?$less@V?$basic_string@DU?$char_traits@D@std@@V?$allocator@D@2@@std@@@2@@stdext@@U?$equal_to@V?$basic_string@DU?$char_traits@D@std@@V?$allocator@D@2@@std@@@2@V?$libc_allocator_with_realloc@U?$pair@$$CBV?$basic_string@DU?$char_traits@D@std@@V?$allocator@D@2@@std@@V12@@std@@@google@@@google@@USetKey@78@U?$equal_to@V?$basic_string@DU?$char_traits@D@std@@V?$allocator@D@2@@std@@@2@V?$libc_allocator_with_realloc@U?$pair@$$CBV?$basic_string@DU?$char_traits@D@std@@V?$allocator@D@2@@std@@V12@@std@@@8@@2@XZ 1001d950 f i PatchMW2LocalizedStrings.obj
 0001:0001c990       ?test_empty@?$dense_hashtable@U?$pair@$$CBV?$basic_string@DU?$char_traits@D@std@@V?$allocator@D@2@@std@@PAUMaterial@@@std@@V?$basic_string@DU?$char_traits@D@std@@V?$allocator@D@2@@2@V?$hash_compare@V?$basic_string@DU?$char_traits@D@std@@V?$allocator@D@2@@std@@U?$less@V?$basic_string@DU?$char_traits@D@std@@V?$allocator@D@2@@std@@@2@@stdext@@USelectKey@?$dense_hash_map@V?$basic_string@DU?$char_traits@D@std@@V?$allocator@D@2@@std@@PAUMaterial@@V?$hash_compare@V?$basic_string@DU?$char_traits@D@std@@V?$allocator@D@2@@std@@U?$less@V?$basic_string@DU?$char_traits@D@std@@V?$allocator@D@2@@std@@@2@@stdext@@U?$equal_to@V?$basic_string@DU?$char_traits@D@std@@V?$allocator@D@2@@std@@@2@V?$libc_allocator_with_realloc@U?$pair@$$CBV?$basic_string@DU?$char_traits@D@std@@V?$allocator@D@2@@std@@PAUMaterial@@@std@@@google@@@google@@USetKey@78@U?$equal_to@V?$basic_string@DU?$char_traits@D@std@@V?$allocator@D@2@@std@@@2@V?$libc_allocator_with_realloc@U?$pair@$$CBV?$basic_string@DU?$char_traits@D@std@@V?$allocator@D@2@@std@@PAUMaterial@@@std@@@8@@google@@QBE_NABU?$dense_hashtable_iterator@U?$pair@$$CBV?$basic_string@DU?$char_traits@D@std@@V?$allocator@D@2@@std@@PAUMaterial@@@std@@V?$basic_string@DU?$char_traits@D@std@@V?$allocator@D@2@@2@V?$hash_compare@V?$basic_string@DU?$char_traits@D@std@@V?$allocator@D@2@@std@@U?$less@V?$basic_string@DU?$char_traits@D@std@@V?$allocator@D@2@@std@@@2@@stdext@@USelectKey@?$dense_hash_map@V?$basic_string@DU?$char_traits@D@std@@V?$allocator@D@2@@std@@PAUMaterial@@V?$hash_compare@V?$basic_string@DU?$char_traits@D@std@@V?$allocator@D@2@@std@@U?$less@V?$basic_string@DU?$char_traits@D@std@@V?$allocator@D@2@@std@@@2@@stdext@@U?$equal_to@V?$basic_string@DU?$char_traits@D@std@@V?$allocator@D@2@@std@@@2@V?$libc_allocator_with_realloc@U?$pair@$$CBV?$basic_string@DU?$char_traits@D@std@@V?$allocator@D@2@@std@@PAUMaterial@@@std@@@google@@@google@@USetKey@78@U?$equal_to@V?$basic_string@DU?$char_traits@D@std@@V?$allocator@D@2@@std@@@2@V?$libc_allocator_with_realloc@U?$pair@$$CBV?$basic_string@DU?$char_traits@D@std@@V?$allocator@D@2@@std@@PAUMaterial@@@std@@@8@@2@@Z 1001d990 f i PatchMW2Materialism.obj
 0001:0001c990       ?test_empty@?$dense_hashtable@U?$pair@$$CBV?$basic_string@DU?$char_traits@D@std@@V?$allocator@D@2@@std@@V12@@std@@V?$basic_string@DU?$char_traits@D@std@@V?$allocator@D@2@@2@V?$hash_compare@V?$basic_string@DU?$char_traits@D@std@@V?$allocator@D@2@@std@@U?$less@V?$basic_string@DU?$char_traits@D@std@@V?$allocator@D@2@@std@@@2@@stdext@@USelectKey@?$dense_hash_map@V?$basic_string@DU?$char_traits@D@std@@V?$allocator@D@2@@std@@V12@V?$hash_compare@V?$basic_string@DU?$char_traits@D@std@@V?$allocator@D@2@@std@@U?$less@V?$basic_string@DU?$char_traits@D@std@@V?$allocator@D@2@@std@@@2@@stdext@@U?$equal_to@V?$basic_string@DU?$char_traits@D@std@@V?$allocator@D@2@@std@@@2@V?$libc_allocator_with_realloc@U?$pair@$$CBV?$basic_string@DU?$char_traits@D@std@@V?$allocator@D@2@@std@@V12@@std@@@google@@@google@@USetKey@78@U?$equal_to@V?$basic_string@DU?$char_traits@D@std@@V?$allocator@D@2@@std@@@2@V?$libc_allocator_with_realloc@U?$pair@$$CBV?$basic_string@DU?$char_traits@D@std@@V?$allocator@D@2@@std@@V12@@std@@@8@@google@@QBE_NABU?$dense_hashtable_const_iterator@U?$pair@$$CBV?$basic_string@DU?$char_traits@D@std@@V?$allocator@D@2@@std@@V12@@std@@V?$basic_string@DU?$char_traits@D@std@@V?$allocator@D@2@@2@V?$hash_compare@V?$basic_string@DU?$char_traits@D@std@@V?$allocator@D@2@@std@@U?$less@V?$basic_string@DU?$char_traits@D@std@@V?$allocator@D@2@@std@@@2@@stdext@@USelectKey@?$dense_hash_map@V?$basic_string@DU?$char_traits@D@std@@V?$allocator@D@2@@std@@V12@V?$hash_compare@V?$basic_string@DU?$char_traits@D@std@@V?$allocator@D@2@@std@@U?$less@V?$basic_string@DU?$char_traits@D@std@@V?$allocator@D@2@@std@@@2@@stdext@@U?$equal_to@V?$basic_string@DU?$char_traits@D@std@@V?$allocator@D@2@@std@@@2@V?$libc_allocator_with_realloc@U?$pair@$$CBV?$basic_string@DU?$char_traits@D@std@@V?$allocator@D@2@@std@@V12@@std@@@google@@@google@@USetKey@78@U?$equal_to@V?$basic_string@DU?$char_traits@D@std@@V?$allocator@D@2@@std@@@2@V?$libc_allocator_with_realloc@U?$pair@$$CBV?$basic_string@DU?$char_traits@D@std@@V?$allocator@D@2@@std@@V12@@std@@@8@@2@@Z 1001d990 f i PatchMW2LocalizedStrings.obj
 0001:0001c990       ?test_empty@?$dense_hashtable@U?$pair@$$CBV?$basic_string@DU?$char_traits@D@std@@V?$allocator@D@2@@std@@PAUXModel@@@std@@V?$basic_string@DU?$char_traits@D@std@@V?$allocator@D@2@@2@V?$hash_compare@V?$basic_string@DU?$char_traits@D@std@@V?$allocator@D@2@@std@@U?$less@V?$basic_string@DU?$char_traits@D@std@@V?$allocator@D@2@@std@@@2@@stdext@@USelectKey@?$dense_hash_map@V?$basic_string@DU?$char_traits@D@std@@V?$allocator@D@2@@std@@PAUXModel@@V?$hash_compare@V?$basic_string@DU?$char_traits@D@std@@V?$allocator@D@2@@std@@U?$less@V?$basic_string@DU?$char_traits@D@std@@V?$allocator@D@2@@std@@@2@@stdext@@U?$equal_to@V?$basic_string@DU?$char_traits@D@std@@V?$allocator@D@2@@std@@@2@V?$libc_allocator_with_realloc@U?$pair@$$CBV?$basic_string@DU?$char_traits@D@std@@V?$allocator@D@2@@std@@PAUXModel@@@std@@@google@@@google@@USetKey@78@U?$equal_to@V?$basic_string@DU?$char_traits@D@std@@V?$allocator@D@2@@std@@@2@V?$libc_allocator_with_realloc@U?$pair@$$CBV?$basic_string@DU?$char_traits@D@std@@V?$allocator@D@2@@std@@PAUXModel@@@std@@@8@@google@@QBE_NABU?$dense_hashtable_iterator@U?$pair@$$CBV?$basic_string@DU?$char_traits@D@std@@V?$allocator@D@2@@std@@PAUXModel@@@std@@V?$basic_string@DU?$char_traits@D@std@@V?$allocator@D@2@@2@V?$hash_compare@V?$basic_string@DU?$char_traits@D@std@@V?$allocator@D@2@@std@@U?$less@V?$basic_string@DU?$char_traits@D@std@@V?$allocator@D@2@@std@@@2@@stdext@@USelectKey@?$dense_hash_map@V?$basic_string@DU?$char_traits@D@std@@V?$allocator@D@2@@std@@PAUXModel@@V?$hash_compare@V?$basic_string@DU?$char_traits@D@std@@V?$allocator@D@2@@std@@U?$less@V?$basic_string@DU?$char_traits@D@std@@V?$allocator@D@2@@std@@@2@@stdext@@U?$equal_to@V?$basic_string@DU?$char_traits@D@std@@V?$allocator@D@2@@std@@@2@V?$libc_allocator_with_realloc@U?$pair@$$CBV?$basic_string@DU?$char_traits@D@std@@V?$allocator@D@2@@std@@PAUXModel@@@std@@@google@@@google@@USetKey@78@U?$equal_to@V?$basic_string@DU?$char_traits@D@std@@V?$allocator@D@2@@std@@@2@V?$libc_allocator_with_realloc@U?$pair@$$CBV?$basic_string@DU?$char_traits@D@std@@V?$allocator@D@2@@std@@PAUXModel@@@std@@@8@@2@@Z 1001d990 f i PatchMW2WeaponCamos.obj
 0001:0001c990       ?test_empty@?$dense_hashtable@U?$pair@$$CBV?$basic_string@DU?$char_traits@D@std@@V?$allocator@D@2@@std@@PAUMaterial@@@std@@V?$basic_string@DU?$char_traits@D@std@@V?$allocator@D@2@@2@V?$hash_compare@V?$basic_string@DU?$char_traits@D@std@@V?$allocator@D@2@@std@@U?$less@V?$basic_string@DU?$char_traits@D@std@@V?$allocator@D@2@@std@@@2@@stdext@@USelectKey@?$dense_hash_map@V?$basic_string@DU?$char_traits@D@std@@V?$allocator@D@2@@std@@PAUMaterial@@V?$hash_compare@V?$basic_string@DU?$char_traits@D@std@@V?$allocator@D@2@@std@@U?$less@V?$basic_string@DU?$char_traits@D@std@@V?$allocator@D@2@@std@@@2@@stdext@@U?$equal_to@V?$basic_string@DU?$char_traits@D@std@@V?$allocator@D@2@@std@@@2@V?$libc_allocator_with_realloc@U?$pair@$$CBV?$basic_string@DU?$char_traits@D@std@@V?$allocator@D@2@@std@@PAUMaterial@@@std@@@google@@@google@@USetKey@78@U?$equal_to@V?$basic_string@DU?$char_traits@D@std@@V?$allocator@D@2@@std@@@2@V?$libc_allocator_with_realloc@U?$pair@$$CBV?$basic_string@DU?$char_traits@D@std@@V?$allocator@D@2@@std@@PAUMaterial@@@std@@@8@@google@@QBE_NABU?$dense_hashtable_const_iterator@U?$pair@$$CBV?$basic_string@DU?$char_traits@D@std@@V?$allocator@D@2@@std@@PAUMaterial@@@std@@V?$basic_string@DU?$char_traits@D@std@@V?$allocator@D@2@@2@V?$hash_compare@V?$basic_string@DU?$char_traits@D@std@@V?$allocator@D@2@@std@@U?$less@V?$basic_string@DU?$char_traits@D@std@@V?$allocator@D@2@@std@@@2@@stdext@@USelectKey@?$dense_hash_map@V?$basic_string@DU?$char_traits@D@std@@V?$allocator@D@2@@std@@PAUMaterial@@V?$hash_compare@V?$basic_string@DU?$char_traits@D@std@@V?$allocator@D@2@@std@@U?$less@V?$basic_string@DU?$char_traits@D@std@@V?$allocator@D@2@@std@@@2@@stdext@@U?$equal_to@V?$basic_string@DU?$char_traits@D@std@@V?$allocator@D@2@@std@@@2@V?$libc_allocator_with_realloc@U?$pair@$$CBV?$basic_string@DU?$char_traits@D@std@@V?$allocator@D@2@@std@@PAUMaterial@@@std@@@google@@@google@@USetKey@78@U?$equal_to@V?$basic_string@DU?$char_traits@D@std@@V?$allocator@D@2@@std@@@2@V?$libc_allocator_with_realloc@U?$pair@$$CBV?$basic_string@DU?$char_traits@D@std@@V?$allocator@D@2@@std@@PAUMaterial@@@std@@@8@@2@@Z 1001d990 f i PatchMW2Materialism.obj
 0001:0001c990       ?test_empty@?$dense_hashtable@U?$pair@$$CBV?$basic_string@DU?$char_traits@D@std@@V?$allocator@D@2@@std@@V12@@std@@V?$basic_string@DU?$char_traits@D@std@@V?$allocator@D@2@@2@V?$hash_compare@V?$basic_string@DU?$char_traits@D@std@@V?$allocator@D@2@@std@@U?$less@V?$basic_string@DU?$char_traits@D@std@@V?$allocator@D@2@@std@@@2@@stdext@@USelectKey@?$dense_hash_map@V?$basic_string@DU?$char_traits@D@std@@V?$allocator@D@2@@std@@V12@V?$hash_compare@V?$basic_string@DU?$char_traits@D@std@@V?$allocator@D@2@@std@@U?$less@V?$basic_string@DU?$char_traits@D@std@@V?$allocator@D@2@@std@@@2@@stdext@@U?$equal_to@V?$basic_string@DU?$char_traits@D@std@@V?$allocator@D@2@@std@@@2@V?$libc_allocator_with_realloc@U?$pair@$$CBV?$basic_string@DU?$char_traits@D@std@@V?$allocator@D@2@@std@@V12@@std@@@google@@@google@@USetKey@78@U?$equal_to@V?$basic_string@DU?$char_traits@D@std@@V?$allocator@D@2@@std@@@2@V?$libc_allocator_with_realloc@U?$pair@$$CBV?$basic_string@DU?$char_traits@D@std@@V?$allocator@D@2@@std@@V12@@std@@@8@@google@@QBE_NABU?$dense_hashtable_iterator@U?$pair@$$CBV?$basic_string@DU?$char_traits@D@std@@V?$allocator@D@2@@std@@V12@@std@@V?$basic_string@DU?$char_traits@D@std@@V?$allocator@D@2@@2@V?$hash_compare@V?$basic_string@DU?$char_traits@D@std@@V?$allocator@D@2@@std@@U?$less@V?$basic_string@DU?$char_traits@D@std@@V?$allocator@D@2@@std@@@2@@stdext@@USelectKey@?$dense_hash_map@V?$basic_string@DU?$char_traits@D@std@@V?$allocator@D@2@@std@@V12@V?$hash_compare@V?$basic_string@DU?$char_traits@D@std@@V?$allocator@D@2@@std@@U?$less@V?$basic_string@DU?$char_traits@D@std@@V?$allocator@D@2@@std@@@2@@stdext@@U?$equal_to@V?$basic_string@DU?$char_traits@D@std@@V?$allocator@D@2@@std@@@2@V?$libc_allocator_with_realloc@U?$pair@$$CBV?$basic_string@DU?$char_traits@D@std@@V?$allocator@D@2@@std@@V12@@std@@@google@@@google@@USetKey@78@U?$equal_to@V?$basic_string@DU?$char_traits@D@std@@V?$allocator@D@2@@std@@@2@V?$libc_allocator_with_realloc@U?$pair@$$CBV?$basic_string@DU?$char_traits@D@std@@V?$allocator@D@2@@std@@V12@@std@@@8@@2@@Z 1001d990 f i PatchMW2LocalizedStrings.obj
 0001:0001c990       ?test_empty@?$dense_hashtable@U?$pair@$$CBV?$basic_string@DU?$char_traits@D@std@@V?$allocator@D@2@@std@@G@std@@V?$basic_string@DU?$char_traits@D@std@@V?$allocator@D@2@@2@V?$hash_compare@V?$basic_string@DU?$char_traits@D@std@@V?$allocator@D@2@@std@@U?$less@V?$basic_string@DU?$char_traits@D@std@@V?$allocator@D@2@@std@@@2@@stdext@@USelectKey@?$dense_hash_map@V?$basic_string@DU?$char_traits@D@std@@V?$allocator@D@2@@std@@GV?$hash_compare@V?$basic_string@DU?$char_traits@D@std@@V?$allocator@D@2@@std@@U?$less@V?$basic_string@DU?$char_traits@D@std@@V?$allocator@D@2@@std@@@2@@stdext@@U?$equal_to@V?$basic_string@DU?$char_traits@D@std@@V?$allocator@D@2@@std@@@2@V?$libc_allocator_with_realloc@U?$pair@$$CBV?$basic_string@DU?$char_traits@D@std@@V?$allocator@D@2@@std@@G@std@@@google@@@google@@USetKey@78@U?$equal_to@V?$basic_string@DU?$char_traits@D@std@@V?$allocator@D@2@@std@@@2@V?$libc_allocator_with_realloc@U?$pair@$$CBV?$basic_string@DU?$char_traits@D@std@@V?$allocator@D@2@@std@@G@std@@@8@@google@@QBE_NABU?$dense_hashtable_iterator@U?$pair@$$CBV?$basic_string@DU?$char_traits@D@std@@V?$allocator@D@2@@std@@G@std@@V?$basic_string@DU?$char_traits@D@std@@V?$allocator@D@2@@2@V?$hash_compare@V?$basic_string@DU?$char_traits@D@std@@V?$allocator@D@2@@std@@U?$less@V?$basic_string@DU?$char_traits@D@std@@V?$allocator@D@2@@std@@@2@@stdext@@USelectKey@?$dense_hash_map@V?$basic_string@DU?$char_traits@D@std@@V?$allocator@D@2@@std@@GV?$hash_compare@V?$basic_string@DU?$char_traits@D@std@@V?$allocator@D@2@@std@@U?$less@V?$basic_string@DU?$char_traits@D@std@@V?$allocator@D@2@@std@@@2@@stdext@@U?$equal_to@V?$basic_string@DU?$char_traits@D@std@@V?$allocator@D@2@@std@@@2@V?$libc_allocator_with_realloc@U?$pair@$$CBV?$basic_string@DU?$char_traits@D@std@@V?$allocator@D@2@@std@@G@std@@@google@@@google@@USetKey@78@U?$equal_to@V?$basic_string@DU?$char_traits@D@std@@V?$allocator@D@2@@std@@@2@V?$libc_allocator_with_realloc@U?$pair@$$CBV?$basic_string@DU?$char_traits@D@std@@V?$allocator@D@2@@std@@G@std@@@8@@2@@Z 1001d990 f i PatchMW2StringList.obj
 0001:0001c990       ?test_empty@?$dense_hashtable@U?$pair@$$CBV?$basic_string@DU?$char_traits@D@std@@V?$allocator@D@2@@std@@PAUstringTable_s@@@std@@V?$basic_string@DU?$char_traits@D@std@@V?$allocator@D@2@@2@V?$hash_compare@V?$basic_string@DU?$char_traits@D@std@@V?$allocator@D@2@@std@@U?$less@V?$basic_string@DU?$char_traits@D@std@@V?$allocator@D@2@@std@@@2@@stdext@@USelectKey@?$dense_hash_map@V?$basic_string@DU?$char_traits@D@std@@V?$allocator@D@2@@std@@PAUstringTable_s@@V?$hash_compare@V?$basic_string@DU?$char_traits@D@std@@V?$allocator@D@2@@std@@U?$less@V?$basic_string@DU?$char_traits@D@std@@V?$allocator@D@2@@std@@@2@@stdext@@U?$equal_to@V?$basic_string@DU?$char_traits@D@std@@V?$allocator@D@2@@std@@@2@V?$libc_allocator_with_realloc@U?$pair@$$CBV?$basic_string@DU?$char_traits@D@std@@V?$allocator@D@2@@std@@PAUstringTable_s@@@std@@@google@@@google@@USetKey@78@U?$equal_to@V?$basic_string@DU?$char_traits@D@std@@V?$allocator@D@2@@std@@@2@V?$libc_allocator_with_realloc@U?$pair@$$CBV?$basic_string@DU?$char_traits@D@std@@V?$allocator@D@2@@std@@PAUstringTable_s@@@std@@@8@@google@@QBE_NABU?$dense_hashtable_iterator@U?$pair@$$CBV?$basic_string@DU?$char_traits@D@std@@V?$allocator@D@2@@std@@PAUstringTable_s@@@std@@V?$basic_string@DU?$char_traits@D@std@@V?$allocator@D@2@@2@V?$hash_compare@V?$basic_string@DU?$char_traits@D@std@@V?$allocator@D@2@@std@@U?$less@V?$basic_string@DU?$char_traits@D@std@@V?$allocator@D@2@@std@@@2@@stdext@@USelectKey@?$dense_hash_map@V?$basic_string@DU?$char_traits@D@std@@V?$allocator@D@2@@std@@PAUstringTable_s@@V?$hash_compare@V?$basic_string@DU?$char_traits@D@std@@V?$allocator@D@2@@std@@U?$less@V?$basic_string@DU?$char_traits@D@std@@V?$allocator@D@2@@std@@@2@@stdext@@U?$equal_to@V?$basic_string@DU?$char_traits@D@std@@V?$allocator@D@2@@std@@@2@V?$libc_allocator_with_realloc@U?$pair@$$CBV?$basic_string@DU?$char_traits@D@std@@V?$allocator@D@2@@std@@PAUstringTable_s@@@std@@@google@@@google@@USetKey@78@U?$equal_to@V?$basic_string@DU?$char_traits@D@std@@V?$allocator@D@2@@std@@@2@V?$libc_allocator_with_realloc@U?$pair@$$CBV?$basic_string@DU?$char_traits@D@std@@V?$allocator@D@2@@std@@PAUstringTable_s@@@std@@@8@@2@@Z 1001d990 f i PatchMW2StringTable.obj
 0001:0001c990       ?test_empty@?$dense_hashtable@U?$pair@$$CBV?$basic_string@DU?$char_traits@D@std@@V?$allocator@D@2@@std@@G@std@@V?$basic_string@DU?$char_traits@D@std@@V?$allocator@D@2@@2@V?$hash_compare@V?$basic_string@DU?$char_traits@D@std@@V?$allocator@D@2@@std@@U?$less@V?$basic_string@DU?$char_traits@D@std@@V?$allocator@D@2@@std@@@2@@stdext@@USelectKey@?$dense_hash_map@V?$basic_string@DU?$char_traits@D@std@@V?$allocator@D@2@@std@@GV?$hash_compare@V?$basic_string@DU?$char_traits@D@std@@V?$allocator@D@2@@std@@U?$less@V?$basic_string@DU?$char_traits@D@std@@V?$allocator@D@2@@std@@@2@@stdext@@U?$equal_to@V?$basic_string@DU?$char_traits@D@std@@V?$allocator@D@2@@std@@@2@V?$libc_allocator_with_realloc@U?$pair@$$CBV?$basic_string@DU?$char_traits@D@std@@V?$allocator@D@2@@std@@G@std@@@google@@@google@@USetKey@78@U?$equal_to@V?$basic_string@DU?$char_traits@D@std@@V?$allocator@D@2@@std@@@2@V?$libc_allocator_with_realloc@U?$pair@$$CBV?$basic_string@DU?$char_traits@D@std@@V?$allocator@D@2@@std@@G@std@@@8@@google@@QBE_NABU?$dense_hashtable_const_iterator@U?$pair@$$CBV?$basic_string@DU?$char_traits@D@std@@V?$allocator@D@2@@std@@G@std@@V?$basic_string@DU?$char_traits@D@std@@V?$allocator@D@2@@2@V?$hash_compare@V?$basic_string@DU?$char_traits@D@std@@V?$allocator@D@2@@std@@U?$less@V?$basic_string@DU?$char_traits@D@std@@V?$allocator@D@2@@std@@@2@@stdext@@USelectKey@?$dense_hash_map@V?$basic_string@DU?$char_traits@D@std@@V?$allocator@D@2@@std@@GV?$hash_compare@V?$basic_string@DU?$char_traits@D@std@@V?$allocator@D@2@@std@@U?$less@V?$basic_string@DU?$char_traits@D@std@@V?$allocator@D@2@@std@@@2@@stdext@@U?$equal_to@V?$basic_string@DU?$char_traits@D@std@@V?$allocator@D@2@@std@@@2@V?$libc_allocator_with_realloc@U?$pair@$$CBV?$basic_string@DU?$char_traits@D@std@@V?$allocator@D@2@@std@@G@std@@@google@@@google@@USetKey@78@U?$equal_to@V?$basic_string@DU?$char_traits@D@std@@V?$allocator@D@2@@std@@@2@V?$libc_allocator_with_realloc@U?$pair@$$CBV?$basic_string@DU?$char_traits@D@std@@V?$allocator@D@2@@std@@G@std@@@8@@2@@Z 1001d990 f i PatchMW2StringList.obj
